---
triple:          'arm64-apple-darwin'
binary-path:     '/Users/jimmyliu/CPP_Project/Log_Analysist_Tool/benchmark'
relocations:
  - { offsetInCU: 0xE98, offset: 0xE98, size: 0x8, addend: 0x0, symName: __ZN6spdlog7details2osL11folder_sepsE, symObjAddr: 0x89290, symBinAddr: 0x10008D700, symSize: 0x0 }
  - { offsetInCU: 0xEA5, offset: 0xEA5, size: 0x8, addend: 0x0, symName: __ZN6spdlog7details2os17is_color_terminalEv, symObjAddr: 0x34B58, symBinAddr: 0x1000382D8, symSize: 0x98 }
  - { offsetInCU: 0xED0, offset: 0xED0, size: 0x8, addend: 0x0, symName: __ZZN6spdlog7details2os17is_color_terminalEvE6result, symObjAddr: 0x86068, symBinAddr: 0x10009C238, symSize: 0x0 }
  - { offsetInCU: 0xEF4, offset: 0xEF4, size: 0x8, addend: 0x0, symName: __ZN6spdlog7details2os9thread_idEv, symObjAddr: 0x6B41C, symBinAddr: 0x10006EB9C, symSize: 0x88 }
  - { offsetInCU: 0xF36, offset: 0xF36, size: 0x8, addend: 0x0, symName: __ZN6spdlog7details2osL20folder_seps_filenameE, symObjAddr: 0x8A9FB, symBinAddr: 0x10008EE6B, symSize: 0x0 }
  - { offsetInCU: 0xF43, offset: 0xF43, size: 0x8, addend: 0x0, symName: __ZN6spdlog7details2os9localtimeERKl, symObjAddr: 0x2F9D0, symBinAddr: 0x100033150, symSize: 0x30 }
  - { offsetInCU: 0xF7E, offset: 0xF7E, size: 0x8, addend: 0x0, symName: __ZN6spdlog7details2os6gmtimeERKl, symObjAddr: 0x2FA00, symBinAddr: 0x100033180, symSize: 0x30 }
  - { offsetInCU: 0xFB9, offset: 0xFB9, size: 0x8, addend: 0x0, symName: __ZN6spdlog7details2os11in_terminalEP7__sFILE, symObjAddr: 0x34B08, symBinAddr: 0x100038288, symSize: 0x50 }
  - { offsetInCU: 0xFE7, offset: 0xFE7, size: 0x8, addend: 0x0, symName: __ZN6spdlog7details2os18utc_minutes_offsetERK2tm, symObjAddr: 0x53888, symBinAddr: 0x100057008, symSize: 0x50 }
  - { offsetInCU: 0x1044, offset: 0x1044, size: 0x8, addend: 0x0, symName: __ZN6spdlog7details2os6gmtimeEv, symObjAddr: 0x53A04, symBinAddr: 0x100057184, symSize: 0x44 }
  - { offsetInCU: 0x1070, offset: 0x1070, size: 0x8, addend: 0x0, symName: __ZN6spdlog7details2os3pidEv, symObjAddr: 0x54050, symBinAddr: 0x1000577D0, symSize: 0x3C }
  - { offsetInCU: 0x108E, offset: 0x108E, size: 0x8, addend: 0x0, symName: __ZN6spdlog7details2os3nowEv, symObjAddr: 0x6B304, symBinAddr: 0x10006EA84, symSize: 0x24 }
  - { offsetInCU: 0x10AB, offset: 0x10AB, size: 0x8, addend: 0x0, symName: __ZN6spdlog7details2os10_thread_idEv, symObjAddr: 0x6B4A4, symBinAddr: 0x10006EC24, symSize: 0x30 }
  - { offsetInCU: 0x10D9, offset: 0x10D9, size: 0x8, addend: 0x0, symName: __ZN6spdlog7details2os10create_dirERKNSt3__112basic_stringIcNS2_11char_traitsIcEENS2_9allocatorIcEEEE, symObjAddr: 0x777AC, symBinAddr: 0x10007AF2C, symSize: 0x1B0 }
  - { offsetInCU: 0x113A, offset: 0x113A, size: 0x8, addend: 0x0, symName: __ZN6spdlog7details2os8dir_nameERKNSt3__112basic_stringIcNS2_11char_traitsIcEENS2_9allocatorIcEEEE, symObjAddr: 0x7795C, symBinAddr: 0x10007B0DC, symSize: 0x74 }
  - { offsetInCU: 0x1177, offset: 0x1177, size: 0x8, addend: 0x0, symName: __ZN6spdlog7details2os7fopen_sEPP7__sFILERKNSt3__112basic_stringIcNS5_11char_traitsIcEENS5_9allocatorIcEEEESD_, symObjAddr: 0x779D0, symBinAddr: 0x10007B150, symSize: 0x60 }
  - { offsetInCU: 0x11BF, offset: 0x11BF, size: 0x8, addend: 0x0, symName: __ZN6spdlog7details2os16sleep_for_millisEj, symObjAddr: 0x77A90, symBinAddr: 0x10007B210, symSize: 0x40 }
  - { offsetInCU: 0x11E9, offset: 0x11E9, size: 0x8, addend: 0x0, symName: __ZN6spdlog7details2os15filename_to_strERKNSt3__112basic_stringIcNS2_11char_traitsIcEENS2_9allocatorIcEEEE, symObjAddr: 0x77BC0, symBinAddr: 0x10007B340, symSize: 0x38 }
  - { offsetInCU: 0x1217, offset: 0x1217, size: 0x8, addend: 0x0, symName: __ZN6spdlog7details2os11path_existsERKNSt3__112basic_stringIcNS2_11char_traitsIcEENS2_9allocatorIcEEEE, symObjAddr: 0x77BF8, symBinAddr: 0x10007B378, symSize: 0x48 }
  - { offsetInCU: 0x1251, offset: 0x1251, size: 0x8, addend: 0x0, symName: __ZN6spdlog7details2osL6mkdir_ERKNSt3__112basic_stringIcNS2_11char_traitsIcEENS2_9allocatorIcEEEE, symObjAddr: 0x77D1C, symBinAddr: 0x10007B49C, symSize: 0x38 }
  - { offsetInCU: 0x12B0, offset: 0x12B0, size: 0x8, addend: 0x0, symName: __ZN6spdlog7detailsL4daysE, symObjAddr: 0x86128, symBinAddr: 0x10009C2F8, symSize: 0x0 }
  - { offsetInCU: 0x12C9, offset: 0x12C9, size: 0x8, addend: 0x0, symName: __ZN6spdlog7detailsL9full_daysE, symObjAddr: 0x86160, symBinAddr: 0x10009C330, symSize: 0x0 }
  - { offsetInCU: 0x12E2, offset: 0x12E2, size: 0x8, addend: 0x0, symName: __ZN6spdlog7detailsL6monthsE, symObjAddr: 0x868E8, symBinAddr: 0x100097050, symSize: 0x0 }
  - { offsetInCU: 0x12FB, offset: 0x12FB, size: 0x8, addend: 0x0, symName: __ZN6spdlog7detailsL11full_monthsE, symObjAddr: 0x86988, symBinAddr: 0x1000970F0, symSize: 0x0 }
  - { offsetInCU: 0x173F, offset: 0x173F, size: 0x8, addend: 0x0, symName: __ZN6spdlog7details10fmt_helper12count_digitsImEEjT_, symObjAddr: 0x498DC, symBinAddr: 0x10004D05C, symSize: 0x24 }
  - { offsetInCU: 0x177F, offset: 0x177F, size: 0x8, addend: 0x0, symName: __ZN6spdlog7details10fmt_helper12count_digitsIjEEjT_, symObjAddr: 0x540C4, symBinAddr: 0x100057844, symSize: 0x24 }
  - { offsetInCU: 0x17BF, offset: 0x17BF, size: 0x8, addend: 0x0, symName: __ZN6spdlog7details10fmt_helper12count_digitsIiEEjT_, symObjAddr: 0x5536C, symBinAddr: 0x100058AEC, symSize: 0x24 }
  - { offsetInCU: 0x17FF, offset: 0x17FF, size: 0x8, addend: 0x0, symName: __ZN6spdlog7details10fmt_helper10append_intIiEEvT_RN3fmt2v919basic_memory_bufferIcLm250ENSt3__19allocatorIcEEEE, symObjAddr: 0x6228, symBinAddr: 0x1000099A8, symSize: 0xAC }
  - { offsetInCU: 0x184C, offset: 0x184C, size: 0x8, addend: 0x0, symName: __ZN6spdlog7details10fmt_helper4pad2EiRN3fmt2v919basic_memory_bufferIcLm250ENSt3__19allocatorIcEEEE, symObjAddr: 0x62D4, symBinAddr: 0x100009A54, symSize: 0x1D8 }
  - { offsetInCU: 0x19BE, offset: 0x19BE, size: 0x8, addend: 0x0, symName: __ZN6spdlog7details10fmt_helper13time_fractionINSt3__16chrono8durationIxNS3_5ratioILl1ELl1000EEEEEEET_NS4_10time_pointINS4_12system_clockENS5_IxNS6_ILl1ELl1000000EEEEEEE, symObjAddr: 0x65F0, symBinAddr: 0x100009D70, symSize: 0x88 }
  - { offsetInCU: 0x1A16, offset: 0x1A16, size: 0x8, addend: 0x0, symName: __ZN6spdlog7details10fmt_helper4pad3IjEEvT_RN3fmt2v919basic_memory_bufferIcLm250ENSt3__19allocatorIcEEEE, symObjAddr: 0x6678, symBinAddr: 0x100009DF8, symSize: 0xD0 }
  - { offsetInCU: 0x1A55, offset: 0x1A55, size: 0x8, addend: 0x0, symName: __ZN6spdlog7details10fmt_helper18append_string_viewEN3fmt2v917basic_string_viewIcEERNS3_19basic_memory_bufferIcLm250ENSt3__19allocatorIcEEEE, symObjAddr: 0x6778, symBinAddr: 0x100009EF8, symSize: 0x74 }
  - { offsetInCU: 0x1A99, offset: 0x1A99, size: 0x8, addend: 0x0, symName: __ZN6spdlog7details10fmt_helper10append_intIjEEvT_RN3fmt2v919basic_memory_bufferIcLm250ENSt3__19allocatorIcEEEE, symObjAddr: 0x2EEFC, symBinAddr: 0x10003267C, symSize: 0xAC }
  - { offsetInCU: 0x1AE6, offset: 0x1AE6, size: 0x8, addend: 0x0, symName: __ZN6spdlog7details10fmt_helper10append_intImEEvT_RN3fmt2v919basic_memory_bufferIcLm250ENSt3__19allocatorIcEEEE, symObjAddr: 0x49830, symBinAddr: 0x10004CFB0, symSize: 0xAC }
  - { offsetInCU: 0x1B33, offset: 0x1B33, size: 0x8, addend: 0x0, symName: __ZN6spdlog7details10fmt_helper13time_fractionINSt3__16chrono8durationIxNS3_5ratioILl1ELl1000000EEEEEEET_NS4_10time_pointINS4_12system_clockES8_EE, symObjAddr: 0x503EC, symBinAddr: 0x100053B6C, symSize: 0x88 }
  - { offsetInCU: 0x1B8B, offset: 0x1B8B, size: 0x8, addend: 0x0, symName: __ZN6spdlog7details10fmt_helper4pad6ImEEvT_RN3fmt2v919basic_memory_bufferIcLm250ENSt3__19allocatorIcEEEE, symObjAddr: 0x50474, symBinAddr: 0x100053BF4, symSize: 0x30 }
  - { offsetInCU: 0x1BCA, offset: 0x1BCA, size: 0x8, addend: 0x0, symName: __ZN6spdlog7details10fmt_helper8pad_uintImEEvT_jRN3fmt2v919basic_memory_bufferIcLm250ENSt3__19allocatorIcEEEE, symObjAddr: 0x50514, symBinAddr: 0x100053C94, symSize: 0x80 }
  - { offsetInCU: 0x1C33, offset: 0x1C33, size: 0x8, addend: 0x0, symName: __ZN6spdlog7details10fmt_helper13time_fractionINSt3__16chrono8durationIxNS3_5ratioILl1ELl1000000000EEEEEEET_NS4_10time_pointINS4_12system_clockENS5_IxNS6_ILl1ELl1000000EEEEEEE, symObjAddr: 0x50BB8, symBinAddr: 0x100054338, symSize: 0x88 }
  - { offsetInCU: 0x1C8B, offset: 0x1C8B, size: 0x8, addend: 0x0, symName: __ZN6spdlog7details10fmt_helper4pad9ImEEvT_RN3fmt2v919basic_memory_bufferIcLm250ENSt3__19allocatorIcEEEE, symObjAddr: 0x50C40, symBinAddr: 0x1000543C0, symSize: 0x30 }
  - { offsetInCU: 0x1CCA, offset: 0x1CCA, size: 0x8, addend: 0x0, symName: __ZN6spdlog7details10fmt_helper10append_intIxEEvT_RN3fmt2v919basic_memory_bufferIcLm250ENSt3__19allocatorIcEEEE, symObjAddr: 0x51474, symBinAddr: 0x100054BF4, symSize: 0xAC }
  - { offsetInCU: 0x4235, offset: 0x4235, size: 0x8, addend: 0x0, symName: __ZN6spdlog7details11make_uniqueINS0_14full_formatterEJNS0_12padding_infoEEEENSt3__110unique_ptrIT_NS4_14default_deleteIS6_EEEEDpOT0_, symObjAddr: 0x30F0, symBinAddr: 0x100006870, symSize: 0x7C }
  - { offsetInCU: 0x4277, offset: 0x4277, size: 0x8, addend: 0x0, symName: __ZN6spdlog7details11make_uniqueINS_17pattern_formatterEJRKNSt3__112basic_stringIcNS3_11char_traitsIcEENS3_9allocatorIcEEEERKNS_17pattern_time_typeESB_NS3_13unordered_mapIcNS3_10unique_ptrINS_21custom_flag_formatterENS3_14default_deleteISH_EEEENS3_4hashIcEENS3_8equal_toIcEENS7_INS3_4pairIKcSK_EEEEEEEEENSG_IT_NSI_ISU_EEEEDpOT0_, symObjAddr: 0x2FDC0, symBinAddr: 0x100033540, symSize: 0x15C }
  - { offsetInCU: 0x42F5, offset: 0x42F5, size: 0x8, addend: 0x0, symName: __ZN6spdlog7details11make_uniqueINS_17pattern_formatterEJEEENSt3__110unique_ptrIT_NS3_14default_deleteIS5_EEEEDpOT0_, symObjAddr: 0x3461C, symBinAddr: 0x100037D9C, symSize: 0xD4 }
  - { offsetInCU: 0x4322, offset: 0x4322, size: 0x8, addend: 0x0, symName: __ZN6spdlog7details11make_uniqueINS0_19aggregate_formatterEJEEENSt3__110unique_ptrIT_NS3_14default_deleteIS5_EEEEDpOT0_, symObjAddr: 0x451A8, symBinAddr: 0x100048928, symSize: 0x50 }
  - { offsetInCU: 0x434F, offset: 0x434F, size: 0x8, addend: 0x0, symName: __ZN6spdlog7details11make_uniqueINS0_14full_formatterEJRNS0_12padding_infoEEEENSt3__110unique_ptrIT_NS5_14default_deleteIS7_EEEEDpOT0_, symObjAddr: 0x45940, symBinAddr: 0x1000490C0, symSize: 0x7C }
  - { offsetInCU: 0x4391, offset: 0x4391, size: 0x8, addend: 0x0, symName: __ZN6spdlog7details11make_uniqueINS0_14name_formatterINS0_13scoped_padderEEEJRNS0_12padding_infoEEEENSt3__110unique_ptrIT_NS7_14default_deleteIS9_EEEEDpOT0_, symObjAddr: 0x459BC, symBinAddr: 0x10004913C, symSize: 0x7C }
  - { offsetInCU: 0x43D3, offset: 0x43D3, size: 0x8, addend: 0x0, symName: __ZN6spdlog7details11make_uniqueINS0_15level_formatterINS0_13scoped_padderEEEJRNS0_12padding_infoEEEENSt3__110unique_ptrIT_NS7_14default_deleteIS9_EEEEDpOT0_, symObjAddr: 0x45A98, symBinAddr: 0x100049218, symSize: 0x7C }
  - { offsetInCU: 0x4415, offset: 0x4415, size: 0x8, addend: 0x0, symName: __ZN6spdlog7details11make_uniqueINS0_21short_level_formatterINS0_13scoped_padderEEEJRNS0_12padding_infoEEEENSt3__110unique_ptrIT_NS7_14default_deleteIS9_EEEEDpOT0_, symObjAddr: 0x45B74, symBinAddr: 0x1000492F4, symSize: 0x7C }
  - { offsetInCU: 0x4457, offset: 0x4457, size: 0x8, addend: 0x0, symName: __ZN6spdlog7details11make_uniqueINS0_11t_formatterINS0_13scoped_padderEEEJRNS0_12padding_infoEEEENSt3__110unique_ptrIT_NS7_14default_deleteIS9_EEEEDpOT0_, symObjAddr: 0x45C50, symBinAddr: 0x1000493D0, symSize: 0x7C }
  - { offsetInCU: 0x4499, offset: 0x4499, size: 0x8, addend: 0x0, symName: __ZN6spdlog7details11make_uniqueINS0_11v_formatterINS0_13scoped_padderEEEJRNS0_12padding_infoEEEENSt3__110unique_ptrIT_NS7_14default_deleteIS9_EEEEDpOT0_, symObjAddr: 0x45D2C, symBinAddr: 0x1000494AC, symSize: 0x7C }
  - { offsetInCU: 0x44DB, offset: 0x44DB, size: 0x8, addend: 0x0, symName: __ZN6spdlog7details11make_uniqueINS0_11a_formatterINS0_13scoped_padderEEEJRNS0_12padding_infoEEEENSt3__110unique_ptrIT_NS7_14default_deleteIS9_EEEEDpOT0_, symObjAddr: 0x45E08, symBinAddr: 0x100049588, symSize: 0x7C }
  - { offsetInCU: 0x451D, offset: 0x451D, size: 0x8, addend: 0x0, symName: __ZN6spdlog7details11make_uniqueINS0_11A_formatterINS0_13scoped_padderEEEJRNS0_12padding_infoEEEENSt3__110unique_ptrIT_NS7_14default_deleteIS9_EEEEDpOT0_, symObjAddr: 0x45EE4, symBinAddr: 0x100049664, symSize: 0x7C }
  - { offsetInCU: 0x455F, offset: 0x455F, size: 0x8, addend: 0x0, symName: __ZN6spdlog7details11make_uniqueINS0_11b_formatterINS0_13scoped_padderEEEJRNS0_12padding_infoEEEENSt3__110unique_ptrIT_NS7_14default_deleteIS9_EEEEDpOT0_, symObjAddr: 0x45FC0, symBinAddr: 0x100049740, symSize: 0x7C }
  - { offsetInCU: 0x45A1, offset: 0x45A1, size: 0x8, addend: 0x0, symName: __ZN6spdlog7details11make_uniqueINS0_11B_formatterINS0_13scoped_padderEEEJRNS0_12padding_infoEEEENSt3__110unique_ptrIT_NS7_14default_deleteIS9_EEEEDpOT0_, symObjAddr: 0x4609C, symBinAddr: 0x10004981C, symSize: 0x7C }
  - { offsetInCU: 0x45E3, offset: 0x45E3, size: 0x8, addend: 0x0, symName: __ZN6spdlog7details11make_uniqueINS0_11c_formatterINS0_13scoped_padderEEEJRNS0_12padding_infoEEEENSt3__110unique_ptrIT_NS7_14default_deleteIS9_EEEEDpOT0_, symObjAddr: 0x46178, symBinAddr: 0x1000498F8, symSize: 0x7C }
  - { offsetInCU: 0x4625, offset: 0x4625, size: 0x8, addend: 0x0, symName: __ZN6spdlog7details11make_uniqueINS0_11C_formatterINS0_13scoped_padderEEEJRNS0_12padding_infoEEEENSt3__110unique_ptrIT_NS7_14default_deleteIS9_EEEEDpOT0_, symObjAddr: 0x46254, symBinAddr: 0x1000499D4, symSize: 0x7C }
  - { offsetInCU: 0x4667, offset: 0x4667, size: 0x8, addend: 0x0, symName: __ZN6spdlog7details11make_uniqueINS0_11Y_formatterINS0_13scoped_padderEEEJRNS0_12padding_infoEEEENSt3__110unique_ptrIT_NS7_14default_deleteIS9_EEEEDpOT0_, symObjAddr: 0x46330, symBinAddr: 0x100049AB0, symSize: 0x7C }
  - { offsetInCU: 0x46A9, offset: 0x46A9, size: 0x8, addend: 0x0, symName: __ZN6spdlog7details11make_uniqueINS0_11D_formatterINS0_13scoped_padderEEEJRNS0_12padding_infoEEEENSt3__110unique_ptrIT_NS7_14default_deleteIS9_EEEEDpOT0_, symObjAddr: 0x4640C, symBinAddr: 0x100049B8C, symSize: 0x7C }
  - { offsetInCU: 0x46EB, offset: 0x46EB, size: 0x8, addend: 0x0, symName: __ZN6spdlog7details11make_uniqueINS0_11m_formatterINS0_13scoped_padderEEEJRNS0_12padding_infoEEEENSt3__110unique_ptrIT_NS7_14default_deleteIS9_EEEEDpOT0_, symObjAddr: 0x464E8, symBinAddr: 0x100049C68, symSize: 0x7C }
  - { offsetInCU: 0x472D, offset: 0x472D, size: 0x8, addend: 0x0, symName: __ZN6spdlog7details11make_uniqueINS0_11d_formatterINS0_13scoped_padderEEEJRNS0_12padding_infoEEEENSt3__110unique_ptrIT_NS7_14default_deleteIS9_EEEEDpOT0_, symObjAddr: 0x465C4, symBinAddr: 0x100049D44, symSize: 0x7C }
  - { offsetInCU: 0x476F, offset: 0x476F, size: 0x8, addend: 0x0, symName: __ZN6spdlog7details11make_uniqueINS0_11H_formatterINS0_13scoped_padderEEEJRNS0_12padding_infoEEEENSt3__110unique_ptrIT_NS7_14default_deleteIS9_EEEEDpOT0_, symObjAddr: 0x466A0, symBinAddr: 0x100049E20, symSize: 0x7C }
  - { offsetInCU: 0x47B1, offset: 0x47B1, size: 0x8, addend: 0x0, symName: __ZN6spdlog7details11make_uniqueINS0_11I_formatterINS0_13scoped_padderEEEJRNS0_12padding_infoEEEENSt3__110unique_ptrIT_NS7_14default_deleteIS9_EEEEDpOT0_, symObjAddr: 0x4677C, symBinAddr: 0x100049EFC, symSize: 0x7C }
  - { offsetInCU: 0x47F3, offset: 0x47F3, size: 0x8, addend: 0x0, symName: __ZN6spdlog7details11make_uniqueINS0_11M_formatterINS0_13scoped_padderEEEJRNS0_12padding_infoEEEENSt3__110unique_ptrIT_NS7_14default_deleteIS9_EEEEDpOT0_, symObjAddr: 0x46858, symBinAddr: 0x100049FD8, symSize: 0x7C }
  - { offsetInCU: 0x4835, offset: 0x4835, size: 0x8, addend: 0x0, symName: __ZN6spdlog7details11make_uniqueINS0_11S_formatterINS0_13scoped_padderEEEJRNS0_12padding_infoEEEENSt3__110unique_ptrIT_NS7_14default_deleteIS9_EEEEDpOT0_, symObjAddr: 0x46934, symBinAddr: 0x10004A0B4, symSize: 0x7C }
  - { offsetInCU: 0x4877, offset: 0x4877, size: 0x8, addend: 0x0, symName: __ZN6spdlog7details11make_uniqueINS0_11e_formatterINS0_13scoped_padderEEEJRNS0_12padding_infoEEEENSt3__110unique_ptrIT_NS7_14default_deleteIS9_EEEEDpOT0_, symObjAddr: 0x46A10, symBinAddr: 0x10004A190, symSize: 0x7C }
  - { offsetInCU: 0x48B9, offset: 0x48B9, size: 0x8, addend: 0x0, symName: __ZN6spdlog7details11make_uniqueINS0_11f_formatterINS0_13scoped_padderEEEJRNS0_12padding_infoEEEENSt3__110unique_ptrIT_NS7_14default_deleteIS9_EEEEDpOT0_, symObjAddr: 0x46AEC, symBinAddr: 0x10004A26C, symSize: 0x7C }
  - { offsetInCU: 0x48FB, offset: 0x48FB, size: 0x8, addend: 0x0, symName: __ZN6spdlog7details11make_uniqueINS0_11F_formatterINS0_13scoped_padderEEEJRNS0_12padding_infoEEEENSt3__110unique_ptrIT_NS7_14default_deleteIS9_EEEEDpOT0_, symObjAddr: 0x46BC8, symBinAddr: 0x10004A348, symSize: 0x7C }
  - { offsetInCU: 0x493D, offset: 0x493D, size: 0x8, addend: 0x0, symName: __ZN6spdlog7details11make_uniqueINS0_11E_formatterINS0_13scoped_padderEEEJRNS0_12padding_infoEEEENSt3__110unique_ptrIT_NS7_14default_deleteIS9_EEEEDpOT0_, symObjAddr: 0x46CA4, symBinAddr: 0x10004A424, symSize: 0x7C }
  - { offsetInCU: 0x497F, offset: 0x497F, size: 0x8, addend: 0x0, symName: __ZN6spdlog7details11make_uniqueINS0_11p_formatterINS0_13scoped_padderEEEJRNS0_12padding_infoEEEENSt3__110unique_ptrIT_NS7_14default_deleteIS9_EEEEDpOT0_, symObjAddr: 0x46D80, symBinAddr: 0x10004A500, symSize: 0x7C }
  - { offsetInCU: 0x49C1, offset: 0x49C1, size: 0x8, addend: 0x0, symName: __ZN6spdlog7details11make_uniqueINS0_11r_formatterINS0_13scoped_padderEEEJRNS0_12padding_infoEEEENSt3__110unique_ptrIT_NS7_14default_deleteIS9_EEEEDpOT0_, symObjAddr: 0x46E5C, symBinAddr: 0x10004A5DC, symSize: 0x7C }
  - { offsetInCU: 0x4A03, offset: 0x4A03, size: 0x8, addend: 0x0, symName: __ZN6spdlog7details11make_uniqueINS0_11R_formatterINS0_13scoped_padderEEEJRNS0_12padding_infoEEEENSt3__110unique_ptrIT_NS7_14default_deleteIS9_EEEEDpOT0_, symObjAddr: 0x46F38, symBinAddr: 0x10004A6B8, symSize: 0x7C }
  - { offsetInCU: 0x4A45, offset: 0x4A45, size: 0x8, addend: 0x0, symName: __ZN6spdlog7details11make_uniqueINS0_11T_formatterINS0_13scoped_padderEEEJRNS0_12padding_infoEEEENSt3__110unique_ptrIT_NS7_14default_deleteIS9_EEEEDpOT0_, symObjAddr: 0x47014, symBinAddr: 0x10004A794, symSize: 0x7C }
  - { offsetInCU: 0x4A87, offset: 0x4A87, size: 0x8, addend: 0x0, symName: __ZN6spdlog7details11make_uniqueINS0_11z_formatterINS0_13scoped_padderEEEJRNS0_12padding_infoEEEENSt3__110unique_ptrIT_NS7_14default_deleteIS9_EEEEDpOT0_, symObjAddr: 0x470F0, symBinAddr: 0x10004A870, symSize: 0x7C }
  - { offsetInCU: 0x4AC9, offset: 0x4AC9, size: 0x8, addend: 0x0, symName: __ZN6spdlog7details11make_uniqueINS0_13pid_formatterINS0_13scoped_padderEEEJRNS0_12padding_infoEEEENSt3__110unique_ptrIT_NS7_14default_deleteIS9_EEEEDpOT0_, symObjAddr: 0x471CC, symBinAddr: 0x10004A94C, symSize: 0x7C }
  - { offsetInCU: 0x4B0B, offset: 0x4B0B, size: 0x8, addend: 0x0, symName: __ZN6spdlog7details11make_uniqueINS0_21color_start_formatterEJRNS0_12padding_infoEEEENSt3__110unique_ptrIT_NS5_14default_deleteIS7_EEEEDpOT0_, symObjAddr: 0x472A8, symBinAddr: 0x10004AA28, symSize: 0x7C }
  - { offsetInCU: 0x4B4D, offset: 0x4B4D, size: 0x8, addend: 0x0, symName: __ZN6spdlog7details11make_uniqueINS0_20color_stop_formatterEJRNS0_12padding_infoEEEENSt3__110unique_ptrIT_NS5_14default_deleteIS7_EEEEDpOT0_, symObjAddr: 0x47384, symBinAddr: 0x10004AB04, symSize: 0x7C }
  - { offsetInCU: 0x4B8F, offset: 0x4B8F, size: 0x8, addend: 0x0, symName: __ZN6spdlog7details11make_uniqueINS0_25source_location_formatterINS0_13scoped_padderEEEJRNS0_12padding_infoEEEENSt3__110unique_ptrIT_NS7_14default_deleteIS9_EEEEDpOT0_, symObjAddr: 0x47460, symBinAddr: 0x10004ABE0, symSize: 0x7C }
  - { offsetInCU: 0x4BD1, offset: 0x4BD1, size: 0x8, addend: 0x0, symName: __ZN6spdlog7details11make_uniqueINS0_24short_filename_formatterINS0_13scoped_padderEEEJRNS0_12padding_infoEEEENSt3__110unique_ptrIT_NS7_14default_deleteIS9_EEEEDpOT0_, symObjAddr: 0x4753C, symBinAddr: 0x10004ACBC, symSize: 0x7C }
  - { offsetInCU: 0x4C13, offset: 0x4C13, size: 0x8, addend: 0x0, symName: __ZN6spdlog7details11make_uniqueINS0_25source_filename_formatterINS0_13scoped_padderEEEJRNS0_12padding_infoEEEENSt3__110unique_ptrIT_NS7_14default_deleteIS9_EEEEDpOT0_, symObjAddr: 0x47618, symBinAddr: 0x10004AD98, symSize: 0x7C }
  - { offsetInCU: 0x4C55, offset: 0x4C55, size: 0x8, addend: 0x0, symName: __ZN6spdlog7details11make_uniqueINS0_24source_linenum_formatterINS0_13scoped_padderEEEJRNS0_12padding_infoEEEENSt3__110unique_ptrIT_NS7_14default_deleteIS9_EEEEDpOT0_, symObjAddr: 0x476F4, symBinAddr: 0x10004AE74, symSize: 0x7C }
  - { offsetInCU: 0x4C97, offset: 0x4C97, size: 0x8, addend: 0x0, symName: __ZN6spdlog7details11make_uniqueINS0_25source_funcname_formatterINS0_13scoped_padderEEEJRNS0_12padding_infoEEEENSt3__110unique_ptrIT_NS7_14default_deleteIS9_EEEEDpOT0_, symObjAddr: 0x477D0, symBinAddr: 0x10004AF50, symSize: 0x7C }
  - { offsetInCU: 0x4CD9, offset: 0x4CD9, size: 0x8, addend: 0x0, symName: __ZN6spdlog7details11make_uniqueINS0_12ch_formatterEJcEEENSt3__110unique_ptrIT_NS3_14default_deleteIS5_EEEEDpOT0_, symObjAddr: 0x478AC, symBinAddr: 0x10004B02C, symSize: 0x70 }
  - { offsetInCU: 0x4D1B, offset: 0x4D1B, size: 0x8, addend: 0x0, symName: __ZN6spdlog7details11make_uniqueINS0_17elapsed_formatterINS0_13scoped_padderENSt3__16chrono8durationIxNS4_5ratioILl1ELl1000000000EEEEEEEJRNS0_12padding_infoEEEENS4_10unique_ptrIT_NS4_14default_deleteISE_EEEEDpOT0_, symObjAddr: 0x4797C, symBinAddr: 0x10004B0FC, symSize: 0x7C }
  - { offsetInCU: 0x4D5D, offset: 0x4D5D, size: 0x8, addend: 0x0, symName: __ZN6spdlog7details11make_uniqueINS0_17elapsed_formatterINS0_13scoped_padderENSt3__16chrono8durationIxNS4_5ratioILl1ELl1000000EEEEEEEJRNS0_12padding_infoEEEENS4_10unique_ptrIT_NS4_14default_deleteISE_EEEEDpOT0_, symObjAddr: 0x47A58, symBinAddr: 0x10004B1D8, symSize: 0x7C }
  - { offsetInCU: 0x4D9F, offset: 0x4D9F, size: 0x8, addend: 0x0, symName: __ZN6spdlog7details11make_uniqueINS0_17elapsed_formatterINS0_13scoped_padderENSt3__16chrono8durationIxNS4_5ratioILl1ELl1000EEEEEEEJRNS0_12padding_infoEEEENS4_10unique_ptrIT_NS4_14default_deleteISE_EEEEDpOT0_, symObjAddr: 0x47B34, symBinAddr: 0x10004B2B4, symSize: 0x7C }
  - { offsetInCU: 0x4DE1, offset: 0x4DE1, size: 0x8, addend: 0x0, symName: __ZN6spdlog7details11make_uniqueINS0_17elapsed_formatterINS0_13scoped_padderENSt3__16chrono8durationIxNS4_5ratioILl1ELl1EEEEEEEJRNS0_12padding_infoEEEENS4_10unique_ptrIT_NS4_14default_deleteISE_EEEEDpOT0_, symObjAddr: 0x47C10, symBinAddr: 0x10004B390, symSize: 0x7C }
  - { offsetInCU: 0x4E23, offset: 0x4E23, size: 0x8, addend: 0x0, symName: __ZN6spdlog7detailsL5to12hERK2tm, symObjAddr: 0x4EB8C, symBinAddr: 0x10005230C, symSize: 0x50 }
  - { offsetInCU: 0x4E4F, offset: 0x4E4F, size: 0x8, addend: 0x0, symName: __ZN6spdlog7detailsL4ampmERK2tm, symObjAddr: 0x51CC8, symBinAddr: 0x100055448, symSize: 0x4C }
  - { offsetInCU: 0x4E7B, offset: 0x4E7B, size: 0x8, addend: 0x0, symName: __ZN6spdlog7details23conditional_static_castIiiLi0EEET_T0_, symObjAddr: 0x540B0, symBinAddr: 0x100057830, symSize: 0x14 }
  - { offsetInCU: 0x4EC1, offset: 0x4EC1, size: 0x8, addend: 0x0, symName: __ZN6spdlog7details11make_uniqueINS0_14name_formatterINS0_18null_scoped_padderEEEJRNS0_12padding_infoEEEENSt3__110unique_ptrIT_NS7_14default_deleteIS9_EEEEDpOT0_, symObjAddr: 0x593A8, symBinAddr: 0x10005CB28, symSize: 0x7C }
  - { offsetInCU: 0x4F03, offset: 0x4F03, size: 0x8, addend: 0x0, symName: __ZN6spdlog7details11make_uniqueINS0_15level_formatterINS0_18null_scoped_padderEEEJRNS0_12padding_infoEEEENSt3__110unique_ptrIT_NS7_14default_deleteIS9_EEEEDpOT0_, symObjAddr: 0x59484, symBinAddr: 0x10005CC04, symSize: 0x7C }
  - { offsetInCU: 0x4F45, offset: 0x4F45, size: 0x8, addend: 0x0, symName: __ZN6spdlog7details11make_uniqueINS0_21short_level_formatterINS0_18null_scoped_padderEEEJRNS0_12padding_infoEEEENSt3__110unique_ptrIT_NS7_14default_deleteIS9_EEEEDpOT0_, symObjAddr: 0x59560, symBinAddr: 0x10005CCE0, symSize: 0x7C }
  - { offsetInCU: 0x4F87, offset: 0x4F87, size: 0x8, addend: 0x0, symName: __ZN6spdlog7details11make_uniqueINS0_11t_formatterINS0_18null_scoped_padderEEEJRNS0_12padding_infoEEEENSt3__110unique_ptrIT_NS7_14default_deleteIS9_EEEEDpOT0_, symObjAddr: 0x5963C, symBinAddr: 0x10005CDBC, symSize: 0x7C }
  - { offsetInCU: 0x4FC9, offset: 0x4FC9, size: 0x8, addend: 0x0, symName: __ZN6spdlog7details11make_uniqueINS0_11v_formatterINS0_18null_scoped_padderEEEJRNS0_12padding_infoEEEENSt3__110unique_ptrIT_NS7_14default_deleteIS9_EEEEDpOT0_, symObjAddr: 0x59718, symBinAddr: 0x10005CE98, symSize: 0x7C }
  - { offsetInCU: 0x500B, offset: 0x500B, size: 0x8, addend: 0x0, symName: __ZN6spdlog7details11make_uniqueINS0_11a_formatterINS0_18null_scoped_padderEEEJRNS0_12padding_infoEEEENSt3__110unique_ptrIT_NS7_14default_deleteIS9_EEEEDpOT0_, symObjAddr: 0x597F4, symBinAddr: 0x10005CF74, symSize: 0x7C }
  - { offsetInCU: 0x504D, offset: 0x504D, size: 0x8, addend: 0x0, symName: __ZN6spdlog7details11make_uniqueINS0_11A_formatterINS0_18null_scoped_padderEEEJRNS0_12padding_infoEEEENSt3__110unique_ptrIT_NS7_14default_deleteIS9_EEEEDpOT0_, symObjAddr: 0x598D0, symBinAddr: 0x10005D050, symSize: 0x7C }
  - { offsetInCU: 0x508F, offset: 0x508F, size: 0x8, addend: 0x0, symName: __ZN6spdlog7details11make_uniqueINS0_11b_formatterINS0_18null_scoped_padderEEEJRNS0_12padding_infoEEEENSt3__110unique_ptrIT_NS7_14default_deleteIS9_EEEEDpOT0_, symObjAddr: 0x599AC, symBinAddr: 0x10005D12C, symSize: 0x7C }
  - { offsetInCU: 0x50D1, offset: 0x50D1, size: 0x8, addend: 0x0, symName: __ZN6spdlog7details11make_uniqueINS0_11B_formatterINS0_18null_scoped_padderEEEJRNS0_12padding_infoEEEENSt3__110unique_ptrIT_NS7_14default_deleteIS9_EEEEDpOT0_, symObjAddr: 0x59A88, symBinAddr: 0x10005D208, symSize: 0x7C }
  - { offsetInCU: 0x5113, offset: 0x5113, size: 0x8, addend: 0x0, symName: __ZN6spdlog7details11make_uniqueINS0_11c_formatterINS0_18null_scoped_padderEEEJRNS0_12padding_infoEEEENSt3__110unique_ptrIT_NS7_14default_deleteIS9_EEEEDpOT0_, symObjAddr: 0x59B64, symBinAddr: 0x10005D2E4, symSize: 0x7C }
  - { offsetInCU: 0x5155, offset: 0x5155, size: 0x8, addend: 0x0, symName: __ZN6spdlog7details11make_uniqueINS0_11C_formatterINS0_18null_scoped_padderEEEJRNS0_12padding_infoEEEENSt3__110unique_ptrIT_NS7_14default_deleteIS9_EEEEDpOT0_, symObjAddr: 0x59C40, symBinAddr: 0x10005D3C0, symSize: 0x7C }
  - { offsetInCU: 0x5197, offset: 0x5197, size: 0x8, addend: 0x0, symName: __ZN6spdlog7details11make_uniqueINS0_11Y_formatterINS0_18null_scoped_padderEEEJRNS0_12padding_infoEEEENSt3__110unique_ptrIT_NS7_14default_deleteIS9_EEEEDpOT0_, symObjAddr: 0x59D1C, symBinAddr: 0x10005D49C, symSize: 0x7C }
  - { offsetInCU: 0x51D9, offset: 0x51D9, size: 0x8, addend: 0x0, symName: __ZN6spdlog7details11make_uniqueINS0_11D_formatterINS0_18null_scoped_padderEEEJRNS0_12padding_infoEEEENSt3__110unique_ptrIT_NS7_14default_deleteIS9_EEEEDpOT0_, symObjAddr: 0x59DF8, symBinAddr: 0x10005D578, symSize: 0x7C }
  - { offsetInCU: 0x521B, offset: 0x521B, size: 0x8, addend: 0x0, symName: __ZN6spdlog7details11make_uniqueINS0_11m_formatterINS0_18null_scoped_padderEEEJRNS0_12padding_infoEEEENSt3__110unique_ptrIT_NS7_14default_deleteIS9_EEEEDpOT0_, symObjAddr: 0x59ED4, symBinAddr: 0x10005D654, symSize: 0x7C }
  - { offsetInCU: 0x525D, offset: 0x525D, size: 0x8, addend: 0x0, symName: __ZN6spdlog7details11make_uniqueINS0_11d_formatterINS0_18null_scoped_padderEEEJRNS0_12padding_infoEEEENSt3__110unique_ptrIT_NS7_14default_deleteIS9_EEEEDpOT0_, symObjAddr: 0x59FB0, symBinAddr: 0x10005D730, symSize: 0x7C }
  - { offsetInCU: 0x529F, offset: 0x529F, size: 0x8, addend: 0x0, symName: __ZN6spdlog7details11make_uniqueINS0_11H_formatterINS0_18null_scoped_padderEEEJRNS0_12padding_infoEEEENSt3__110unique_ptrIT_NS7_14default_deleteIS9_EEEEDpOT0_, symObjAddr: 0x5A08C, symBinAddr: 0x10005D80C, symSize: 0x7C }
  - { offsetInCU: 0x52E1, offset: 0x52E1, size: 0x8, addend: 0x0, symName: __ZN6spdlog7details11make_uniqueINS0_11I_formatterINS0_18null_scoped_padderEEEJRNS0_12padding_infoEEEENSt3__110unique_ptrIT_NS7_14default_deleteIS9_EEEEDpOT0_, symObjAddr: 0x5A168, symBinAddr: 0x10005D8E8, symSize: 0x7C }
  - { offsetInCU: 0x5323, offset: 0x5323, size: 0x8, addend: 0x0, symName: __ZN6spdlog7details11make_uniqueINS0_11M_formatterINS0_18null_scoped_padderEEEJRNS0_12padding_infoEEEENSt3__110unique_ptrIT_NS7_14default_deleteIS9_EEEEDpOT0_, symObjAddr: 0x5A244, symBinAddr: 0x10005D9C4, symSize: 0x7C }
  - { offsetInCU: 0x5365, offset: 0x5365, size: 0x8, addend: 0x0, symName: __ZN6spdlog7details11make_uniqueINS0_11S_formatterINS0_18null_scoped_padderEEEJRNS0_12padding_infoEEEENSt3__110unique_ptrIT_NS7_14default_deleteIS9_EEEEDpOT0_, symObjAddr: 0x5A320, symBinAddr: 0x10005DAA0, symSize: 0x7C }
  - { offsetInCU: 0x53A7, offset: 0x53A7, size: 0x8, addend: 0x0, symName: __ZN6spdlog7details11make_uniqueINS0_11e_formatterINS0_18null_scoped_padderEEEJRNS0_12padding_infoEEEENSt3__110unique_ptrIT_NS7_14default_deleteIS9_EEEEDpOT0_, symObjAddr: 0x5A3FC, symBinAddr: 0x10005DB7C, symSize: 0x7C }
  - { offsetInCU: 0x53E9, offset: 0x53E9, size: 0x8, addend: 0x0, symName: __ZN6spdlog7details11make_uniqueINS0_11f_formatterINS0_18null_scoped_padderEEEJRNS0_12padding_infoEEEENSt3__110unique_ptrIT_NS7_14default_deleteIS9_EEEEDpOT0_, symObjAddr: 0x5A4D8, symBinAddr: 0x10005DC58, symSize: 0x7C }
  - { offsetInCU: 0x542B, offset: 0x542B, size: 0x8, addend: 0x0, symName: __ZN6spdlog7details11make_uniqueINS0_11F_formatterINS0_18null_scoped_padderEEEJRNS0_12padding_infoEEEENSt3__110unique_ptrIT_NS7_14default_deleteIS9_EEEEDpOT0_, symObjAddr: 0x5A5B4, symBinAddr: 0x10005DD34, symSize: 0x7C }
  - { offsetInCU: 0x546D, offset: 0x546D, size: 0x8, addend: 0x0, symName: __ZN6spdlog7details11make_uniqueINS0_11E_formatterINS0_18null_scoped_padderEEEJRNS0_12padding_infoEEEENSt3__110unique_ptrIT_NS7_14default_deleteIS9_EEEEDpOT0_, symObjAddr: 0x5A690, symBinAddr: 0x10005DE10, symSize: 0x7C }
  - { offsetInCU: 0x54AF, offset: 0x54AF, size: 0x8, addend: 0x0, symName: __ZN6spdlog7details11make_uniqueINS0_11p_formatterINS0_18null_scoped_padderEEEJRNS0_12padding_infoEEEENSt3__110unique_ptrIT_NS7_14default_deleteIS9_EEEEDpOT0_, symObjAddr: 0x5A76C, symBinAddr: 0x10005DEEC, symSize: 0x7C }
  - { offsetInCU: 0x54F1, offset: 0x54F1, size: 0x8, addend: 0x0, symName: __ZN6spdlog7details11make_uniqueINS0_11r_formatterINS0_18null_scoped_padderEEEJRNS0_12padding_infoEEEENSt3__110unique_ptrIT_NS7_14default_deleteIS9_EEEEDpOT0_, symObjAddr: 0x5A848, symBinAddr: 0x10005DFC8, symSize: 0x7C }
  - { offsetInCU: 0x5533, offset: 0x5533, size: 0x8, addend: 0x0, symName: __ZN6spdlog7details11make_uniqueINS0_11R_formatterINS0_18null_scoped_padderEEEJRNS0_12padding_infoEEEENSt3__110unique_ptrIT_NS7_14default_deleteIS9_EEEEDpOT0_, symObjAddr: 0x5A924, symBinAddr: 0x10005E0A4, symSize: 0x7C }
  - { offsetInCU: 0x5575, offset: 0x5575, size: 0x8, addend: 0x0, symName: __ZN6spdlog7details11make_uniqueINS0_11T_formatterINS0_18null_scoped_padderEEEJRNS0_12padding_infoEEEENSt3__110unique_ptrIT_NS7_14default_deleteIS9_EEEEDpOT0_, symObjAddr: 0x5AA00, symBinAddr: 0x10005E180, symSize: 0x7C }
  - { offsetInCU: 0x55B7, offset: 0x55B7, size: 0x8, addend: 0x0, symName: __ZN6spdlog7details11make_uniqueINS0_11z_formatterINS0_18null_scoped_padderEEEJRNS0_12padding_infoEEEENSt3__110unique_ptrIT_NS7_14default_deleteIS9_EEEEDpOT0_, symObjAddr: 0x5AADC, symBinAddr: 0x10005E25C, symSize: 0x7C }
  - { offsetInCU: 0x55F9, offset: 0x55F9, size: 0x8, addend: 0x0, symName: __ZN6spdlog7details11make_uniqueINS0_13pid_formatterINS0_18null_scoped_padderEEEJRNS0_12padding_infoEEEENSt3__110unique_ptrIT_NS7_14default_deleteIS9_EEEEDpOT0_, symObjAddr: 0x5ABB8, symBinAddr: 0x10005E338, symSize: 0x7C }
  - { offsetInCU: 0x563B, offset: 0x563B, size: 0x8, addend: 0x0, symName: __ZN6spdlog7details11make_uniqueINS0_25source_location_formatterINS0_18null_scoped_padderEEEJRNS0_12padding_infoEEEENSt3__110unique_ptrIT_NS7_14default_deleteIS9_EEEEDpOT0_, symObjAddr: 0x5AC94, symBinAddr: 0x10005E414, symSize: 0x7C }
  - { offsetInCU: 0x567D, offset: 0x567D, size: 0x8, addend: 0x0, symName: __ZN6spdlog7details11make_uniqueINS0_24short_filename_formatterINS0_18null_scoped_padderEEEJRNS0_12padding_infoEEEENSt3__110unique_ptrIT_NS7_14default_deleteIS9_EEEEDpOT0_, symObjAddr: 0x5AD70, symBinAddr: 0x10005E4F0, symSize: 0x7C }
  - { offsetInCU: 0x56BF, offset: 0x56BF, size: 0x8, addend: 0x0, symName: __ZN6spdlog7details11make_uniqueINS0_25source_filename_formatterINS0_18null_scoped_padderEEEJRNS0_12padding_infoEEEENSt3__110unique_ptrIT_NS7_14default_deleteIS9_EEEEDpOT0_, symObjAddr: 0x5AE4C, symBinAddr: 0x10005E5CC, symSize: 0x7C }
  - { offsetInCU: 0x5701, offset: 0x5701, size: 0x8, addend: 0x0, symName: __ZN6spdlog7details11make_uniqueINS0_24source_linenum_formatterINS0_18null_scoped_padderEEEJRNS0_12padding_infoEEEENSt3__110unique_ptrIT_NS7_14default_deleteIS9_EEEEDpOT0_, symObjAddr: 0x5AF28, symBinAddr: 0x10005E6A8, symSize: 0x7C }
  - { offsetInCU: 0x5743, offset: 0x5743, size: 0x8, addend: 0x0, symName: __ZN6spdlog7details11make_uniqueINS0_25source_funcname_formatterINS0_18null_scoped_padderEEEJRNS0_12padding_infoEEEENSt3__110unique_ptrIT_NS7_14default_deleteIS9_EEEEDpOT0_, symObjAddr: 0x5B004, symBinAddr: 0x10005E784, symSize: 0x7C }
  - { offsetInCU: 0x5785, offset: 0x5785, size: 0x8, addend: 0x0, symName: __ZN6spdlog7details11make_uniqueINS0_17elapsed_formatterINS0_18null_scoped_padderENSt3__16chrono8durationIxNS4_5ratioILl1ELl1000000000EEEEEEEJRNS0_12padding_infoEEEENS4_10unique_ptrIT_NS4_14default_deleteISE_EEEEDpOT0_, symObjAddr: 0x5B0E0, symBinAddr: 0x10005E860, symSize: 0x7C }
  - { offsetInCU: 0x57C7, offset: 0x57C7, size: 0x8, addend: 0x0, symName: __ZN6spdlog7details11make_uniqueINS0_17elapsed_formatterINS0_18null_scoped_padderENSt3__16chrono8durationIxNS4_5ratioILl1ELl1000000EEEEEEEJRNS0_12padding_infoEEEENS4_10unique_ptrIT_NS4_14default_deleteISE_EEEEDpOT0_, symObjAddr: 0x5B1BC, symBinAddr: 0x10005E93C, symSize: 0x7C }
  - { offsetInCU: 0x5809, offset: 0x5809, size: 0x8, addend: 0x0, symName: __ZN6spdlog7details11make_uniqueINS0_17elapsed_formatterINS0_18null_scoped_padderENSt3__16chrono8durationIxNS4_5ratioILl1ELl1000EEEEEEEJRNS0_12padding_infoEEEENS4_10unique_ptrIT_NS4_14default_deleteISE_EEEEDpOT0_, symObjAddr: 0x5B298, symBinAddr: 0x10005EA18, symSize: 0x7C }
  - { offsetInCU: 0x584B, offset: 0x584B, size: 0x8, addend: 0x0, symName: __ZN6spdlog7details11make_uniqueINS0_17elapsed_formatterINS0_18null_scoped_padderENSt3__16chrono8durationIxNS4_5ratioILl1ELl1EEEEEEEJRNS0_12padding_infoEEEENS4_10unique_ptrIT_NS4_14default_deleteISE_EEEEDpOT0_, symObjAddr: 0x5B374, symBinAddr: 0x10005EAF4, symSize: 0x7C }
  - { offsetInCU: 0x588D, offset: 0x588D, size: 0x8, addend: 0x0, symName: __ZN6spdlog7details14to_string_viewIcJRiRmmEEEN3fmt2v917basic_string_viewIT_EENS5_19basic_format_stringIS7_JDpT0_EEE, symObjAddr: 0x6C1A4, symBinAddr: 0x10006F924, symSize: 0x40 }
  - { offsetInCU: 0x58F7, offset: 0x58F7, size: 0x8, addend: 0x0, symName: __ZN6spdlog7details11make_uniqueINS_17pattern_formatterEJRKNSt3__112basic_stringIcNS3_11char_traitsIcEENS3_9allocatorIcEEEEEEENS3_10unique_ptrIT_NS3_14default_deleteISD_EEEEDpOT0_, symObjAddr: 0x7BC34, symBinAddr: 0x10007F3B4, symSize: 0x130 }
  - { offsetInCU: 0x5939, offset: 0x5939, size: 0x8, addend: 0x0, symName: __ZN6spdlog7details14to_string_viewIcJRiEEEN3fmt2v917basic_string_viewIT_EENS4_19basic_format_stringIS6_JDpT0_EEE, symObjAddr: 0x7F550, symBinAddr: 0x100082CD0, symSize: 0x40 }
  - { offsetInCU: 0x5999, offset: 0x5999, size: 0x8, addend: 0x0, symName: __ZN6spdlog7details14to_string_viewIcJiRA11_KciddEEEN3fmt2v917basic_string_viewIT_EENS6_19basic_format_stringIS8_JDpT0_EEE, symObjAddr: 0x7FF84, symBinAddr: 0x100083704, symSize: 0x40 }
  - { offsetInCU: 0x5A0D, offset: 0x5A0D, size: 0x8, addend: 0x0, symName: __ZN6spdlog7details14to_string_viewIcJRdiEEEN3fmt2v917basic_string_viewIT_EENS4_19basic_format_stringIS6_JDpT0_EEE, symObjAddr: 0x81B80, symBinAddr: 0x100085300, symSize: 0x40 }
  - { offsetInCU: 0x6B24, offset: 0x6B24, size: 0x8, addend: 0x0, symName: __ZN6spdlog5levelL18level_string_viewsE, symObjAddr: 0x85FB0, symBinAddr: 0x10009C180, symSize: 0x0 }
  - { offsetInCU: 0x6B3D, offset: 0x6B3D, size: 0x8, addend: 0x0, symName: __ZN6spdlog5levelL17short_level_namesE, symObjAddr: 0x860F0, symBinAddr: 0x10009C2C0, symSize: 0x0 }
  - { offsetInCU: 0x6B4A, offset: 0x6B4A, size: 0x8, addend: 0x0, symName: __ZN6spdlog5level14to_string_viewENS0_10level_enumE, symObjAddr: 0x67EC, symBinAddr: 0x100009F6C, symSize: 0x20 }
  - { offsetInCU: 0x6B76, offset: 0x6B76, size: 0x8, addend: 0x0, symName: __ZN6spdlog5level14to_short_c_strENS0_10level_enumE, symObjAddr: 0x491E4, symBinAddr: 0x10004C964, symSize: 0x20 }
  - { offsetInCU: 0x71B7, offset: 0x71B7, size: 0x8, addend: 0x0, symName: __ZN6spdlog11set_patternENSt3__112basic_stringIcNS0_11char_traitsIcEENS0_9allocatorIcEEEENS_17pattern_time_typeE, symObjAddr: 0x734, symBinAddr: 0x100003EB4, symSize: 0x154 }
  - { offsetInCU: 0x71EE, offset: 0x71EE, size: 0x8, addend: 0x0, symName: __ZN6spdlog5errorIA32_cEEvRKT_, symObjAddr: 0x8BC, symBinAddr: 0x10000403C, symSize: 0x28 }
  - { offsetInCU: 0x7221, offset: 0x7221, size: 0x8, addend: 0x0, symName: __ZN6spdlog4infoIA50_cEEvRKT_, symObjAddr: 0x8E4, symBinAddr: 0x100004064, symSize: 0x28 }
  - { offsetInCU: 0x7252, offset: 0x7252, size: 0x8, addend: 0x0, symName: __ZN6spdlog4infoIJRiEEEvN3fmt2v919basic_format_stringIcJDpNS3_13type_identityIT_E4typeEEEEDpOS6_, symObjAddr: 0x90C, symBinAddr: 0x10000408C, symSize: 0x40 }
  - { offsetInCU: 0x7293, offset: 0x7293, size: 0x8, addend: 0x0, symName: __ZN6spdlog4infoIJRiRmmEEEvN3fmt2v919basic_format_stringIcJDpNS4_13type_identityIT_E4typeEEEEDpOS7_, symObjAddr: 0x94C, symBinAddr: 0x1000040CC, symSize: 0x50 }
  - { offsetInCU: 0x72FA, offset: 0x72FA, size: 0x8, addend: 0x0, symName: __ZN6spdlog4infoIA1_cEEvRKT_, symObjAddr: 0x99C, symBinAddr: 0x10000411C, symSize: 0x28 }
  - { offsetInCU: 0x732B, offset: 0x732B, size: 0x8, addend: 0x0, symName: __ZN6spdlog4infoIA34_cEEvRKT_, symObjAddr: 0x9C4, symBinAddr: 0x100004144, symSize: 0x28 }
  - { offsetInCU: 0x735C, offset: 0x735C, size: 0x8, addend: 0x0, symName: __ZN6spdlog4infoIA29_cEEvRKT_, symObjAddr: 0x9EC, symBinAddr: 0x10000416C, symSize: 0x28 }
  - { offsetInCU: 0x73A3, offset: 0x73A3, size: 0x8, addend: 0x0, symName: __ZN6spdlog4infoIJRdiEEEvN3fmt2v919basic_format_stringIcJDpNS3_13type_identityIT_E4typeEEEEDpOS6_, symObjAddr: 0x15D0, symBinAddr: 0x100004D50, symSize: 0x48 }
  - { offsetInCU: 0x73F7, offset: 0x73F7, size: 0x8, addend: 0x0, symName: __ZN6spdlog13set_formatterENSt3__110unique_ptrINS_9formatterENS0_14default_deleteIS2_EEEE, symObjAddr: 0x1644, symBinAddr: 0x100004DC4, symSize: 0x70 }
  - { offsetInCU: 0x7420, offset: 0x7420, size: 0x8, addend: 0x0, symName: __ZN6spdlog18default_logger_rawEv, symObjAddr: 0x6AF44, symBinAddr: 0x10006E6C4, symSize: 0x18 }
  - { offsetInCU: 0x7448, offset: 0x7448, size: 0x8, addend: 0x0, symName: __ZN6spdlog15throw_spdlog_exENSt3__112basic_stringIcNS0_11char_traitsIcEENS0_9allocatorIcEEEE, symObjAddr: 0x70964, symBinAddr: 0x1000740E4, symSize: 0xB8 }
  - { offsetInCU: 0x7471, offset: 0x7471, size: 0x8, addend: 0x0, symName: __ZN6spdlog15throw_spdlog_exERKNSt3__112basic_stringIcNS0_11char_traitsIcEENS0_9allocatorIcEEEEi, symObjAddr: 0x77AD0, symBinAddr: 0x10007B250, symSize: 0x6C }
  - { offsetInCU: 0xC6A2, offset: 0xC6A2, size: 0x8, addend: 0x0, symName: __ZNSt3__16chronomiB7v160006IxNS_5ratioILl1ELl1000EEExS3_EENS_11common_typeIJNS0_8durationIT_T0_EENS5_IT1_T2_EEEE4typeERKS8_RKSB_, symObjAddr: 0x2ED38, symBinAddr: 0x1000324B8, symSize: 0x70 }
  - { offsetInCU: 0xC82D, offset: 0xC82D, size: 0x8, addend: 0x0, symName: __ZNSt3__16chronomiB7v160006IxNS_5ratioILl1ELl1000000EEExS3_EENS_11common_typeIJNS0_8durationIT_T0_EENS5_IT1_T2_EEEE4typeERKS8_RKSB_, symObjAddr: 0x3B6B0, symBinAddr: 0x10003EE30, symSize: 0x70 }
  - { offsetInCU: 0xC89A, offset: 0xC89A, size: 0x8, addend: 0x0, symName: __ZNSt3__16chronomiB7v160006IxNS_5ratioILl1ELl1000000000EEExS3_EENS_11common_typeIJNS0_8durationIT_T0_EENS5_IT1_T2_EEEE4typeERKS8_RKSB_, symObjAddr: 0x50C88, symBinAddr: 0x100054408, symSize: 0x70 }
  - { offsetInCU: 0xD1E7, offset: 0xD1E7, size: 0x8, addend: 0x0, symName: __ZNSt3__16chronomiB7v160006INS0_12steady_clockENS0_8durationIxNS_5ratioILl1ELl1000000000EEEEES6_EENS_11common_typeIJT0_T1_EE4typeERKNS0_10time_pointIT_S8_EERKNSC_ISD_S9_EE, symObjAddr: 0x1530, symBinAddr: 0x100004CB0, symSize: 0x58 }
  - { offsetInCU: 0xD23C, offset: 0xD23C, size: 0x8, addend: 0x0, symName: __ZNSt3__16chrono13duration_castB7v160006INS0_8durationIdNS_5ratioILl1ELl1EEEEExNS3_ILl1ELl1000000000EEEEENS_9enable_ifIXsr13__is_durationIT_EE5valueES8_E4typeERKNS2_IT0_T1_EE, symObjAddr: 0x1588, symBinAddr: 0x100004D08, symSize: 0x30 }
  - { offsetInCU: 0xD283, offset: 0xD283, size: 0x8, addend: 0x0, symName: __ZNSt3__16chrono13duration_castB7v160006INS0_8durationIxNS_5ratioILl1ELl1EEEEExNS3_ILl1ELl1000000EEEEENS_9enable_ifIXsr13__is_durationIT_EE5valueES8_E4typeERKNS2_IT0_T1_EE, symObjAddr: 0x6154, symBinAddr: 0x1000098D4, symSize: 0x30 }
  - { offsetInCU: 0xD2CA, offset: 0xD2CA, size: 0x8, addend: 0x0, symName: __ZNSt3__16chrononeB7v160006IxNS_5ratioILl1ELl1EEExS3_EEbRKNS0_8durationIT_T0_EERKNS4_IT1_T2_EE, symObjAddr: 0x6184, symBinAddr: 0x100009904, symSize: 0x34 }
  - { offsetInCU: 0xD32B, offset: 0xD32B, size: 0x8, addend: 0x0, symName: __ZNSt3__16chronoeqB7v160006IxNS_5ratioILl1ELl1EEExS3_EEbRKNS0_8durationIT_T0_EERKNS4_IT1_T2_EE, symObjAddr: 0x695C, symBinAddr: 0x10000A0DC, symSize: 0x34 }
  - { offsetInCU: 0xD3C9, offset: 0xD3C9, size: 0x8, addend: 0x0, symName: __ZNSt3__16chrono13duration_castB7v160006INS0_8durationIxNS_5ratioILl1ELl1000EEEEExNS3_ILl1ELl1000000EEEEENS_9enable_ifIXsr13__is_durationIT_EE5valueES8_E4typeERKNS2_IT0_T1_EE, symObjAddr: 0x2EDA8, symBinAddr: 0x100032528, symSize: 0x30 }
  - { offsetInCU: 0xD410, offset: 0xD410, size: 0x8, addend: 0x0, symName: __ZNSt3__16chrono13duration_castB7v160006INS0_8durationIxNS_5ratioILl1ELl1000EEEEExNS3_ILl1ELl1EEEEENS_9enable_ifIXsr13__is_durationIT_EE5valueES8_E4typeERKNS2_IT0_T1_EE, symObjAddr: 0x2EDD8, symBinAddr: 0x100032558, symSize: 0x30 }
  - { offsetInCU: 0xD457, offset: 0xD457, size: 0x8, addend: 0x0, symName: __ZNSt3__16chronoltB7v160006IxNS_5ratioILl1ELl1000000EEExNS2_ILl1ELl1EEEEEbRKNS0_8durationIT_T0_EERKNS5_IT1_T2_EE, symObjAddr: 0x3B1C8, symBinAddr: 0x10003E948, symSize: 0x34 }
  - { offsetInCU: 0xD4B8, offset: 0xD4B8, size: 0x8, addend: 0x0, symName: __ZNSt3__16chronomiB7v160006INS0_12system_clockENS0_8durationIxNS_5ratioILl1ELl1000000EEEEES6_EENS_11common_typeIJT0_T1_EE4typeERKNS0_10time_pointIT_S8_EERKNSC_ISD_S9_EE, symObjAddr: 0x3B1FC, symBinAddr: 0x10003E97C, symSize: 0x58 }
  - { offsetInCU: 0xD54D, offset: 0xD54D, size: 0x8, addend: 0x0, symName: __ZNSt3__16chrono13duration_castB7v160006INS0_8durationIxNS_5ratioILl1ELl1000000EEEEExNS3_ILl1ELl1EEEEENS_9enable_ifIXsr13__is_durationIT_EE5valueES8_E4typeERKNS2_IT0_T1_EE, symObjAddr: 0x3B634, symBinAddr: 0x10003EDB4, symSize: 0x30 }
  - { offsetInCU: 0xD594, offset: 0xD594, size: 0x8, addend: 0x0, symName: __ZNSt3__16chrono13duration_castB7v160006INS0_8durationIxNS_5ratioILl1ELl1000000EEEEExS4_EENS_9enable_ifIXsr13__is_durationIT_EE5valueES7_E4typeERKNS2_IT0_T1_EE, symObjAddr: 0x504A4, symBinAddr: 0x100053C24, symSize: 0x30 }
  - { offsetInCU: 0xD626, offset: 0xD626, size: 0x8, addend: 0x0, symName: __ZNSt3__16chrono13duration_castB7v160006INS0_8durationIxNS_5ratioILl1ELl1000000000EEEEExNS3_ILl1ELl1000000EEEEENS_9enable_ifIXsr13__is_durationIT_EE5valueES8_E4typeERKNS2_IT0_T1_EE, symObjAddr: 0x50CF8, symBinAddr: 0x100054478, symSize: 0x30 }
  - { offsetInCU: 0xD66D, offset: 0xD66D, size: 0x8, addend: 0x0, symName: __ZNSt3__16chrono13duration_castB7v160006INS0_8durationIxNS_5ratioILl1ELl1000000000EEEEExNS3_ILl1ELl1EEEEENS_9enable_ifIXsr13__is_durationIT_EE5valueES8_E4typeERKNS2_IT0_T1_EE, symObjAddr: 0x50D28, symBinAddr: 0x1000544A8, symSize: 0x30 }
  - { offsetInCU: 0xD6B4, offset: 0xD6B4, size: 0x8, addend: 0x0, symName: __ZNSt3__16chronogeB7v160006IxNS_5ratioILl1ELl1000000EEExNS2_ILl1ELl1EEEEEbRKNS0_8durationIT_T0_EERKNS5_IT1_T2_EE, symObjAddr: 0x53854, symBinAddr: 0x100056FD4, symSize: 0x34 }
  - { offsetInCU: 0xD715, offset: 0xD715, size: 0x8, addend: 0x0, symName: __ZNSt3__16chronoltB7v160006IxNS_5ratioILl1ELl1000000EEExS3_EEbRKNS0_8durationIT_T0_EERKNS4_IT1_T2_EE, symObjAddr: 0x57BA4, symBinAddr: 0x10005B324, symSize: 0x34 }
  - { offsetInCU: 0xD7B3, offset: 0xD7B3, size: 0x8, addend: 0x0, symName: __ZNSt3__16chronogtB7v160006IxNS_5ratioILl1ELl1000EEExS3_EEbRKNS0_8durationIT_T0_EERKNS4_IT1_T2_EE, symObjAddr: 0x782CC, symBinAddr: 0x10007BA4C, symSize: 0x30 }
  - { offsetInCU: 0xD814, offset: 0xD814, size: 0x8, addend: 0x0, symName: __ZNSt3__16chronoltB7v160006IxNS_5ratioILl1ELl1000EEEeNS2_ILl1ELl1EEEEEbRKNS0_8durationIT_T0_EERKNS5_IT1_T2_EE, symObjAddr: 0x78338, symBinAddr: 0x10007BAB8, symSize: 0x34 }
  - { offsetInCU: 0xD875, offset: 0xD875, size: 0x8, addend: 0x0, symName: __ZNSt3__16chrono13duration_castB7v160006INS0_8durationIxNS_5ratioILl1ELl1000000000EEEEExNS3_ILl1ELl1000EEEEENS_9enable_ifIXsr13__is_durationIT_EE5valueES8_E4typeERKNS2_IT0_T1_EE, symObjAddr: 0x7836C, symBinAddr: 0x10007BAEC, symSize: 0x30 }
  - { offsetInCU: 0xD8BC, offset: 0xD8BC, size: 0x8, addend: 0x0, symName: __ZNSt3__16chronoltB7v160006IxNS_5ratioILl1ELl1000000000EEExNS2_ILl1ELl1000EEEEEbRKNS0_8durationIT_T0_EERKNS5_IT1_T2_EE, symObjAddr: 0x7839C, symBinAddr: 0x10007BB1C, symSize: 0x34 }
  - { offsetInCU: 0xD91D, offset: 0xD91D, size: 0x8, addend: 0x0, symName: __ZNSt3__16chronoltB7v160006IxNS_5ratioILl1ELl1000EEExS3_EEbRKNS0_8durationIT_T0_EERKNS4_IT1_T2_EE, symObjAddr: 0x7842C, symBinAddr: 0x10007BBAC, symSize: 0x34 }
  - { offsetInCU: 0xD9BB, offset: 0xD9BB, size: 0x8, addend: 0x0, symName: __ZNSt3__16chrono13duration_castB7v160006INS0_8durationIeNS_5ratioILl1ELl1000EEEEExS4_EENS_9enable_ifIXsr13__is_durationIT_EE5valueES7_E4typeERKNS2_IT0_T1_EE, symObjAddr: 0x785FC, symBinAddr: 0x10007BD7C, symSize: 0x30 }
  - { offsetInCU: 0xDA4D, offset: 0xDA4D, size: 0x8, addend: 0x0, symName: __ZNSt3__16chrono13duration_castB7v160006INS0_8durationIeNS_5ratioILl1ELl1000EEEEEeNS3_ILl1ELl1EEEEENS_9enable_ifIXsr13__is_durationIT_EE5valueES8_E4typeERKNS2_IT0_T1_EE, symObjAddr: 0x7871C, symBinAddr: 0x10007BE9C, symSize: 0x30 }
  - { offsetInCU: 0xFDBC, offset: 0xFDBC, size: 0x8, addend: 0x0, symName: __ZNSt3__110__function10__not_nullB7v160006IZN6spdlog7details11thread_poolC1EmmEUlvE_EEbRKT_, symObjAddr: 0x6D790, symBinAddr: 0x100070F10, symSize: 0x18 }
  - { offsetInCU: 0xFDEE, offset: 0xFDEE, size: 0x8, addend: 0x0, symName: __ZNSt3__110__function10__not_nullB7v160006IZN6spdlog7details11thread_poolC1EmmEUlvE0_EEbRKT_, symObjAddr: 0x6F0F0, symBinAddr: 0x100072870, symSize: 0x18 }
  - { offsetInCU: 0x1AE0B, offset: 0x1AE0B, size: 0x8, addend: 0x0, symName: __ZNSt3__1L19piecewise_constructE, symObjAddr: 0x89292, symBinAddr: 0x10008D702, symSize: 0x0 }
  - { offsetInCU: 0x26EDF, offset: 0x26EDF, size: 0x8, addend: 0x0, symName: __ZNSt3__117__cxx_atomic_loadB7v160006IiEET_PKNS_22__cxx_atomic_base_implIS1_EENS_12memory_orderE, symObjAddr: 0x38FC8, symBinAddr: 0x10003C748, symSize: 0x80 }
  - { offsetInCU: 0x26F3C, offset: 0x26F3C, size: 0x8, addend: 0x0, symName: __ZNSt3__117__cxx_atomic_loadB7v160006IbEET_PKNS_22__cxx_atomic_base_implIS1_EENS_12memory_orderE, symObjAddr: 0x39364, symBinAddr: 0x10003CAE4, symSize: 0x84 }
  - { offsetInCU: 0x26F99, offset: 0x26F99, size: 0x8, addend: 0x0, symName: __ZNSt3__17advanceB7v160006IPN6spdlog7details14log_msg_bufferEmmvEEvRT_T0_, symObjAddr: 0x39708, symBinAddr: 0x10003CE88, symSize: 0x50 }
  - { offsetInCU: 0x2769E, offset: 0x2769E, size: 0x8, addend: 0x0, symName: __ZNSt3__17advanceB7v160006INS_11__wrap_iterIPNS_10shared_ptrIN6spdlog5sinks4sinkEEEEEllvEEvRT_T0_, symObjAddr: 0x4127C, symBinAddr: 0x1000449FC, symSize: 0x50 }
  - { offsetInCU: 0x3F8D7, offset: 0x3F8D7, size: 0x8, addend: 0x0, symName: __ZNSt3__124__put_character_sequenceB7v160006IcNS_11char_traitsIcEEEERNS_13basic_ostreamIT_T0_EES7_PKS4_m, symObjAddr: 0x7E6D8, symBinAddr: 0x100081E58, symSize: 0x1EC }
  - { offsetInCU: 0x431BF, offset: 0x431BF, size: 0x8, addend: 0x0, symName: __ZNSt3__13minB7v160006IiEERKT_S3_S3_, symObjAddr: 0x708, symBinAddr: 0x100003E88, symSize: 0x2C }
  - { offsetInCU: 0x43202, offset: 0x43202, size: 0x8, addend: 0x0, symName: __ZNSt3__111make_sharedB7v160006IN6spdlog7details11thread_poolEJRiiEvEENS_10shared_ptrIT_EEDpOT0_, symObjAddr: 0xA14, symBinAddr: 0x100004194, symSize: 0x48 }
  - { offsetInCU: 0x43259, offset: 0x43259, size: 0x8, addend: 0x0, symName: __ZNSt3__111make_sharedB7v160006IN6spdlog5sinks15basic_file_sinkINS_5mutexEEEJRPKcbEvEENS_10shared_ptrIT_EEDpOT0_, symObjAddr: 0xA5C, symBinAddr: 0x1000041DC, symSize: 0x48 }
  - { offsetInCU: 0x432B0, offset: 0x432B0, size: 0x8, addend: 0x0, symName: __ZNSt3__111make_sharedB7v160006IN6spdlog12async_loggerEJRA13_KcNS_10shared_ptrINS1_5sinks15basic_file_sinkINS_5mutexEEEEENS6_INS1_7details11thread_poolEEENS1_21async_overflow_policyEEvEENS6_IT_EEDpOT0_, symObjAddr: 0xAA4, symBinAddr: 0x100004224, symSize: 0x58 }
  - { offsetInCU: 0x43519, offset: 0x43519, size: 0x8, addend: 0x0, symName: __ZNSt3__1lsB7v160006INS_11char_traitsIcEEEERNS_13basic_ostreamIcT_EES6_PKc, symObjAddr: 0xEF8, symBinAddr: 0x100004678, symSize: 0x48 }
  - { offsetInCU: 0x4355F, offset: 0x4355F, size: 0x8, addend: 0x0, symName: __ZNSt3__14endlB7v160006IcNS_11char_traitsIcEEEERNS_13basic_ostreamIT_T0_EES7_, symObjAddr: 0xF6C, symBinAddr: 0x1000046EC, symSize: 0x58 }
  - { offsetInCU: 0x4359F, offset: 0x4359F, size: 0x8, addend: 0x0, symName: __ZNSt3__1neB7v160006IPNS_6threadEEEbRKNS_11__wrap_iterIT_EES7_, symObjAddr: 0x14C4, symBinAddr: 0x100004C44, symSize: 0x34 }
  - { offsetInCU: 0x435E2, offset: 0x435E2, size: 0x8, addend: 0x0, symName: __ZNSt3__111make_sharedB7v160006IN6spdlog5sinks21ansicolor_stdout_sinkINS1_7details13console_mutexEEEJEvEENS_10shared_ptrIT_EEDpOT0_, symObjAddr: 0x1EDC, symBinAddr: 0x10000565C, symSize: 0x38 }
  - { offsetInCU: 0x43610, offset: 0x43610, size: 0x8, addend: 0x0, symName: __ZNSt3__111make_sharedB7v160006IN6spdlog6loggerEJRPKcNS_10shared_ptrINS1_5sinks21ansicolor_stdout_sinkINS1_7details13console_mutexEEEEEEvEENS6_IT_EEDpOT0_, symObjAddr: 0x1F14, symBinAddr: 0x100005694, symSize: 0x48 }
  - { offsetInCU: 0x43852, offset: 0x43852, size: 0x8, addend: 0x0, symName: __ZNSt3__119__debug_db_insert_cB7v160006INS_13unordered_mapINS_12basic_stringIcNS_11char_traitsIcEENS_9allocatorIcEEEENS_10shared_ptrIN6spdlog6loggerEEENS_4hashIS7_EENS_8equal_toIS7_EENS5_INS_4pairIKS7_SB_EEEEEEEEvPT_, symObjAddr: 0x2204, symBinAddr: 0x100005984, symSize: 0x10 }
  - { offsetInCU: 0x43884, offset: 0x43884, size: 0x8, addend: 0x0, symName: __ZNSt3__119__debug_db_insert_cB7v160006INS_13unordered_mapINS_12basic_stringIcNS_11char_traitsIcEENS_9allocatorIcEEEEN6spdlog5level10level_enumENS_4hashIS7_EENS_8equal_toIS7_EENS5_INS_4pairIKS7_SA_EEEEEEEEvPT_, symObjAddr: 0x2870, symBinAddr: 0x100005FF0, symSize: 0x10 }
  - { offsetInCU: 0x438D4, offset: 0x438D4, size: 0x8, addend: 0x0, symName: __ZNSt3__119__debug_db_insert_cB7v160006INS_6vectorINS_10unique_ptrIN6spdlog7details14flag_formatterENS_14default_deleteIS5_EEEENS_9allocatorIS8_EEEEEEvPT_, symObjAddr: 0x368C, symBinAddr: 0x100006E0C, symSize: 0x10 }
  - { offsetInCU: 0x43905, offset: 0x43905, size: 0x8, addend: 0x0, symName: __ZNSt3__112__to_addressB7v160006INS_10unique_ptrIN6spdlog7details14flag_formatterENS_14default_deleteIS4_EEEEEEPT_S9_, symObjAddr: 0x39C4, symBinAddr: 0x100007144, symSize: 0x14 }
  - { offsetInCU: 0x4393A, offset: 0x4393A, size: 0x8, addend: 0x0, symName: __ZNSt3__13maxB7v160006ImEERKT_S3_S3_, symObjAddr: 0x4018, symBinAddr: 0x100007798, symSize: 0x2C }
  - { offsetInCU: 0x4397D, offset: 0x4397D, size: 0x8, addend: 0x0, symName: __ZNSt3__13minB7v160006ImEERKT_S3_S3_, symObjAddr: 0x4044, symBinAddr: 0x1000077C4, symSize: 0x2C }
  - { offsetInCU: 0x43BC1, offset: 0x43BC1, size: 0x8, addend: 0x0, symName: __ZNSt3__13minB7v160006ImNS_6__lessImmEEEERKT_S5_S5_T0_, symObjAddr: 0x40D0, symBinAddr: 0x100007850, symSize: 0x54 }
  - { offsetInCU: 0x43C56, offset: 0x43C56, size: 0x8, addend: 0x0, symName: __ZNSt3__120__throw_length_errorB7v160006EPKc, symObjAddr: 0x41AC, symBinAddr: 0x10000792C, symSize: 0x64 }
  - { offsetInCU: 0x43C7E, offset: 0x43C7E, size: 0x8, addend: 0x0, symName: __ZNSt3__13maxB7v160006ImNS_6__lessImmEEEERKT_S5_S5_T0_, symObjAddr: 0x42F0, symBinAddr: 0x100007A70, symSize: 0x54 }
  - { offsetInCU: 0x43CD8, offset: 0x43CD8, size: 0x8, addend: 0x0, symName: __ZNSt3__119__allocate_at_leastB7v160006INS_9allocatorINS_10unique_ptrIN6spdlog7details14flag_formatterENS_14default_deleteIS5_EEEEEEEENS_19__allocation_resultINS_16allocator_traitsIT_E7pointerEEERSC_m, symObjAddr: 0x4454, symBinAddr: 0x100007BD4, symSize: 0x40 }
  - { offsetInCU: 0x43D1B, offset: 0x43D1B, size: 0x8, addend: 0x0, symName: __ZNSt3__117__libcpp_allocateB7v160006Emm, symObjAddr: 0x45D8, symBinAddr: 0x100007D58, symSize: 0x28 }
  - { offsetInCU: 0x43D58, offset: 0x43D58, size: 0x8, addend: 0x0, symName: __ZNSt3__121__libcpp_operator_newB7v160006IJmEEEPvDpT_, symObjAddr: 0x4600, symBinAddr: 0x100007D80, symSize: 0x24 }
  - { offsetInCU: 0x43D91, offset: 0x43D91, size: 0x8, addend: 0x0, symName: __ZNSt3__142__uninitialized_allocator_move_if_noexceptB7v160006INS_9allocatorINS_10unique_ptrIN6spdlog7details14flag_formatterENS_14default_deleteIS5_EEEEEENS_16reverse_iteratorIPS8_EESC_SC_EET2_RT_T0_T1_SD_, symObjAddr: 0x4740, symBinAddr: 0x100007EC0, symSize: 0x12C }
  - { offsetInCU: 0x43E31, offset: 0x43E31, size: 0x8, addend: 0x0, symName: __ZNSt3__14swapB7v160006IPNS_10unique_ptrIN6spdlog7details14flag_formatterENS_14default_deleteIS4_EEEEEENS_9enable_ifIXaasr21is_move_constructibleIT_EE5valuesr18is_move_assignableISA_EE5valueEvE4typeERSA_SD_, symObjAddr: 0x48B8, symBinAddr: 0x100008038, symSize: 0x3C }
  - { offsetInCU: 0x43E83, offset: 0x43E83, size: 0x8, addend: 0x0, symName: __ZNSt3__125__debug_db_invalidate_allB7v160006INS_6vectorINS_10unique_ptrIN6spdlog7details14flag_formatterENS_14default_deleteIS5_EEEENS_9allocatorIS8_EEEEEEvPT_, symObjAddr: 0x49A0, symBinAddr: 0x100008120, symSize: 0x10 }
  - { offsetInCU: 0x43EB4, offset: 0x43EB4, size: 0x8, addend: 0x0, symName: __ZNSt3__122__make_exception_guardB7v160006INS_29_AllocatorDestroyRangeReverseINS_9allocatorINS_10unique_ptrIN6spdlog7details14flag_formatterENS_14default_deleteIS6_EEEEEENS_16reverse_iteratorIPS9_EEEEEENS_28__exception_guard_exceptionsIT_EESG_, symObjAddr: 0x49F8, symBinAddr: 0x100008178, symSize: 0x4C }
  - { offsetInCU: 0x43EEA, offset: 0x43EEA, size: 0x8, addend: 0x0, symName: __ZNSt3__1neB7v160006IPNS_10unique_ptrIN6spdlog7details14flag_formatterENS_14default_deleteIS4_EEEES8_EEbRKNS_16reverse_iteratorIT_EERKNS9_IT0_EE, symObjAddr: 0x4A88, symBinAddr: 0x100008208, symSize: 0x48 }
  - { offsetInCU: 0x43F36, offset: 0x43F36, size: 0x8, addend: 0x0, symName: __ZNSt3__112__to_addressB7v160006INS_16reverse_iteratorIPNS_10unique_ptrIN6spdlog7details14flag_formatterENS_14default_deleteIS5_EEEEEEvEENS_5decayIDTclsr19__to_address_helperIT_EE6__callclsr3stdE7declvalIRKSC_EEEEE4typeESE_, symObjAddr: 0x4AD0, symBinAddr: 0x100008250, symSize: 0x24 }
  - { offsetInCU: 0x43F96, offset: 0x43F96, size: 0x8, addend: 0x0, symName: __ZNSt3__119__allocator_destroyB7v160006INS_9allocatorINS_10unique_ptrIN6spdlog7details14flag_formatterENS_14default_deleteIS5_EEEEEENS_16reverse_iteratorINSA_IPS8_EEEESD_EEvRT_T0_T1_, symObjAddr: 0x4D80, symBinAddr: 0x100008500, symSize: 0x70 }
  - { offsetInCU: 0x43FFB, offset: 0x43FFB, size: 0x8, addend: 0x0, symName: __ZNSt3__1neB7v160006INS_16reverse_iteratorIPNS_10unique_ptrIN6spdlog7details14flag_formatterENS_14default_deleteIS5_EEEEEESA_EEbRKNS1_IT_EERKNS1_IT0_EE, symObjAddr: 0x4E2C, symBinAddr: 0x1000085AC, symSize: 0x60 }
  - { offsetInCU: 0x44047, offset: 0x44047, size: 0x8, addend: 0x0, symName: __ZNSt3__112__to_addressB7v160006INS_16reverse_iteratorINS1_IPNS_10unique_ptrIN6spdlog7details14flag_formatterENS_14default_deleteIS5_EEEEEEEEvEENS_5decayIDTclsr19__to_address_helperIT_EE6__callclsr3stdE7declvalIRKSD_EEEEE4typeESF_, symObjAddr: 0x4EB8, symBinAddr: 0x100008638, symSize: 0x24 }
  - { offsetInCU: 0x440A7, offset: 0x440A7, size: 0x8, addend: 0x0, symName: __ZNSt3__119__libcpp_deallocateB7v160006EPvmm, symObjAddr: 0x5270, symBinAddr: 0x1000089F0, symSize: 0x30 }
  - { offsetInCU: 0x440EF, offset: 0x440EF, size: 0x8, addend: 0x0, symName: __ZNSt3__127__do_deallocate_handle_sizeB7v160006IJEEEvPvmDpT_, symObjAddr: 0x52A0, symBinAddr: 0x100008A20, symSize: 0x28 }
  - { offsetInCU: 0x4412D, offset: 0x4412D, size: 0x8, addend: 0x0, symName: __ZNSt3__124__libcpp_operator_deleteB7v160006IJPvEEEvDpT_, symObjAddr: 0x52C8, symBinAddr: 0x100008A48, symSize: 0x24 }
  - { offsetInCU: 0x44162, offset: 0x44162, size: 0x8, addend: 0x0, symName: __ZNSt3__118uninitialized_copyB7v160006IPcS1_EET0_T_S3_S2_, symObjAddr: 0x5D38, symBinAddr: 0x1000094B8, symSize: 0x40 }
  - { offsetInCU: 0x441F1, offset: 0x441F1, size: 0x8, addend: 0x0, symName: __ZNSt3__120__uninitialized_copyB7v160006IcPcS1_S1_NS_22__unreachable_sentinelEEENS_4pairIT0_T2_EES4_T1_S5_T3_, symObjAddr: 0x5E64, symBinAddr: 0x1000095E4, symSize: 0xCC }
  - { offsetInCU: 0x4429F, offset: 0x4429F, size: 0x8, addend: 0x0, symName: __ZNSt3__1neB7v160006IPcEEbRKT_NS_22__unreachable_sentinelE, symObjAddr: 0x5F30, symBinAddr: 0x1000096B0, symSize: 0x18 }
  - { offsetInCU: 0x442DC, offset: 0x442DC, size: 0x8, addend: 0x0, symName: __ZNSt3__19__destroyB7v160006IPcEET_S2_S2_, symObjAddr: 0x5F48, symBinAddr: 0x1000096C8, symSize: 0x5C }
  - { offsetInCU: 0x443F4, offset: 0x443F4, size: 0x8, addend: 0x0, symName: __ZNSt3__112__destroy_atB7v160006IcLi0EEEvPT_, symObjAddr: 0x5FE0, symBinAddr: 0x100009760, symSize: 0x10 }
  - { offsetInCU: 0x4442B, offset: 0x4442B, size: 0x8, addend: 0x0, symName: __ZNSt3__113back_inserterB7v160006IN3fmt2v919basic_memory_bufferIcLm250ENS_9allocatorIcEEEEEENS_20back_insert_iteratorIT_EERS8_, symObjAddr: 0x6E90, symBinAddr: 0x10000A610, symSize: 0x2C }
  - { offsetInCU: 0x44461, offset: 0x44461, size: 0x8, addend: 0x0, symName: __ZNSt3__119__debug_db_insert_cB7v160006INS_12basic_stringIcNS_11char_traitsIcEENS_9allocatorIcEEEEEEvPT_, symObjAddr: 0xADB0, symBinAddr: 0x10000E530, symSize: 0x10 }
  - { offsetInCU: 0x44492, offset: 0x44492, size: 0x8, addend: 0x0, symName: __ZNSt3__19use_facetB7v160006INS_8numpunctIcEEEERKT_RKNS_6localeE, symObjAddr: 0xAFBC, symBinAddr: 0x10000E73C, symSize: 0x2C }
  - { offsetInCU: 0x446DA, offset: 0x446DA, size: 0x8, addend: 0x0, symName: __ZNSt3__1eqB7v160006IPKcEEbRKNS_11__wrap_iterIT_EES7_, symObjAddr: 0xBAE0, symBinAddr: 0x10000F260, symSize: 0x48 }
  - { offsetInCU: 0x4471D, offset: 0x4471D, size: 0x8, addend: 0x0, symName: __ZNSt3__112__to_addressB7v160006IKcEEPT_S3_, symObjAddr: 0xBC84, symBinAddr: 0x10000F404, symSize: 0x14 }
  - { offsetInCU: 0x44B25, offset: 0x44B25, size: 0x8, addend: 0x0, symName: __ZNSt3__118uninitialized_copyB7v160006IPiS1_EET0_T_S3_S2_, symObjAddr: 0xC6FC, symBinAddr: 0x10000FE7C, symSize: 0x40 }
  - { offsetInCU: 0x44BB4, offset: 0x44BB4, size: 0x8, addend: 0x0, symName: __ZNSt3__120__uninitialized_copyB7v160006IiPiS1_S1_NS_22__unreachable_sentinelEEENS_4pairIT0_T2_EES4_T1_S5_T3_, symObjAddr: 0xC800, symBinAddr: 0x10000FF80, symSize: 0xCC }
  - { offsetInCU: 0x44C62, offset: 0x44C62, size: 0x8, addend: 0x0, symName: __ZNSt3__1neB7v160006IPiEEbRKT_NS_22__unreachable_sentinelE, symObjAddr: 0xC8CC, symBinAddr: 0x10001004C, symSize: 0x18 }
  - { offsetInCU: 0x44C9F, offset: 0x44C9F, size: 0x8, addend: 0x0, symName: __ZNSt3__19__destroyB7v160006IPiEET_S2_S2_, symObjAddr: 0xC8E4, symBinAddr: 0x100010064, symSize: 0x5C }
  - { offsetInCU: 0x44DB7, offset: 0x44DB7, size: 0x8, addend: 0x0, symName: __ZNSt3__112__destroy_atB7v160006IiLi0EEEvPT_, symObjAddr: 0xC97C, symBinAddr: 0x1000100FC, symSize: 0x10 }
  - { offsetInCU: 0x44DEE, offset: 0x44DEE, size: 0x8, addend: 0x0, symName: __ZNSt3__118__constexpr_memcmpB7v160006IcEEiPKT_S3_m, symObjAddr: 0x19A74, symBinAddr: 0x10001D1F4, symSize: 0x34 }
  - { offsetInCU: 0x44ECA, offset: 0x44ECA, size: 0x8, addend: 0x0, symName: __ZNSt3__118uninitialized_copyB7v160006IPjS1_EET0_T_S3_S2_, symObjAddr: 0x251EC, symBinAddr: 0x10002896C, symSize: 0x40 }
  - { offsetInCU: 0x44F59, offset: 0x44F59, size: 0x8, addend: 0x0, symName: __ZNSt3__120__uninitialized_copyB7v160006IjPjS1_S1_NS_22__unreachable_sentinelEEENS_4pairIT0_T2_EES4_T1_S5_T3_, symObjAddr: 0x25308, symBinAddr: 0x100028A88, symSize: 0xCC }
  - { offsetInCU: 0x45007, offset: 0x45007, size: 0x8, addend: 0x0, symName: __ZNSt3__1neB7v160006IPjEEbRKT_NS_22__unreachable_sentinelE, symObjAddr: 0x253D4, symBinAddr: 0x100028B54, symSize: 0x18 }
  - { offsetInCU: 0x45044, offset: 0x45044, size: 0x8, addend: 0x0, symName: __ZNSt3__19__destroyB7v160006IPjEET_S2_S2_, symObjAddr: 0x253EC, symBinAddr: 0x100028B6C, symSize: 0x5C }
  - { offsetInCU: 0x4515C, offset: 0x4515C, size: 0x8, addend: 0x0, symName: __ZNSt3__112__destroy_atB7v160006IjLi0EEEvPT_, symObjAddr: 0x25484, symBinAddr: 0x100028C04, symSize: 0x10 }
  - { offsetInCU: 0x45193, offset: 0x45193, size: 0x8, addend: 0x0, symName: __ZNSt3__14copyB7v160006IPKjPjEET0_T_S5_S4_, symObjAddr: 0x25F50, symBinAddr: 0x1000296D0, symSize: 0x40 }
  - { offsetInCU: 0x451ED, offset: 0x451ED, size: 0x8, addend: 0x0, symName: __ZNSt3__16__copyB7v160006INS_17_ClassicAlgPolicyEPKjS3_PjEENS_4pairIT0_T2_EES6_T1_S7_, symObjAddr: 0x25F90, symBinAddr: 0x100029710, symSize: 0x44 }
  - { offsetInCU: 0x45259, offset: 0x45259, size: 0x8, addend: 0x0, symName: __ZNSt3__123__dispatch_copy_or_moveB7v160006INS_17_ClassicAlgPolicyENS_11__copy_loopIS1_EENS_14__copy_trivialEPKjS6_PjEENS_4pairIT2_T4_EES9_T3_SA_, symObjAddr: 0x25FD4, symBinAddr: 0x100029754, symSize: 0x44 }
  - { offsetInCU: 0x452D7, offset: 0x452D7, size: 0x8, addend: 0x0, symName: __ZNSt3__121__unwrap_and_dispatchB7v160006INS_10__overloadINS_11__copy_loopINS_17_ClassicAlgPolicyEEENS_14__copy_trivialEEEPKjS8_PjLi0EEENS_4pairIT0_T2_EESB_T1_SC_, symObjAddr: 0x26018, symBinAddr: 0x100029798, symSize: 0xB4 }
  - { offsetInCU: 0x45365, offset: 0x45365, size: 0x8, addend: 0x0, symName: __ZNSt3__114__unwrap_rangeB7v160006IPKjS2_EENS_4pairIT0_S4_EET_S6_, symObjAddr: 0x260CC, symBinAddr: 0x10002984C, symSize: 0x60 }
  - { offsetInCU: 0x454FA, offset: 0x454FA, size: 0x8, addend: 0x0, symName: __ZNSt3__113__unwrap_iterB7v160006IPjNS_18__unwrap_iter_implIS1_Lb1EEELi0EEEDTclsrT0_8__unwrapclsr3stdE7declvalIT_EEEES5_, symObjAddr: 0x26174, symBinAddr: 0x1000298F4, symSize: 0x24 }
  - { offsetInCU: 0x4553E, offset: 0x4553E, size: 0x8, addend: 0x0, symName: __ZNSt3__19make_pairB7v160006IPKjPjEENS_4pairINS_18__unwrap_ref_decayIT_E4typeENS5_IT0_E4typeEEEOS6_OS9_, symObjAddr: 0x26198, symBinAddr: 0x100029918, symSize: 0x38 }
  - { offsetInCU: 0x4558D, offset: 0x4558D, size: 0x8, addend: 0x0, symName: __ZNSt3__114__rewrap_rangeB7v160006IPKjS2_EET_S3_T0_, symObjAddr: 0x261D0, symBinAddr: 0x100029950, symSize: 0x2C }
  - { offsetInCU: 0x455D9, offset: 0x455D9, size: 0x8, addend: 0x0, symName: __ZNSt3__113__rewrap_iterB7v160006IPjS1_NS_18__unwrap_iter_implIS1_Lb1EEEEET_S4_T0_, symObjAddr: 0x261FC, symBinAddr: 0x10002997C, symSize: 0x3C }
  - { offsetInCU: 0x4562E, offset: 0x4562E, size: 0x8, addend: 0x0, symName: __ZNSt3__19make_pairB7v160006IPKjS2_EENS_4pairINS_18__unwrap_ref_decayIT_E4typeENS4_IT0_E4typeEEEOS5_OS8_, symObjAddr: 0x26238, symBinAddr: 0x1000299B8, symSize: 0x38 }
  - { offsetInCU: 0x4567D, offset: 0x4567D, size: 0x8, addend: 0x0, symName: __ZNSt3__113__unwrap_iterB7v160006IPKjNS_18__unwrap_iter_implIS2_Lb1EEELi0EEEDTclsrT0_8__unwrapclsr3stdE7declvalIT_EEEES6_, symObjAddr: 0x26270, symBinAddr: 0x1000299F0, symSize: 0x24 }
  - { offsetInCU: 0x457E8, offset: 0x457E8, size: 0x8, addend: 0x0, symName: __ZNSt3__112__to_addressB7v160006IKjEEPT_S3_, symObjAddr: 0x26328, symBinAddr: 0x100029AA8, symSize: 0x14 }
  - { offsetInCU: 0x4581D, offset: 0x4581D, size: 0x8, addend: 0x0, symName: __ZNSt3__119__copy_trivial_implB7v160006IKjjEENS_4pairIPT_PT0_EES4_S4_S6_, symObjAddr: 0x2633C, symBinAddr: 0x100029ABC, symSize: 0x84 }
  - { offsetInCU: 0x45885, offset: 0x45885, size: 0x8, addend: 0x0, symName: __ZNSt3__19make_pairB7v160006IRPKjPjEENS_4pairINS_18__unwrap_ref_decayIT_E4typeENS6_IT0_E4typeEEEOS7_OSA_, symObjAddr: 0x263C0, symBinAddr: 0x100029B40, symSize: 0x38 }
  - { offsetInCU: 0x45927, offset: 0x45927, size: 0x8, addend: 0x0, symName: __ZNSt3__112__to_addressB7v160006IjEEPT_S2_, symObjAddr: 0x2648C, symBinAddr: 0x100029C0C, symSize: 0x14 }
  - { offsetInCU: 0x4595C, offset: 0x4595C, size: 0x8, addend: 0x0, symName: __ZNSt3__113__rewrap_iterB7v160006IPKjS2_NS_18__unwrap_iter_implIS2_Lb1EEEEET_S5_T0_, symObjAddr: 0x26510, symBinAddr: 0x100029C90, symSize: 0x3C }
  - { offsetInCU: 0x459B1, offset: 0x459B1, size: 0x8, addend: 0x0, symName: __ZNSt3__120uninitialized_fill_nB7v160006IPjiiEET_S2_T0_RKT1_, symObjAddr: 0x26D7C, symBinAddr: 0x10002A4FC, symSize: 0x34 }
  - { offsetInCU: 0x45A14, offset: 0x45A14, size: 0x8, addend: 0x0, symName: __ZNSt3__122__uninitialized_fill_nB7v160006IjPjiiEET0_S2_T1_RKT2_, symObjAddr: 0x26DB0, symBinAddr: 0x10002A530, symSize: 0x74 }
  - { offsetInCU: 0x45AAB, offset: 0x45AAB, size: 0x8, addend: 0x0, symName: __ZNSt3__120uninitialized_copy_nB7v160006IPKcmPcEET1_T_T0_S4_, symObjAddr: 0x2EBC4, symBinAddr: 0x100032344, symSize: 0x40 }
  - { offsetInCU: 0x45B1C, offset: 0x45B1C, size: 0x8, addend: 0x0, symName: __ZNSt3__122__uninitialized_copy_nB7v160006IcPKcmPcNS_22__unreachable_sentinelEEENS_4pairIT0_T2_EES6_T1_S7_T3_, symObjAddr: 0x2EC04, symBinAddr: 0x100032384, symSize: 0xC4 }
  - { offsetInCU: 0x45C9E, offset: 0x45C9E, size: 0x8, addend: 0x0, symName: __ZNSt3__118__constexpr_strlenB7v160006EPKc, symObjAddr: 0x2F078, symBinAddr: 0x1000327F8, symSize: 0x24 }
  - { offsetInCU: 0x45CCB, offset: 0x45CCB, size: 0x8, addend: 0x0, symName: __ZNSt3__118__debug_db_erase_cB7v160006INS_6vectorINS_10unique_ptrIN6spdlog7details14flag_formatterENS_14default_deleteIS5_EEEENS_9allocatorIS8_EEEEEEvPT_, symObjAddr: 0x2F704, symBinAddr: 0x100032E84, symSize: 0x10 }
  - { offsetInCU: 0x45CFC, offset: 0x45CFC, size: 0x8, addend: 0x0, symName: __ZNSt3__1neB7v160006IPNS_10unique_ptrIN6spdlog7details14flag_formatterENS_14default_deleteIS4_EEEEEEbRKNS_11__wrap_iterIT_EESD_, symObjAddr: 0x2F908, symBinAddr: 0x100033088, symSize: 0x34 }
  - { offsetInCU: 0x45D3F, offset: 0x45D3F, size: 0x8, addend: 0x0, symName: __ZNSt3__1eqB7v160006IPNS_10unique_ptrIN6spdlog7details14flag_formatterENS_14default_deleteIS4_EEEEEEbRKNS_11__wrap_iterIT_EESD_, symObjAddr: 0x2FAC4, symBinAddr: 0x100033244, symSize: 0x48 }
  - { offsetInCU: 0x45D82, offset: 0x45D82, size: 0x8, addend: 0x0, symName: __ZNSt3__1neB7v160006ERKNS_25__hash_map_const_iteratorINS_21__hash_const_iteratorIPNS_11__hash_nodeINS_17__hash_value_typeIcNS_10unique_ptrIN6spdlog21custom_flag_formatterENS_14default_deleteIS6_EEEEEEPvEEEEEESH_, symObjAddr: 0x2FC18, symBinAddr: 0x100033398, symSize: 0x30 }
  - { offsetInCU: 0x45DBF, offset: 0x45DBF, size: 0x8, addend: 0x0, symName: __ZNSt3__1neB7v160006ERKNS_21__hash_const_iteratorIPNS_11__hash_nodeINS_17__hash_value_typeIcNS_10unique_ptrIN6spdlog21custom_flag_formatterENS_14default_deleteIS5_EEEEEEPvEEEESF_, symObjAddr: 0x3012C, symBinAddr: 0x1000338AC, symSize: 0x34 }
  - { offsetInCU: 0x45DFC, offset: 0x45DFC, size: 0x8, addend: 0x0, symName: __ZNSt3__1eqB7v160006ERKNS_21__hash_const_iteratorIPNS_11__hash_nodeINS_17__hash_value_typeIcNS_10unique_ptrIN6spdlog21custom_flag_formatterENS_14default_deleteIS5_EEEEEEPvEEEESF_, symObjAddr: 0x30160, symBinAddr: 0x1000338E0, symSize: 0x30 }
  - { offsetInCU: 0x45ED6, offset: 0x45ED6, size: 0x8, addend: 0x0, symName: __ZNSt3__116forward_as_tupleB7v160006IJRKcEEENS_5tupleIJDpOT_EEES6_, symObjAddr: 0x30728, symBinAddr: 0x100033EA8, symSize: 0x2C }
  - { offsetInCU: 0x45F0F, offset: 0x45F0F, size: 0x8, addend: 0x0, symName: __ZNSt3__116forward_as_tupleB7v160006IJEEENS_5tupleIJDpOT_EEES4_, symObjAddr: 0x30754, symBinAddr: 0x100033ED4, symSize: 0x4 }
  - { offsetInCU: 0x45F33, offset: 0x45F33, size: 0x8, addend: 0x0, symName: __ZNSt3__116__constrain_hashB7v160006Emm, symObjAddr: 0x3081C, symBinAddr: 0x100033F9C, symSize: 0x98 }
  - { offsetInCU: 0x45F6D, offset: 0x45F6D, size: 0x8, addend: 0x0, symName: __ZNSt3__116__is_hash_power2B7v160006Em, symObjAddr: 0x30B3C, symBinAddr: 0x1000342BC, symSize: 0x50 }
  - { offsetInCU: 0x45FC3, offset: 0x45FC3, size: 0x8, addend: 0x0, symName: __ZNSt3__13getB7v160006ILm0EJRKcEEERNS_13tuple_elementIXT_ENS_5tupleIJDpT0_EEEE4typeERS7_, symObjAddr: 0x31360, symBinAddr: 0x100034AE0, symSize: 0x24 }
  - { offsetInCU: 0x46006, offset: 0x46006, size: 0x8, addend: 0x0, symName: __ZNSt3__116__next_hash_pow2B7v160006Em, symObjAddr: 0x3198C, symBinAddr: 0x10003510C, symSize: 0x6C }
  - { offsetInCU: 0x46033, offset: 0x46033, size: 0x8, addend: 0x0, symName: __ZNSt3__125__debug_db_invalidate_allB7v160006INS_12__hash_tableINS_17__hash_value_typeIcNS_10unique_ptrIN6spdlog21custom_flag_formatterENS_14default_deleteIS5_EEEEEENS_22__unordered_map_hasherIcS9_NS_4hashIcEENS_8equal_toIcEELb1EEENS_21__unordered_map_equalIcS9_SE_SC_Lb1EEENS_9allocatorIS9_EEEEEEvPT_, symObjAddr: 0x319F8, symBinAddr: 0x100035178, symSize: 0x10 }
  - { offsetInCU: 0x46064, offset: 0x46064, size: 0x8, addend: 0x0, symName: __ZNSt3__112__libcpp_clzB7v160006Em, symObjAddr: 0x31D44, symBinAddr: 0x1000354C4, symSize: 0x1C }
  - { offsetInCU: 0x460E8, offset: 0x460E8, size: 0x8, addend: 0x0, symName: __ZNSt3__119__debug_db_insert_cB7v160006INS_13unordered_mapIcNS_10unique_ptrIN6spdlog21custom_flag_formatterENS_14default_deleteIS4_EEEENS_4hashIcEENS_8equal_toIcEENS_9allocatorINS_4pairIKcS7_EEEEEEEEvPT_, symObjAddr: 0x32458, symBinAddr: 0x100035BD8, symSize: 0x10 }
  - { offsetInCU: 0x4611A, offset: 0x4611A, size: 0x8, addend: 0x0, symName: __ZNSt3__115__debug_db_swapB7v160006INS_13unordered_mapIcNS_10unique_ptrIN6spdlog21custom_flag_formatterENS_14default_deleteIS4_EEEENS_4hashIcEENS_8equal_toIcEENS_9allocatorINS_4pairIKcS7_EEEEEEEEvPT_SJ_, symObjAddr: 0x32468, symBinAddr: 0x100035BE8, symSize: 0x14 }
  - { offsetInCU: 0x46159, offset: 0x46159, size: 0x8, addend: 0x0, symName: __ZNSt3__115allocate_sharedB7v160006IN6spdlog5sinks21ansicolor_stdout_sinkINS1_7details13console_mutexEEENS_9allocatorIS6_EEJEvEENS_10shared_ptrIT_EERKT0_DpOT1_, symObjAddr: 0x32D80, symBinAddr: 0x100036500, symSize: 0x90 }
  - { offsetInCU: 0x46452, offset: 0x46452, size: 0x8, addend: 0x0, symName: __ZNSt3__16any_ofB7v160006IPKPKcZZN6spdlog7details2os17is_color_terminalEvENKUlvE_clEvEUlS2_E_EEbT_SA_T0_, symObjAddr: 0x34CCC, symBinAddr: 0x10003844C, symSize: 0x9C }
  - { offsetInCU: 0x464AD, offset: 0x464AD, size: 0x8, addend: 0x0, symName: __ZNSt3__120__throw_out_of_rangeB7v160006EPKc, symObjAddr: 0x34EE0, symBinAddr: 0x100038660, symSize: 0x64 }
  - { offsetInCU: 0x4659A, offset: 0x4659A, size: 0x8, addend: 0x0, symName: __ZNSt3__115allocate_sharedB7v160006IN6spdlog6loggerENS_9allocatorIS2_EEJRPKcNS_10shared_ptrINS1_5sinks21ansicolor_stdout_sinkINS1_7details13console_mutexEEEEEEvEENS8_IT_EERKT0_DpOT1_, symObjAddr: 0x356F0, symBinAddr: 0x100038E70, symSize: 0xA0 }
  - { offsetInCU: 0x468BC, offset: 0x468BC, size: 0x8, addend: 0x0, symName: __ZNSt3__122__make_exception_guardB7v160006INS_6vectorINS_10shared_ptrIN6spdlog5sinks4sinkEEENS_9allocatorIS6_EEE16__destroy_vectorEEENS_28__exception_guard_exceptionsIT_EESC_, symObjAddr: 0x36A90, symBinAddr: 0x10003A210, symSize: 0x40 }
  - { offsetInCU: 0x468F2, offset: 0x468F2, size: 0x8, addend: 0x0, symName: __ZNSt3__119__debug_db_insert_cB7v160006INS_6vectorINS_10shared_ptrIN6spdlog5sinks4sinkEEENS_9allocatorIS6_EEEEEEvPT_, symObjAddr: 0x36B04, symBinAddr: 0x10003A284, symSize: 0x10 }
  - { offsetInCU: 0x46923, offset: 0x46923, size: 0x8, addend: 0x0, symName: __ZNSt3__18distanceB7v160006IPKNS_10shared_ptrIN6spdlog5sinks4sinkEEEEENS_15iterator_traitsIT_E15difference_typeES9_S9_, symObjAddr: 0x36B14, symBinAddr: 0x10003A294, symSize: 0x2C }
  - { offsetInCU: 0x46966, offset: 0x46966, size: 0x8, addend: 0x0, symName: __ZNSt3__110__distanceB7v160006IPKNS_10shared_ptrIN6spdlog5sinks4sinkEEEEENS_15iterator_traitsIT_E15difference_typeES9_S9_NS_26random_access_iterator_tagE, symObjAddr: 0x36E00, symBinAddr: 0x10003A580, symSize: 0x28 }
  - { offsetInCU: 0x469B4, offset: 0x469B4, size: 0x8, addend: 0x0, symName: __ZNSt3__119__allocate_at_leastB7v160006INS_9allocatorINS_10shared_ptrIN6spdlog5sinks4sinkEEEEEEENS_19__allocation_resultINS_16allocator_traitsIT_E7pointerEEERSA_m, symObjAddr: 0x36EA4, symBinAddr: 0x10003A624, symSize: 0x40 }
  - { offsetInCU: 0x469F7, offset: 0x469F7, size: 0x8, addend: 0x0, symName: __ZNSt3__112__to_addressB7v160006INS_10shared_ptrIN6spdlog5sinks4sinkEEEEEPT_S7_, symObjAddr: 0x371C8, symBinAddr: 0x10003A948, symSize: 0x14 }
  - { offsetInCU: 0x46A2C, offset: 0x46A2C, size: 0x8, addend: 0x0, symName: __ZNSt3__130__uninitialized_allocator_copyB7v160006INS_9allocatorINS_10shared_ptrIN6spdlog5sinks4sinkEEEEEPKS6_S9_PS6_EET2_RT_T0_T1_SB_, symObjAddr: 0x37278, symBinAddr: 0x10003A9F8, symSize: 0xF4 }
  - { offsetInCU: 0x46ACA, offset: 0x46ACA, size: 0x8, addend: 0x0, symName: __ZNSt3__122__make_exception_guardB7v160006INS_29_AllocatorDestroyRangeReverseINS_9allocatorINS_10shared_ptrIN6spdlog5sinks4sinkEEEEEPS7_EEEENS_28__exception_guard_exceptionsIT_EESC_, symObjAddr: 0x373DC, symBinAddr: 0x10003AB5C, symSize: 0x4C }
  - { offsetInCU: 0x46B00, offset: 0x46B00, size: 0x8, addend: 0x0, symName: __ZNSt3__134__libcpp_atomic_refcount_incrementB7v160006IlEET_RS1_, symObjAddr: 0x376A4, symBinAddr: 0x10003AE24, symSize: 0x30 }
  - { offsetInCU: 0x46B35, offset: 0x46B35, size: 0x8, addend: 0x0, symName: __ZNSt3__119__allocator_destroyB7v160006INS_9allocatorINS_10shared_ptrIN6spdlog5sinks4sinkEEEEENS_16reverse_iteratorIPS6_EESA_EEvRT_T0_T1_, symObjAddr: 0x3778C, symBinAddr: 0x10003AF0C, symSize: 0x70 }
  - { offsetInCU: 0x46B98, offset: 0x46B98, size: 0x8, addend: 0x0, symName: __ZNSt3__1neB7v160006IPNS_10shared_ptrIN6spdlog5sinks4sinkEEES6_EEbRKNS_16reverse_iteratorIT_EERKNS7_IT0_EE, symObjAddr: 0x37830, symBinAddr: 0x10003AFB0, symSize: 0x48 }
  - { offsetInCU: 0x46BE4, offset: 0x46BE4, size: 0x8, addend: 0x0, symName: __ZNSt3__112__to_addressB7v160006INS_16reverse_iteratorIPNS_10shared_ptrIN6spdlog5sinks4sinkEEEEEvEENS_5decayIDTclsr19__to_address_helperIT_EE6__callclsr3stdE7declvalIRKSA_EEEEE4typeESC_, symObjAddr: 0x378A4, symBinAddr: 0x10003B024, symSize: 0x24 }
  - { offsetInCU: 0x46C45, offset: 0x46C45, size: 0x8, addend: 0x0, symName: __ZNSt3__118__debug_db_erase_cB7v160006INS_6vectorINS_10shared_ptrIN6spdlog5sinks4sinkEEENS_9allocatorIS6_EEEEEEvPT_, symObjAddr: 0x37B98, symBinAddr: 0x10003B318, symSize: 0x10 }
  - { offsetInCU: 0x46C77, offset: 0x46C77, size: 0x8, addend: 0x0, symName: __ZNSt3__119__debug_db_insert_cB7v160006INS_6vectorIN6spdlog7details14log_msg_bufferENS_9allocatorIS4_EEEEEEvPT_, symObjAddr: 0x3800C, symBinAddr: 0x10003B78C, symSize: 0x10 }
  - { offsetInCU: 0x46CA9, offset: 0x46CA9, size: 0x8, addend: 0x0, symName: __ZNSt3__118__debug_db_erase_cB7v160006INS_6vectorIN6spdlog7details14log_msg_bufferENS_9allocatorIS4_EEEEEEvPT_, symObjAddr: 0x38468, symBinAddr: 0x10003BBE8, symSize: 0x10 }
  - { offsetInCU: 0x46CDA, offset: 0x46CDA, size: 0x8, addend: 0x0, symName: __ZNSt3__112__to_addressB7v160006IN6spdlog7details14log_msg_bufferEEEPT_S5_, symObjAddr: 0x385AC, symBinAddr: 0x10003BD2C, symSize: 0x14 }
  - { offsetInCU: 0x46D0F, offset: 0x46D0F, size: 0x8, addend: 0x0, symName: __ZNSt3__111make_sharedB7v160006IN6spdlog6loggerEJRS2_EvEENS_10shared_ptrIT_EEDpOT0_, symObjAddr: 0x3881C, symBinAddr: 0x10003BF9C, symSize: 0x40 }
  - { offsetInCU: 0x46D52, offset: 0x46D52, size: 0x8, addend: 0x0, symName: __ZNSt3__115allocate_sharedB7v160006IN6spdlog6loggerENS_9allocatorIS2_EEJRS2_EvEENS_10shared_ptrIT_EERKT0_DpOT1_, symObjAddr: 0x3885C, symBinAddr: 0x10003BFDC, symSize: 0x98 }
  - { offsetInCU: 0x46DCB, offset: 0x46DCB, size: 0x8, addend: 0x0, symName: __ZNSt3__130__uninitialized_allocator_copyB7v160006INS_9allocatorINS_10shared_ptrIN6spdlog5sinks4sinkEEEEEPS6_S8_S8_EET2_RT_T0_T1_S9_, symObjAddr: 0x38E70, symBinAddr: 0x10003C5F0, symSize: 0xF4 }
  - { offsetInCU: 0x46E6A, offset: 0x46E6A, size: 0x8, addend: 0x0, symName: __ZNSt3__118__cxx_atomic_storeB7v160006IbEEvPNS_22__cxx_atomic_base_implIT_EES2_NS_12memory_orderE, symObjAddr: 0x39428, symBinAddr: 0x10003CBA8, symSize: 0x90 }
  - { offsetInCU: 0x46EBB, offset: 0x46EBB, size: 0x8, addend: 0x0, symName: __ZNSt3__18distanceB7v160006IPN6spdlog7details14log_msg_bufferEEENS_15iterator_traitsIT_E15difference_typeES6_S6_, symObjAddr: 0x396DC, symBinAddr: 0x10003CE5C, symSize: 0x2C }
  - { offsetInCU: 0x46EFE, offset: 0x46EFE, size: 0x8, addend: 0x0, symName: __ZNSt3__14copyB7v160006IPN6spdlog7details14log_msg_bufferES4_EET0_T_S6_S5_, symObjAddr: 0x39758, symBinAddr: 0x10003CED8, symSize: 0x40 }
  - { offsetInCU: 0x46F59, offset: 0x46F59, size: 0x8, addend: 0x0, symName: __ZNSt3__125__debug_db_invalidate_allB7v160006INS_6vectorIN6spdlog7details14log_msg_bufferENS_9allocatorIS4_EEEEEEvPT_, symObjAddr: 0x39A78, symBinAddr: 0x10003D1F8, symSize: 0x10 }
  - { offsetInCU: 0x46F8A, offset: 0x46F8A, size: 0x8, addend: 0x0, symName: __ZNSt3__110__distanceB7v160006IPN6spdlog7details14log_msg_bufferEEENS_15iterator_traitsIT_E15difference_typeES6_S6_NS_26random_access_iterator_tagE, symObjAddr: 0x39A88, symBinAddr: 0x10003D208, symSize: 0x28 }
  - { offsetInCU: 0x46FD8, offset: 0x46FD8, size: 0x8, addend: 0x0, symName: __ZNSt3__121__convert_to_integralB7v160006Em, symObjAddr: 0x39AB0, symBinAddr: 0x10003D230, symSize: 0x14 }
  - { offsetInCU: 0x47005, offset: 0x47005, size: 0x8, addend: 0x0, symName: __ZNSt3__19__advanceB7v160006IPN6spdlog7details14log_msg_bufferEEEvRT_NS_15iterator_traitsIS5_E15difference_typeENS_26random_access_iterator_tagE, symObjAddr: 0x39AC4, symBinAddr: 0x10003D244, symSize: 0x30 }
  - { offsetInCU: 0x4704F, offset: 0x4704F, size: 0x8, addend: 0x0, symName: __ZNSt3__16__copyB7v160006INS_17_ClassicAlgPolicyEPN6spdlog7details14log_msg_bufferES5_S5_EENS_4pairIT0_T2_EES7_T1_S8_, symObjAddr: 0x39AF4, symBinAddr: 0x10003D274, symSize: 0x44 }
  - { offsetInCU: 0x470BB, offset: 0x470BB, size: 0x8, addend: 0x0, symName: __ZNSt3__123__dispatch_copy_or_moveB7v160006INS_17_ClassicAlgPolicyENS_11__copy_loopIS1_EENS_14__copy_trivialEPN6spdlog7details14log_msg_bufferES8_S8_EENS_4pairIT2_T4_EESA_T3_SB_, symObjAddr: 0x39B38, symBinAddr: 0x10003D2B8, symSize: 0x44 }
  - { offsetInCU: 0x47139, offset: 0x47139, size: 0x8, addend: 0x0, symName: __ZNSt3__121__unwrap_and_dispatchB7v160006INS_10__overloadINS_11__copy_loopINS_17_ClassicAlgPolicyEEENS_14__copy_trivialEEEPN6spdlog7details14log_msg_bufferESA_SA_Li0EEENS_4pairIT0_T2_EESC_T1_SD_, symObjAddr: 0x39B7C, symBinAddr: 0x10003D2FC, symSize: 0xB4 }
  - { offsetInCU: 0x471C7, offset: 0x471C7, size: 0x8, addend: 0x0, symName: __ZNSt3__114__unwrap_rangeB7v160006IPN6spdlog7details14log_msg_bufferES4_EENS_4pairIT0_S6_EET_S8_, symObjAddr: 0x39C30, symBinAddr: 0x10003D3B0, symSize: 0x60 }
  - { offsetInCU: 0x47342, offset: 0x47342, size: 0x8, addend: 0x0, symName: __ZNSt3__113__unwrap_iterB7v160006IPN6spdlog7details14log_msg_bufferENS_18__unwrap_iter_implIS4_Lb1EEELi0EEEDTclsrT0_8__unwrapclsr3stdE7declvalIT_EEEES8_, symObjAddr: 0x39D18, symBinAddr: 0x10003D498, symSize: 0x24 }
  - { offsetInCU: 0x47386, offset: 0x47386, size: 0x8, addend: 0x0, symName: __ZNSt3__19make_pairB7v160006IPN6spdlog7details14log_msg_bufferES4_EENS_4pairINS_18__unwrap_ref_decayIT_E4typeENS6_IT0_E4typeEEEOS7_OSA_, symObjAddr: 0x39D3C, symBinAddr: 0x10003D4BC, symSize: 0x38 }
  - { offsetInCU: 0x473D5, offset: 0x473D5, size: 0x8, addend: 0x0, symName: __ZNSt3__114__rewrap_rangeB7v160006IPN6spdlog7details14log_msg_bufferES4_EET_S5_T0_, symObjAddr: 0x39D74, symBinAddr: 0x10003D4F4, symSize: 0x2C }
  - { offsetInCU: 0x47421, offset: 0x47421, size: 0x8, addend: 0x0, symName: __ZNSt3__113__rewrap_iterB7v160006IPN6spdlog7details14log_msg_bufferES4_NS_18__unwrap_iter_implIS4_Lb1EEEEET_S7_T0_, symObjAddr: 0x39DA0, symBinAddr: 0x10003D520, symSize: 0x3C }
  - { offsetInCU: 0x474C9, offset: 0x474C9, size: 0x8, addend: 0x0, symName: __ZNSt3__130__uninitialized_allocator_copyB7v160006INS_9allocatorIN6spdlog7details14log_msg_bufferEEEPS4_S6_S6_EET2_RT_T0_T1_S7_, symObjAddr: 0x3A03C, symBinAddr: 0x10003D7BC, symSize: 0xF4 }
  - { offsetInCU: 0x47567, offset: 0x47567, size: 0x8, addend: 0x0, symName: __ZNSt3__122__make_exception_guardB7v160006INS_29_AllocatorDestroyRangeReverseINS_9allocatorIN6spdlog7details14log_msg_bufferEEEPS5_EEEENS_28__exception_guard_exceptionsIT_EESA_, symObjAddr: 0x3A1A8, symBinAddr: 0x10003D928, symSize: 0x4C }
  - { offsetInCU: 0x4759D, offset: 0x4759D, size: 0x8, addend: 0x0, symName: __ZNSt3__119__allocator_destroyB7v160006INS_9allocatorIN6spdlog7details14log_msg_bufferEEENS_16reverse_iteratorIPS4_EES8_EEvRT_T0_T1_, symObjAddr: 0x3A560, symBinAddr: 0x10003DCE0, symSize: 0x70 }
  - { offsetInCU: 0x47600, offset: 0x47600, size: 0x8, addend: 0x0, symName: __ZNSt3__1neB7v160006IPN6spdlog7details14log_msg_bufferES4_EEbRKNS_16reverse_iteratorIT_EERKNS5_IT0_EE, symObjAddr: 0x3A604, symBinAddr: 0x10003DD84, symSize: 0x48 }
  - { offsetInCU: 0x4764C, offset: 0x4764C, size: 0x8, addend: 0x0, symName: __ZNSt3__112__to_addressB7v160006INS_16reverse_iteratorIPN6spdlog7details14log_msg_bufferEEEvEENS_5decayIDTclsr19__to_address_helperIT_EE6__callclsr3stdE7declvalIRKS8_EEEEE4typeESA_, symObjAddr: 0x3A64C, symBinAddr: 0x10003DDCC, symSize: 0x24 }
  - { offsetInCU: 0x476AC, offset: 0x476AC, size: 0x8, addend: 0x0, symName: __ZNSt3__119__allocate_at_leastB7v160006INS_9allocatorIN6spdlog7details14log_msg_bufferEEEEENS_19__allocation_resultINS_16allocator_traitsIT_E7pointerEEERS8_m, symObjAddr: 0x3A988, symBinAddr: 0x10003E108, symSize: 0x40 }
  - { offsetInCU: 0x476EF, offset: 0x476EF, size: 0x8, addend: 0x0, symName: __ZNSt3__1neB7v160006IPNS_10shared_ptrIN6spdlog5sinks4sinkEEEEEbRKNS_11__wrap_iterIT_EESB_, symObjAddr: 0x3ABE8, symBinAddr: 0x10003E368, symSize: 0x34 }
  - { offsetInCU: 0x47732, offset: 0x47732, size: 0x8, addend: 0x0, symName: __ZNSt3__1eqB7v160006IPNS_10shared_ptrIN6spdlog5sinks4sinkEEEEEbRKNS_11__wrap_iterIT_EESB_, symObjAddr: 0x3B0E8, symBinAddr: 0x10003E868, symSize: 0x48 }
  - { offsetInCU: 0x47776, offset: 0x47776, size: 0x8, addend: 0x0, symName: __ZNSt3__125__throw_bad_function_callB7v160006Ev, symObjAddr: 0x3B30C, symBinAddr: 0x10003EA8C, symSize: 0x38 }
  - { offsetInCU: 0x477C6, offset: 0x477C6, size: 0x8, addend: 0x0, symName: __ZNSt3__134__libcpp_atomic_refcount_decrementB7v160006IlEET_RS1_, symObjAddr: 0x3D1B8, symBinAddr: 0x100040938, symSize: 0x30 }
  - { offsetInCU: 0x4782E, offset: 0x4782E, size: 0x8, addend: 0x0, symName: __ZNSt3__14swapB7v160006IPN6spdlog6loggerEEENS_9enable_ifIXaasr21is_move_constructibleIT_EE5valuesr18is_move_assignableIS5_EE5valueEvE4typeERS5_S8_, symObjAddr: 0x3D4C0, symBinAddr: 0x100040C40, symSize: 0x3C }
  - { offsetInCU: 0x4787F, offset: 0x4787F, size: 0x8, addend: 0x0, symName: __ZNSt3__14swapB7v160006IPNS_19__shared_weak_countEEENS_9enable_ifIXaasr21is_move_constructibleIT_EE5valuesr18is_move_assignableIS4_EE5valueEvE4typeERS4_S7_, symObjAddr: 0x3D4FC, symBinAddr: 0x100040C7C, symSize: 0x3C }
  - { offsetInCU: 0x478D0, offset: 0x478D0, size: 0x8, addend: 0x0, symName: __ZNSt3__116forward_as_tupleB7v160006IJNS_12basic_stringIcNS_11char_traitsIcEENS_9allocatorIcEEEEEEENS_5tupleIJDpOT_EEESA_, symObjAddr: 0x3D9EC, symBinAddr: 0x10004116C, symSize: 0x2C }
  - { offsetInCU: 0x47909, offset: 0x47909, size: 0x8, addend: 0x0, symName: __ZNSt3__116__do_string_hashB7v160006IPKcEEmT_S3_, symObjAddr: 0x3DFA0, symBinAddr: 0x100041720, symSize: 0x3C }
  - { offsetInCU: 0x4794F, offset: 0x4794F, size: 0x8, addend: 0x0, symName: __ZNSt3__110__loadwordB7v160006ImEET_PKv, symObjAddr: 0x3E994, symBinAddr: 0x100042114, symSize: 0x20 }
  - { offsetInCU: 0x47992, offset: 0x47992, size: 0x8, addend: 0x0, symName: __ZNSt3__14swapB7v160006ImEENS_9enable_ifIXaasr21is_move_constructibleIT_EE5valuesr18is_move_assignableIS2_EE5valueEvE4typeERS2_S5_, symObjAddr: 0x3EB50, symBinAddr: 0x1000422D0, symSize: 0x3C }
  - { offsetInCU: 0x479E3, offset: 0x479E3, size: 0x8, addend: 0x0, symName: __ZNSt3__110__loadwordB7v160006IjEET_PKv, symObjAddr: 0x3EBE0, symBinAddr: 0x100042360, symSize: 0x20 }
  - { offsetInCU: 0x47A26, offset: 0x47A26, size: 0x8, addend: 0x0, symName: __ZNSt3__1eqB7v160006INS_9allocatorIcEEEEbRKNS_12basic_stringIcNS_11char_traitsIcEET_EES9_, symObjAddr: 0x3EEAC, symBinAddr: 0x10004262C, symSize: 0x148 }
  - { offsetInCU: 0x47AEA, offset: 0x47AEA, size: 0x8, addend: 0x0, symName: __ZNSt3__13getB7v160006ILm0EJONS_12basic_stringIcNS_11char_traitsIcEENS_9allocatorIcEEEEEEERNS_13tuple_elementIXT_ENS_5tupleIJDpT0_EEEE4typeERSC_, symObjAddr: 0x3F4A4, symBinAddr: 0x100042C24, symSize: 0x24 }
  - { offsetInCU: 0x47B2E, offset: 0x47B2E, size: 0x8, addend: 0x0, symName: __ZNSt3__125__debug_db_invalidate_allB7v160006INS_12__hash_tableINS_17__hash_value_typeINS_12basic_stringIcNS_11char_traitsIcEENS_9allocatorIcEEEENS_10shared_ptrIN6spdlog6loggerEEEEENS_22__unordered_map_hasherIS8_SD_NS_4hashIS8_EENS_8equal_toIS8_EELb1EEENS_21__unordered_map_equalIS8_SD_SI_SG_Lb1EEENS6_ISD_EEEEEEvPT_, symObjAddr: 0x3F99C, symBinAddr: 0x10004311C, symSize: 0x10 }
  - { offsetInCU: 0x47BA7, offset: 0x47BA7, size: 0x8, addend: 0x0, symName: __ZNSt3__122__libcpp_thread_isnullB7v160006EPKP17_opaque_pthread_t, symObjAddr: 0x40480, symBinAddr: 0x100043C00, symSize: 0x30 }
  - { offsetInCU: 0x47BD5, offset: 0x47BD5, size: 0x8, addend: 0x0, symName: __ZNSt3__122__libcpp_thread_get_idB7v160006EPKP17_opaque_pthread_t, symObjAddr: 0x404B0, symBinAddr: 0x100043C30, symSize: 0x18 }
  - { offsetInCU: 0x47C04, offset: 0x47C04, size: 0x8, addend: 0x0, symName: __ZNSt3__118__debug_db_erase_cB7v160006INS_12__hash_tableINS_17__hash_value_typeINS_12basic_stringIcNS_11char_traitsIcEENS_9allocatorIcEEEEN6spdlog5level10level_enumEEENS_22__unordered_map_hasherIS8_SC_NS_4hashIS8_EENS_8equal_toIS8_EELb1EEENS_21__unordered_map_equalIS8_SC_SH_SF_Lb1EEENS6_ISC_EEEEEEvPT_, symObjAddr: 0x4072C, symBinAddr: 0x100043EAC, symSize: 0x10 }
  - { offsetInCU: 0x47CF6, offset: 0x47CF6, size: 0x8, addend: 0x0, symName: __ZNSt3__118__debug_db_erase_cB7v160006INS_12__hash_tableINS_17__hash_value_typeINS_12basic_stringIcNS_11char_traitsIcEENS_9allocatorIcEEEENS_10shared_ptrIN6spdlog6loggerEEEEENS_22__unordered_map_hasherIS8_SD_NS_4hashIS8_EENS_8equal_toIS8_EELb1EEENS_21__unordered_map_equalIS8_SD_SI_SG_Lb1EEENS6_ISD_EEEEEEvPT_, symObjAddr: 0x40D18, symBinAddr: 0x100044498, symSize: 0x10 }
  - { offsetInCU: 0x47D27, offset: 0x47D27, size: 0x8, addend: 0x0, symName: __ZNSt3__1neB7v160006ERKNS_19__hash_map_iteratorINS_15__hash_iteratorIPNS_11__hash_nodeINS_17__hash_value_typeINS_12basic_stringIcNS_11char_traitsIcEENS_9allocatorIcEEEENS_10shared_ptrIN6spdlog6loggerEEEEEPvEEEEEESL_, symObjAddr: 0x40EF8, symBinAddr: 0x100044678, symSize: 0x30 }
  - { offsetInCU: 0x47D64, offset: 0x47D64, size: 0x8, addend: 0x0, symName: __ZNSt3__1neB7v160006ERKNS_15__hash_iteratorIPNS_11__hash_nodeINS_17__hash_value_typeINS_12basic_stringIcNS_11char_traitsIcEENS_9allocatorIcEEEENS_10shared_ptrIN6spdlog6loggerEEEEEPvEEEESJ_, symObjAddr: 0x411C8, symBinAddr: 0x100044948, symSize: 0x34 }
  - { offsetInCU: 0x47DA1, offset: 0x47DA1, size: 0x8, addend: 0x0, symName: __ZNSt3__1eqB7v160006ERKNS_15__hash_iteratorIPNS_11__hash_nodeINS_17__hash_value_typeINS_12basic_stringIcNS_11char_traitsIcEENS_9allocatorIcEEEENS_10shared_ptrIN6spdlog6loggerEEEEEPvEEEESJ_, symObjAddr: 0x411FC, symBinAddr: 0x10004497C, symSize: 0x30 }
  - { offsetInCU: 0x47DDE, offset: 0x47DDE, size: 0x8, addend: 0x0, symName: __ZNSt3__14nextB7v160006INS_11__wrap_iterIPNS_10shared_ptrIN6spdlog5sinks4sinkEEEEEEENS_9enable_ifIXsr25__is_cpp17_input_iteratorIT_EE5valueESA_E4typeESA_NS_15iterator_traitsISA_E15difference_typeE, symObjAddr: 0x4122C, symBinAddr: 0x1000449AC, symSize: 0x50 }
  - { offsetInCU: 0x47E21, offset: 0x47E21, size: 0x8, addend: 0x0, symName: __ZNSt3__121__convert_to_integralB7v160006El, symObjAddr: 0x412CC, symBinAddr: 0x100044A4C, symSize: 0x14 }
  - { offsetInCU: 0x47E4D, offset: 0x47E4D, size: 0x8, addend: 0x0, symName: __ZNSt3__19__advanceB7v160006INS_11__wrap_iterIPNS_10shared_ptrIN6spdlog5sinks4sinkEEEEEEEvRT_NS_15iterator_traitsIS9_E15difference_typeENS_26random_access_iterator_tagE, symObjAddr: 0x412E0, symBinAddr: 0x100044A60, symSize: 0x2C }
  - { offsetInCU: 0x47E98, offset: 0x47E98, size: 0x8, addend: 0x0, symName: __ZNSt3__115__debug_db_swapB7v160006INS_12basic_stringIcNS_11char_traitsIcEENS_9allocatorIcEEEEEEvPT_S8_, symObjAddr: 0x414F0, symBinAddr: 0x100044C70, symSize: 0x14 }
  - { offsetInCU: 0x47ED7, offset: 0x47ED7, size: 0x8, addend: 0x0, symName: __ZNSt3__1neB7v160006IPKcEEbRKNS_11__wrap_iterIT_EES7_, symObjAddr: 0x41F90, symBinAddr: 0x100045710, symSize: 0x34 }
  - { offsetInCU: 0x47F1A, offset: 0x47F1A, size: 0x8, addend: 0x0, symName: __ZNSt3__1neB7v160006ERKNS_19__hash_map_iteratorINS_15__hash_iteratorIPNS_11__hash_nodeINS_17__hash_value_typeIcNS_10unique_ptrIN6spdlog21custom_flag_formatterENS_14default_deleteIS6_EEEEEEPvEEEEEESH_, symObjAddr: 0x4584C, symBinAddr: 0x100048FCC, symSize: 0x30 }
  - { offsetInCU: 0x47F57, offset: 0x47F57, size: 0x8, addend: 0x0, symName: __ZNSt3__1neB7v160006ERKNS_15__hash_iteratorIPNS_11__hash_nodeINS_17__hash_value_typeIcNS_10unique_ptrIN6spdlog21custom_flag_formatterENS_14default_deleteIS5_EEEEEEPvEEEESF_, symObjAddr: 0x47F24, symBinAddr: 0x10004B6A4, symSize: 0x34 }
  - { offsetInCU: 0x47F94, offset: 0x47F94, size: 0x8, addend: 0x0, symName: __ZNSt3__1eqB7v160006ERKNS_15__hash_iteratorIPNS_11__hash_nodeINS_17__hash_value_typeIcNS_10unique_ptrIN6spdlog21custom_flag_formatterENS_14default_deleteIS5_EEEEEEPvEEEESF_, symObjAddr: 0x47F58, symBinAddr: 0x10004B6D8, symSize: 0x30 }
  - { offsetInCU: 0x48004, offset: 0x48004, size: 0x8, addend: 0x0, symName: __ZNSt3__13maxB7v160006INS_6chrono8durationIxNS_5ratioILl1ELl1000000EEEEEEERKT_S8_S8_, symObjAddr: 0x57AF0, symBinAddr: 0x10005B270, symSize: 0x2C }
  - { offsetInCU: 0x48047, offset: 0x48047, size: 0x8, addend: 0x0, symName: __ZNSt3__13maxB7v160006INS_6chrono8durationIxNS_5ratioILl1ELl1000000EEEEENS_6__lessIS5_S5_EEEERKT_SA_SA_T0_, symObjAddr: 0x57B1C, symBinAddr: 0x10005B29C, symSize: 0x54 }
  - { offsetInCU: 0x480DD, offset: 0x480DD, size: 0x8, addend: 0x0, symName: __ZNSt3__118__debug_db_erase_cB7v160006INS_12__hash_tableINS_17__hash_value_typeIcNS_10unique_ptrIN6spdlog21custom_flag_formatterENS_14default_deleteIS5_EEEEEENS_22__unordered_map_hasherIcS9_NS_4hashIcEENS_8equal_toIcEELb1EEENS_21__unordered_map_equalIcS9_SE_SC_Lb1EEENS_9allocatorIS9_EEEEEEvPT_, symObjAddr: 0x6A438, symBinAddr: 0x10006DBB8, symSize: 0x10 }
  - { offsetInCU: 0x4810E, offset: 0x4810E, size: 0x8, addend: 0x0, symName: __ZNSt3__1eqB7v160006IPNS_6threadEEEbRKNS_11__wrap_iterIT_EES7_, symObjAddr: 0x6A510, symBinAddr: 0x10006DC90, symSize: 0x48 }
  - { offsetInCU: 0x48152, offset: 0x48152, size: 0x8, addend: 0x0, symName: __ZNSt3__119__debug_db_insert_cB7v160006INS_6vectorINS_6threadENS_9allocatorIS2_EEEEEEvPT_, symObjAddr: 0x6A814, symBinAddr: 0x10006DF94, symSize: 0x10 }
  - { offsetInCU: 0x48184, offset: 0x48184, size: 0x8, addend: 0x0, symName: __ZNSt3__118__debug_db_erase_cB7v160006INS_6vectorINS_6threadENS_9allocatorIS2_EEEEEEvPT_, symObjAddr: 0x6AAD8, symBinAddr: 0x10006E258, symSize: 0x10 }
  - { offsetInCU: 0x481B5, offset: 0x481B5, size: 0x8, addend: 0x0, symName: __ZNSt3__112__to_addressB7v160006INS_6threadEEEPT_S3_, symObjAddr: 0x6AC1C, symBinAddr: 0x10006E39C, symSize: 0x14 }
  - { offsetInCU: 0x481EA, offset: 0x481EA, size: 0x8, addend: 0x0, symName: __ZNSt3__13minB7v160006IiNS_6__lessIiiEEEERKT_S5_S5_T0_, symObjAddr: 0x6AEBC, symBinAddr: 0x10006E63C, symSize: 0x54 }
  - { offsetInCU: 0x4827F, offset: 0x4827F, size: 0x8, addend: 0x0, symName: __ZNSt3__115allocate_sharedB7v160006IN6spdlog7details11thread_poolENS_9allocatorIS3_EEJRiiEvEENS_10shared_ptrIT_EERKT0_DpOT1_, symObjAddr: 0x6CD90, symBinAddr: 0x100070510, symSize: 0xA0 }
  - { offsetInCU: 0x48704, offset: 0x48704, size: 0x8, addend: 0x0, symName: __ZNSt3__116forward_as_tupleB7v160006IJZN6spdlog7details11thread_poolC1EmmEUlvE_EEENS_5tupleIJDpOT_EEES8_, symObjAddr: 0x6DD08, symBinAddr: 0x100071488, symSize: 0x2C }
  - { offsetInCU: 0x4873D, offset: 0x4873D, size: 0x8, addend: 0x0, symName: __ZNSt3__116forward_as_tupleB7v160006IJNS_9allocatorIZN6spdlog7details11thread_poolC1EmmEUlvE_EEEEENS_5tupleIJDpOT_EEESA_, symObjAddr: 0x6DD34, symBinAddr: 0x1000714B4, symSize: 0x2C }
  - { offsetInCU: 0x487A0, offset: 0x487A0, size: 0x8, addend: 0x0, symName: __ZNSt3__13getB7v160006ILm0EJOZN6spdlog7details11thread_poolC1EmmEUlvE_EEERNS_13tuple_elementIXT_ENS_5tupleIJDpT0_EEEE4typeERSA_, symObjAddr: 0x6E040, symBinAddr: 0x1000717C0, symSize: 0x24 }
  - { offsetInCU: 0x487E2, offset: 0x487E2, size: 0x8, addend: 0x0, symName: __ZNSt3__13getB7v160006ILm0EJONS_9allocatorIZN6spdlog7details11thread_poolC1EmmEUlvE_EEEEERNS_13tuple_elementIXT_ENS_5tupleIJDpT0_EEEE4typeERSC_, symObjAddr: 0x6E07C, symBinAddr: 0x1000717FC, symSize: 0x24 }
  - { offsetInCU: 0x48D08, offset: 0x48D08, size: 0x8, addend: 0x0, symName: __ZNSt3__116forward_as_tupleB7v160006IJRKZN6spdlog7details11thread_poolC1EmmEUlvE_EEENS_5tupleIJDpOT_EEESA_, symObjAddr: 0x6E610, symBinAddr: 0x100071D90, symSize: 0x2C }
  - { offsetInCU: 0x48D56, offset: 0x48D56, size: 0x8, addend: 0x0, symName: __ZNSt3__13getB7v160006ILm0EJRKZN6spdlog7details11thread_poolC1EmmEUlvE_EEERNS_13tuple_elementIXT_ENS_5tupleIJDpT0_EEEE4typeERSB_, symObjAddr: 0x6E7F4, symBinAddr: 0x100071F74, symSize: 0x24 }
  - { offsetInCU: 0x48D98, offset: 0x48D98, size: 0x8, addend: 0x0, symName: __ZNSt3__116forward_as_tupleB7v160006IJRKNS_9allocatorIZN6spdlog7details11thread_poolC1EmmEUlvE_EEEEENS_5tupleIJDpOT_EEESC_, symObjAddr: 0x6EB50, symBinAddr: 0x1000722D0, symSize: 0x2C }
  - { offsetInCU: 0x48DE6, offset: 0x48DE6, size: 0x8, addend: 0x0, symName: __ZNSt3__13getB7v160006ILm0EJRKNS_9allocatorIZN6spdlog7details11thread_poolC1EmmEUlvE_EEEEERNS_13tuple_elementIXT_ENS_5tupleIJDpT0_EEEE4typeERSD_, symObjAddr: 0x6ED34, symBinAddr: 0x1000724B4, symSize: 0x24 }
  - { offsetInCU: 0x48E79, offset: 0x48E79, size: 0x8, addend: 0x0, symName: __ZNSt3__18__invokeB7v160006IRZN6spdlog7details11thread_poolC1EmmEUlvE_JEEEDTclclsr3stdE7declvalIT_EEspclsr3stdE7declvalIT0_EEEEOS6_DpOS7_, symObjAddr: 0x6EDF0, symBinAddr: 0x100072570, symSize: 0x24 }
  - { offsetInCU: 0x49014, offset: 0x49014, size: 0x8, addend: 0x0, symName: __ZNSt3__116forward_as_tupleB7v160006IJZN6spdlog7details11thread_poolC1EmmEUlvE0_EEENS_5tupleIJDpOT_EEES8_, symObjAddr: 0x6F610, symBinAddr: 0x100072D90, symSize: 0x2C }
  - { offsetInCU: 0x4904D, offset: 0x4904D, size: 0x8, addend: 0x0, symName: __ZNSt3__116forward_as_tupleB7v160006IJNS_9allocatorIZN6spdlog7details11thread_poolC1EmmEUlvE0_EEEEENS_5tupleIJDpOT_EEESA_, symObjAddr: 0x6F63C, symBinAddr: 0x100072DBC, symSize: 0x2C }
  - { offsetInCU: 0x490B0, offset: 0x490B0, size: 0x8, addend: 0x0, symName: __ZNSt3__13getB7v160006ILm0EJOZN6spdlog7details11thread_poolC1EmmEUlvE0_EEERNS_13tuple_elementIXT_ENS_5tupleIJDpT0_EEEE4typeERSA_, symObjAddr: 0x6F948, symBinAddr: 0x1000730C8, symSize: 0x24 }
  - { offsetInCU: 0x490F2, offset: 0x490F2, size: 0x8, addend: 0x0, symName: __ZNSt3__13getB7v160006ILm0EJONS_9allocatorIZN6spdlog7details11thread_poolC1EmmEUlvE0_EEEEERNS_13tuple_elementIXT_ENS_5tupleIJDpT0_EEEE4typeERSC_, symObjAddr: 0x6F984, symBinAddr: 0x100073104, symSize: 0x24 }
  - { offsetInCU: 0x49618, offset: 0x49618, size: 0x8, addend: 0x0, symName: __ZNSt3__116forward_as_tupleB7v160006IJRKZN6spdlog7details11thread_poolC1EmmEUlvE0_EEENS_5tupleIJDpOT_EEESA_, symObjAddr: 0x6FF18, symBinAddr: 0x100073698, symSize: 0x2C }
  - { offsetInCU: 0x49666, offset: 0x49666, size: 0x8, addend: 0x0, symName: __ZNSt3__13getB7v160006ILm0EJRKZN6spdlog7details11thread_poolC1EmmEUlvE0_EEERNS_13tuple_elementIXT_ENS_5tupleIJDpT0_EEEE4typeERSB_, symObjAddr: 0x700FC, symBinAddr: 0x10007387C, symSize: 0x24 }
  - { offsetInCU: 0x496A8, offset: 0x496A8, size: 0x8, addend: 0x0, symName: __ZNSt3__116forward_as_tupleB7v160006IJRKNS_9allocatorIZN6spdlog7details11thread_poolC1EmmEUlvE0_EEEEENS_5tupleIJDpOT_EEESC_, symObjAddr: 0x70458, symBinAddr: 0x100073BD8, symSize: 0x2C }
  - { offsetInCU: 0x496F6, offset: 0x496F6, size: 0x8, addend: 0x0, symName: __ZNSt3__13getB7v160006ILm0EJRKNS_9allocatorIZN6spdlog7details11thread_poolC1EmmEUlvE0_EEEEERNS_13tuple_elementIXT_ENS_5tupleIJDpT0_EEEE4typeERSD_, symObjAddr: 0x7063C, symBinAddr: 0x100073DBC, symSize: 0x24 }
  - { offsetInCU: 0x49738, offset: 0x49738, size: 0x8, addend: 0x0, symName: __ZNSt3__18__invokeB7v160006IRZN6spdlog7details11thread_poolC1EmmEUlvE0_JEEEDTclclsr3stdE7declvalIT_EEspclsr3stdE7declvalIT0_EEEEOS6_DpOS7_, symObjAddr: 0x706F8, symBinAddr: 0x100073E78, symSize: 0x24 }
  - { offsetInCU: 0x49770, offset: 0x49770, size: 0x8, addend: 0x0, symName: __ZNSt3__122__make_exception_guardB7v160006INS_6vectorIN6spdlog7details9async_msgENS_9allocatorIS4_EEE16__destroy_vectorEEENS_28__exception_guard_exceptionsIT_EESA_, symObjAddr: 0x70E34, symBinAddr: 0x1000745B4, symSize: 0x40 }
  - { offsetInCU: 0x497A6, offset: 0x497A6, size: 0x8, addend: 0x0, symName: __ZNSt3__119__debug_db_insert_cB7v160006INS_6vectorIN6spdlog7details9async_msgENS_9allocatorIS4_EEEEEEvPT_, symObjAddr: 0x70EA8, symBinAddr: 0x100074628, symSize: 0x10 }
  - { offsetInCU: 0x497D7, offset: 0x497D7, size: 0x8, addend: 0x0, symName: __ZNSt3__119__allocate_at_leastB7v160006INS_9allocatorIN6spdlog7details9async_msgEEEEENS_19__allocation_resultINS_16allocator_traitsIT_E7pointerEEERS8_m, symObjAddr: 0x71238, symBinAddr: 0x1000749B8, symSize: 0x40 }
  - { offsetInCU: 0x4981A, offset: 0x4981A, size: 0x8, addend: 0x0, symName: __ZNSt3__112__to_addressB7v160006IN6spdlog7details9async_msgEEEPT_S5_, symObjAddr: 0x71588, symBinAddr: 0x100074D08, symSize: 0x14 }
  - { offsetInCU: 0x49850, offset: 0x49850, size: 0x8, addend: 0x0, symName: __ZNSt3__118__debug_db_erase_cB7v160006INS_6vectorIN6spdlog7details9async_msgENS_9allocatorIS4_EEEEEEvPT_, symObjAddr: 0x71A50, symBinAddr: 0x1000751D0, symSize: 0x10 }
  - { offsetInCU: 0x49C7E, offset: 0x49C7E, size: 0x8, addend: 0x0, symName: __ZNSt3__122__libcpp_thread_createB7v160006EPP17_opaque_pthread_tPFPvS3_ES3_, symObjAddr: 0x723E4, symBinAddr: 0x100075B64, symSize: 0x38 }
  - { offsetInCU: 0x49CCA, offset: 0x49CCA, size: 0x8, addend: 0x0, symName: __ZNSt3__114__thread_proxyB7v160006INS_5tupleIJNS_10unique_ptrINS_15__thread_structENS_14default_deleteIS3_EEEEZN6spdlog7details11thread_poolC1EmmNS_8functionIFvvEEESC_EUlvE_EEEEEPvSF_, symObjAddr: 0x7241C, symBinAddr: 0x100075B9C, symSize: 0x90 }
  - { offsetInCU: 0x49E11, offset: 0x49E11, size: 0x8, addend: 0x0, symName: __ZNSt3__13getB7v160006ILm0EJNS_10unique_ptrINS_15__thread_structENS_14default_deleteIS2_EEEEZN6spdlog7details11thread_poolC1EmmNS_8functionIFvvEEESB_EUlvE_EEERNS_13tuple_elementIXT_ENS_5tupleIJDpT0_EEEE4typeERSH_, symObjAddr: 0x72CF0, symBinAddr: 0x100076470, symSize: 0x24 }
  - { offsetInCU: 0x49E59, offset: 0x49E59, size: 0x8, addend: 0x0, symName: __ZNSt3__116__thread_executeB7v160006INS_10unique_ptrINS_15__thread_structENS_14default_deleteIS2_EEEEZN6spdlog7details11thread_poolC1EmmNS_8functionIFvvEEESB_EUlvE_JEJEEEvRNS_5tupleIJT_T0_DpT1_EEENS_15__tuple_indicesIJXspT2_EEEE, symObjAddr: 0x72D14, symBinAddr: 0x100076494, symSize: 0x28 }
  - { offsetInCU: 0x49EAB, offset: 0x49EAB, size: 0x8, addend: 0x0, symName: __ZNSt3__116__libcpp_tls_setB7v160006EmPv, symObjAddr: 0x72D3C, symBinAddr: 0x1000764BC, symSize: 0x2C }
  - { offsetInCU: 0x49EE8, offset: 0x49EE8, size: 0x8, addend: 0x0, symName: __ZNSt3__18__invokeB7v160006IZN6spdlog7details11thread_poolC1EmmNS_8functionIFvvEEES6_EUlvE_JEEEDTclclsr3stdE7declvalIT_EEspclsr3stdE7declvalIT0_EEEEOS8_DpOS9_, symObjAddr: 0x72D7C, symBinAddr: 0x1000764FC, symSize: 0x24 }
  - { offsetInCU: 0x49F20, offset: 0x49F20, size: 0x8, addend: 0x0, symName: __ZNSt3__13getB7v160006ILm1EJNS_10unique_ptrINS_15__thread_structENS_14default_deleteIS2_EEEEZN6spdlog7details11thread_poolC1EmmNS_8functionIFvvEEESB_EUlvE_EEERNS_13tuple_elementIXT_ENS_5tupleIJDpT0_EEEE4typeERSH_, symObjAddr: 0x72DA0, symBinAddr: 0x100076520, symSize: 0x28 }
  - { offsetInCU: 0x49F68, offset: 0x49F68, size: 0x8, addend: 0x0, symName: __ZNSt3__14swapB7v160006IPN6spdlog12async_loggerEEENS_9enable_ifIXaasr21is_move_constructibleIT_EE5valuesr18is_move_assignableIS5_EE5valueEvE4typeERS5_S8_, symObjAddr: 0x739D0, symBinAddr: 0x100077150, symSize: 0x3C }
  - { offsetInCU: 0x49FB9, offset: 0x49FB9, size: 0x8, addend: 0x0, symName: __ZNSt3__119__allocate_at_leastB7v160006INS_9allocatorINS_6threadEEEEENS_19__allocation_resultINS_16allocator_traitsIT_E7pointerEEERS6_m, symObjAddr: 0x745C8, symBinAddr: 0x100077D48, symSize: 0x40 }
  - { offsetInCU: 0x49FFC, offset: 0x49FFC, size: 0x8, addend: 0x0, symName: __ZNSt3__142__uninitialized_allocator_move_if_noexceptB7v160006INS_9allocatorINS_6threadEEENS_16reverse_iteratorIPS2_EES6_S6_EET2_RT_T0_T1_S7_, symObjAddr: 0x7477C, symBinAddr: 0x100077EFC, symSize: 0x12C }
  - { offsetInCU: 0x4A09C, offset: 0x4A09C, size: 0x8, addend: 0x0, symName: __ZNSt3__14swapB7v160006IPNS_6threadEEENS_9enable_ifIXaasr21is_move_constructibleIT_EE5valuesr18is_move_assignableIS4_EE5valueEvE4typeERS4_S7_, symObjAddr: 0x748F4, symBinAddr: 0x100078074, symSize: 0x3C }
  - { offsetInCU: 0x4A0EE, offset: 0x4A0EE, size: 0x8, addend: 0x0, symName: __ZNSt3__125__debug_db_invalidate_allB7v160006INS_6vectorINS_6threadENS_9allocatorIS2_EEEEEEvPT_, symObjAddr: 0x749DC, symBinAddr: 0x10007815C, symSize: 0x10 }
  - { offsetInCU: 0x4A11F, offset: 0x4A11F, size: 0x8, addend: 0x0, symName: __ZNSt3__122__make_exception_guardB7v160006INS_29_AllocatorDestroyRangeReverseINS_9allocatorINS_6threadEEENS_16reverse_iteratorIPS3_EEEEEENS_28__exception_guard_exceptionsIT_EESA_, symObjAddr: 0x749EC, symBinAddr: 0x10007816C, symSize: 0x4C }
  - { offsetInCU: 0x4A155, offset: 0x4A155, size: 0x8, addend: 0x0, symName: __ZNSt3__1neB7v160006IPNS_6threadES2_EEbRKNS_16reverse_iteratorIT_EERKNS3_IT0_EE, symObjAddr: 0x74A7C, symBinAddr: 0x1000781FC, symSize: 0x48 }
  - { offsetInCU: 0x4A1A1, offset: 0x4A1A1, size: 0x8, addend: 0x0, symName: __ZNSt3__112__to_addressB7v160006INS_16reverse_iteratorIPNS_6threadEEEvEENS_5decayIDTclsr19__to_address_helperIT_EE6__callclsr3stdE7declvalIRKS6_EEEEE4typeES8_, symObjAddr: 0x74AF8, symBinAddr: 0x100078278, symSize: 0x24 }
  - { offsetInCU: 0x4A201, offset: 0x4A201, size: 0x8, addend: 0x0, symName: __ZNSt3__119__allocator_destroyB7v160006INS_9allocatorINS_6threadEEENS_16reverse_iteratorINS4_IPS2_EEEES7_EEvRT_T0_T1_, symObjAddr: 0x74E38, symBinAddr: 0x1000785B8, symSize: 0x70 }
  - { offsetInCU: 0x4A266, offset: 0x4A266, size: 0x8, addend: 0x0, symName: __ZNSt3__1neB7v160006INS_16reverse_iteratorIPNS_6threadEEES4_EEbRKNS1_IT_EERKNS1_IT0_EE, symObjAddr: 0x74EE4, symBinAddr: 0x100078664, symSize: 0x60 }
  - { offsetInCU: 0x4A2B2, offset: 0x4A2B2, size: 0x8, addend: 0x0, symName: __ZNSt3__112__to_addressB7v160006INS_16reverse_iteratorINS1_IPNS_6threadEEEEEvEENS_5decayIDTclsr19__to_address_helperIT_EE6__callclsr3stdE7declvalIRKS7_EEEEE4typeES9_, symObjAddr: 0x74F44, symBinAddr: 0x1000786C4, symSize: 0x24 }
  - { offsetInCU: 0x4A312, offset: 0x4A312, size: 0x8, addend: 0x0, symName: __ZNSt3__122__cxx_atomic_fetch_addB7v160006ImEET_PNS_22__cxx_atomic_base_implIS1_EES1_NS_12memory_orderE, symObjAddr: 0x75D60, symBinAddr: 0x1000794E0, symSize: 0xC4 }
  - { offsetInCU: 0x4A39A, offset: 0x4A39A, size: 0x8, addend: 0x0, symName: __ZNSt3__115allocate_sharedB7v160006IN6spdlog5sinks15basic_file_sinkINS_5mutexEEENS_9allocatorIS5_EEJRPKcbEvEENS_10shared_ptrIT_EERKT0_DpOT1_, symObjAddr: 0x760CC, symBinAddr: 0x10007984C, symSize: 0xA0 }
  - { offsetInCU: 0x4A6BC, offset: 0x4A6BC, size: 0x8, addend: 0x0, symName: __ZNSt3__1plB7v160006IcNS_11char_traitsIcEENS_9allocatorIcEEEENS_12basic_stringIT_T0_T1_EEOS9_PKS6_, symObjAddr: 0x77B3C, symBinAddr: 0x10007B2BC, symSize: 0x40 }
  - { offsetInCU: 0x4A714, offset: 0x4A714, size: 0x8, addend: 0x0, symName: __ZNSt3__1plB7v160006IcNS_11char_traitsIcEENS_9allocatorIcEEEENS_12basic_stringIT_T0_T1_EEPKS6_OS9_, symObjAddr: 0x77B7C, symBinAddr: 0x10007B2FC, symSize: 0x44 }
  - { offsetInCU: 0x4A76C, offset: 0x4A76C, size: 0x8, addend: 0x0, symName: __ZNSt3__119__str_find_first_ofB7v160006IcmNS_11char_traitsIcEELm18446744073709551615EEET0_PKT_S3_S6_S3_S3_, symObjAddr: 0x77D54, symBinAddr: 0x10007B4D4, symSize: 0xF0 }
  - { offsetInCU: 0x4A813, offset: 0x4A813, size: 0x8, addend: 0x0, symName: __ZNSt3__118__find_first_of_ceB7v160006IPKcS2_RFbccEEET_S5_S5_T0_S6_OT1_, symObjAddr: 0x77E44, symBinAddr: 0x10007B5C4, symSize: 0xD0 }
  - { offsetInCU: 0x4A8AE, offset: 0x4A8AE, size: 0x8, addend: 0x0, symName: __ZNSt3__118__str_find_last_ofB7v160006IcmNS_11char_traitsIcEELm18446744073709551615EEET0_PKT_S3_S6_S3_S3_, symObjAddr: 0x77FB0, symBinAddr: 0x10007B730, symSize: 0xFC }
  - { offsetInCU: 0x4A980, offset: 0x4A980, size: 0x8, addend: 0x0, symName: __ZNSt3__123__constexpr_char_memchrB7v160006EPKcim, symObjAddr: 0x7811C, symBinAddr: 0x10007B89C, symSize: 0x34 }
  - { offsetInCU: 0x4A9CD, offset: 0x4A9CD, size: 0x8, addend: 0x0, symName: __ZNSt3__111this_thread9sleep_forB7v160006IxNS_5ratioILl1ELl1000EEEEEvRKNS_6chrono8durationIT_T0_EE, symObjAddr: 0x781D4, symBinAddr: 0x10007B954, symSize: 0xBC }
  - { offsetInCU: 0x4AF6F, offset: 0x4AF6F, size: 0x8, addend: 0x0, symName: __ZNSt3__113back_inserterB7v160006IN3fmt2v96detail6bufferIcEEEENS_20back_insert_iteratorIT_EERS7_, symObjAddr: 0x78DA0, symBinAddr: 0x10007C520, symSize: 0x2C }
  - { offsetInCU: 0x4AFD7, offset: 0x4AFD7, size: 0x8, addend: 0x0, symName: __ZNSt3__115allocate_sharedB7v160006IN6spdlog12async_loggerENS_9allocatorIS2_EEJRA13_KcNS_10shared_ptrINS1_5sinks15basic_file_sinkINS_5mutexEEEEENS8_INS1_7details11thread_poolEEENS1_21async_overflow_policyEEvEENS8_IT_EERKT0_DpOT1_, symObjAddr: 0x7C070, symBinAddr: 0x10007F7F0, symSize: 0xB0 }
  - { offsetInCU: 0x4B345, offset: 0x4B345, size: 0x8, addend: 0x0, symName: __ZNSt3__111make_sharedB7v160006IN6spdlog12async_loggerEJRS2_EvEENS_10shared_ptrIT_EEDpOT0_, symObjAddr: 0x7D56C, symBinAddr: 0x100080CEC, symSize: 0x40 }
  - { offsetInCU: 0x4B388, offset: 0x4B388, size: 0x8, addend: 0x0, symName: __ZNSt3__115allocate_sharedB7v160006IN6spdlog12async_loggerENS_9allocatorIS2_EEJRS2_EvEENS_10shared_ptrIT_EERKT0_DpOT1_, symObjAddr: 0x7D5AC, symBinAddr: 0x100080D2C, symSize: 0x98 }
  - { offsetInCU: 0x4B402, offset: 0x4B402, size: 0x8, addend: 0x0, symName: __ZNSt3__120__throw_bad_weak_ptrB7v160006Ev, symObjAddr: 0x7DC98, symBinAddr: 0x100081418, symSize: 0x38 }
  - { offsetInCU: 0x4B4DC, offset: 0x4B4DC, size: 0x8, addend: 0x0, symName: __ZNSt3__121__libcpp_relaxed_loadB7v160006IlEET_PKS1_, symObjAddr: 0x7E46C, symBinAddr: 0x100081BEC, symSize: 0x20 }
  - { offsetInCU: 0x4B511, offset: 0x4B511, size: 0x8, addend: 0x0, symName: __ZNSt3__116__pad_and_outputB7v160006IcNS_11char_traitsIcEEEENS_19ostreambuf_iteratorIT_T0_EES6_PKS4_S8_S8_RNS_8ios_baseES4_, symObjAddr: 0x7E8E0, symBinAddr: 0x100082060, symSize: 0x240 }
  - { offsetInCU: 0x4B5E0, offset: 0x4B5E0, size: 0x8, addend: 0x0, symName: __ZNSt3__19use_facetB7v160006INS_5ctypeIcEEEERKT_RKNS_6localeE, symObjAddr: 0x7EE74, symBinAddr: 0x1000825F4, symSize: 0x2C }
  - { offsetInCU: 0x4BEAE, offset: 0x4BEAE, size: 0x8, addend: 0x0, symName: __ZNSt3__114__thread_proxyB7v160006INS_5tupleIJNS_10unique_ptrINS_15__thread_structENS_14default_deleteIS3_EEEEPFvNS_10shared_ptrIN6spdlog6loggerEEEiESA_iEEEEEPvSE_, symObjAddr: 0x808CC, symBinAddr: 0x10008404C, symSize: 0x90 }
  - { offsetInCU: 0x4BF18, offset: 0x4BF18, size: 0x8, addend: 0x0, symName: __ZNSt3__13getB7v160006ILm0EJNS_10unique_ptrINS_15__thread_structENS_14default_deleteIS2_EEEEPFvNS_10shared_ptrIN6spdlog6loggerEEEiES9_iEEERNS_13tuple_elementIXT_ENS_5tupleIJDpT0_EEEE4typeERSG_, symObjAddr: 0x80C6C, symBinAddr: 0x1000843EC, symSize: 0x24 }
  - { offsetInCU: 0x4BF6A, offset: 0x4BF6A, size: 0x8, addend: 0x0, symName: __ZNSt3__116__thread_executeB7v160006INS_10unique_ptrINS_15__thread_structENS_14default_deleteIS2_EEEEPFvNS_10shared_ptrIN6spdlog6loggerEEEiEJS9_iEJLm2ELm3EEEEvRNS_5tupleIJT_T0_DpT1_EEENS_15__tuple_indicesIJXspT2_EEEE, symObjAddr: 0x80C90, symBinAddr: 0x100084410, symSize: 0x4C }
  - { offsetInCU: 0x4BFD4, offset: 0x4BFD4, size: 0x8, addend: 0x0, symName: __ZNSt3__18__invokeB7v160006IPFvNS_10shared_ptrIN6spdlog6loggerEEEiEJS4_iEEEDTclclsr3stdE7declvalIT_EEspclsr3stdE7declvalIT0_EEEEOS7_DpOS8_, symObjAddr: 0x80CDC, symBinAddr: 0x10008445C, symSize: 0x80 }
  - { offsetInCU: 0x4C035, offset: 0x4C035, size: 0x8, addend: 0x0, symName: __ZNSt3__13getB7v160006ILm1EJNS_10unique_ptrINS_15__thread_structENS_14default_deleteIS2_EEEEPFvNS_10shared_ptrIN6spdlog6loggerEEEiES9_iEEERNS_13tuple_elementIXT_ENS_5tupleIJDpT0_EEEE4typeERSG_, symObjAddr: 0x80D5C, symBinAddr: 0x1000844DC, symSize: 0x28 }
  - { offsetInCU: 0x4C087, offset: 0x4C087, size: 0x8, addend: 0x0, symName: __ZNSt3__13getB7v160006ILm2EJNS_10unique_ptrINS_15__thread_structENS_14default_deleteIS2_EEEEPFvNS_10shared_ptrIN6spdlog6loggerEEEiES9_iEEERNS_13tuple_elementIXT_ENS_5tupleIJDpT0_EEEE4typeERSG_, symObjAddr: 0x80D84, symBinAddr: 0x100084504, symSize: 0x28 }
  - { offsetInCU: 0x4C0D9, offset: 0x4C0D9, size: 0x8, addend: 0x0, symName: __ZNSt3__13getB7v160006ILm3EJNS_10unique_ptrINS_15__thread_structENS_14default_deleteIS2_EEEEPFvNS_10shared_ptrIN6spdlog6loggerEEEiES9_iEEERNS_13tuple_elementIXT_ENS_5tupleIJDpT0_EEEE4typeERSG_, symObjAddr: 0x80DAC, symBinAddr: 0x10008452C, symSize: 0x28 }
  - { offsetInCU: 0x4CC74, offset: 0x4CC74, size: 0x8, addend: 0x0, symName: __ZSt28__throw_bad_array_new_lengthB7v160006v, symObjAddr: 0x45A4, symBinAddr: 0x100007D24, symSize: 0x34 }
  - { offsetInCU: 0x4D4F3, offset: 0x4D4F3, size: 0x8, addend: 0x0, symName: __ZN3fmt2v96detail15do_count_digitsEy, symObjAddr: 0x9004, symBinAddr: 0x10000C784, symSize: 0x60 }
  - { offsetInCU: 0x4D51E, offset: 0x4D51E, size: 0x8, addend: 0x0, symName: __ZZN3fmt2v96detail15do_count_digitsEyE9bsr2log10, symObjAddr: 0x88226, symBinAddr: 0x10008C696, symSize: 0x0 }
  - { offsetInCU: 0x4D534, offset: 0x4D534, size: 0x8, addend: 0x0, symName: __ZZN3fmt2v96detail15do_count_digitsEyE20zero_or_powers_of_10, symObjAddr: 0x88268, symBinAddr: 0x10008C6D8, symSize: 0x0 }
  - { offsetInCU: 0x4D55C, offset: 0x4D55C, size: 0x8, addend: 0x0, symName: __ZN3fmt2v96detail12is_printableEj, symObjAddr: 0xE6D0, symBinAddr: 0x100011E50, symSize: 0x330 }
  - { offsetInCU: 0x4D587, offset: 0x4D587, size: 0x8, addend: 0x0, symName: __ZZN3fmt2v96detail12is_printableEjE11singletons0, symObjAddr: 0x88372, symBinAddr: 0x10008C7E2, symSize: 0x0 }
  - { offsetInCU: 0x4D59D, offset: 0x4D59D, size: 0x8, addend: 0x0, symName: __ZZN3fmt2v96detail12is_printableEjE17singletons0_lower, symObjAddr: 0x883C4, symBinAddr: 0x10008C834, symSize: 0x0 }
  - { offsetInCU: 0x4D5B3, offset: 0x4D5B3, size: 0x8, addend: 0x0, symName: __ZZN3fmt2v96detail12is_printableEjE11singletons1, symObjAddr: 0x884E6, symBinAddr: 0x10008C956, symSize: 0x0 }
  - { offsetInCU: 0x4D5C9, offset: 0x4D5C9, size: 0x8, addend: 0x0, symName: __ZZN3fmt2v96detail12is_printableEjE17singletons1_lower, symObjAddr: 0x88532, symBinAddr: 0x10008C9A2, symSize: 0x0 }
  - { offsetInCU: 0x4D5DF, offset: 0x4D5DF, size: 0x8, addend: 0x0, symName: __ZZN3fmt2v96detail12is_printableEjE7normal0, symObjAddr: 0x885E1, symBinAddr: 0x10008CA51, symSize: 0x0 }
  - { offsetInCU: 0x4D5F5, offset: 0x4D5F5, size: 0x8, addend: 0x0, symName: __ZZN3fmt2v96detail12is_printableEjE7normal1, symObjAddr: 0x88716, symBinAddr: 0x10008CB86, symSize: 0x0 }
  - { offsetInCU: 0x4D9D0, offset: 0x4D9D0, size: 0x8, addend: 0x0, symName: __ZN3fmt2v96detail9dragonbox10to_decimalIfEENS2_10decimal_fpIT_EES5_, symObjAddr: 0xF754, symBinAddr: 0x100012ED4, symSize: 0x890 }
  - { offsetInCU: 0x4DC6F, offset: 0x4DC6F, size: 0x8, addend: 0x0, symName: __ZN3fmt2v96detail9dragonbox10to_decimalIdEENS2_10decimal_fpIT_EES5_, symObjAddr: 0x130A0, symBinAddr: 0x100016820, symSize: 0xB5C }
  - { offsetInCU: 0x4E0FE, offset: 0x4E0FE, size: 0x8, addend: 0x0, symName: __ZN3fmt2v96detail9dragonbox16floor_log10_pow2Ei, symObjAddr: 0x10378, symBinAddr: 0x100013AF8, symSize: 0x80 }
  - { offsetInCU: 0x4E12A, offset: 0x4E12A, size: 0x8, addend: 0x0, symName: __ZN3fmt2v96detail9dragonbox16floor_log2_pow10Ei, symObjAddr: 0x10478, symBinAddr: 0x100013BF8, symSize: 0x80 }
  - { offsetInCU: 0x4E156, offset: 0x4E156, size: 0x8, addend: 0x0, symName: __ZN3fmt2v96detail9dragonbox28divide_by_10_to_kappa_plus_1Ej, symObjAddr: 0x10580, symBinAddr: 0x100013D00, symSize: 0x28 }
  - { offsetInCU: 0x4E184, offset: 0x4E184, size: 0x8, addend: 0x0, symName: __ZN3fmt2v96detail9dragonbox38check_divisibility_and_divide_by_pow10ILi1EEEbRj, symObjAddr: 0x106A4, symBinAddr: 0x100013E24, symSize: 0xC0 }
  - { offsetInCU: 0x4E1F6, offset: 0x4E1F6, size: 0x8, addend: 0x0, symName: __ZN3fmt2v96detail9dragonbox37floor_log10_pow2_minus_log10_4_over_3Ei, symObjAddr: 0x10764, symBinAddr: 0x100013EE4, symSize: 0x8C }
  - { offsetInCU: 0x4E222, offset: 0x4E222, size: 0x8, addend: 0x0, symName: __ZN3fmt2v96detail9dragonbox41is_left_endpoint_integer_shorter_intervalIfEEbi, symObjAddr: 0x108E0, symBinAddr: 0x100014060, symSize: 0x58 }
  - { offsetInCU: 0x4E277, offset: 0x4E277, size: 0x8, addend: 0x0, symName: __ZN3fmt2v96detail9dragonbox14umul96_upper64Ejy, symObjAddr: 0x10990, symBinAddr: 0x100014110, symSize: 0x30 }
  - { offsetInCU: 0x4E2B1, offset: 0x4E2B1, size: 0x8, addend: 0x0, symName: __ZN3fmt2v96detail9dragonbox15umul128_upper64Eyy, symObjAddr: 0x109C0, symBinAddr: 0x100014140, symSize: 0x50 }
  - { offsetInCU: 0x4E2F9, offset: 0x4E2F9, size: 0x8, addend: 0x0, symName: __ZN3fmt2v96detail9dragonbox14umul96_lower64Ejy, symObjAddr: 0x10A10, symBinAddr: 0x100014190, symSize: 0x20 }
  - { offsetInCU: 0x4E4C5, offset: 0x4E4C5, size: 0x8, addend: 0x0, symName: __ZN3fmt2v96detail9dragonbox28divide_by_10_to_kappa_plus_1Ey, symObjAddr: 0x13FFC, symBinAddr: 0x10001777C, symSize: 0x38 }
  - { offsetInCU: 0x4E4F3, offset: 0x4E4F3, size: 0x8, addend: 0x0, symName: __ZN3fmt2v96detail9dragonbox38check_divisibility_and_divide_by_pow10ILi2EEEbRj, symObjAddr: 0x14178, symBinAddr: 0x1000178F8, symSize: 0xC0 }
  - { offsetInCU: 0x4E565, offset: 0x4E565, size: 0x8, addend: 0x0, symName: __ZN3fmt2v96detail9dragonbox41is_left_endpoint_integer_shorter_intervalIdEEbi, symObjAddr: 0x14328, symBinAddr: 0x100017AA8, symSize: 0x58 }
  - { offsetInCU: 0x4E5BA, offset: 0x4E5BA, size: 0x8, addend: 0x0, symName: __ZN3fmt2v96detail9dragonbox16umul192_upper128EyNS1_16uint128_fallbackE, symObjAddr: 0x14544, symBinAddr: 0x100017CC4, symSize: 0x8C }
  - { offsetInCU: 0x4E602, offset: 0x4E602, size: 0x8, addend: 0x0, symName: __ZN3fmt2v96detail9dragonbox16umul192_lower128EyNS1_16uint128_fallbackE, symObjAddr: 0x145D0, symBinAddr: 0x100017D50, symSize: 0xC0 }
  - { offsetInCU: 0x4E787, offset: 0x4E787, size: 0x8, addend: 0x0, symName: __ZN3fmt2v96detail10basic_dataIvE18pow10_significandsE, symObjAddr: 0x88DE0, symBinAddr: 0x10008D250, symSize: 0x0 }
  - { offsetInCU: 0x4E7D3, offset: 0x4E7D3, size: 0x8, addend: 0x0, symName: __ZN3fmt2v96detail10basic_dataIvE15pow10_exponentsE, symObjAddr: 0x89098, symBinAddr: 0x10008D508, symSize: 0x0 }
  - { offsetInCU: 0x4E7E7, offset: 0x4E7E7, size: 0x8, addend: 0x0, symName: __ZN3fmt2v96detail10basic_dataIvE14power_of_10_64E, symObjAddr: 0x89148, symBinAddr: 0x10008D5B8, symSize: 0x0 }
  - { offsetInCU: 0x4E806, offset: 0x4E806, size: 0x8, addend: 0x0, symName: __ZN3fmt2v96detail17format_error_codeERNS1_6bufferIcEEiNS0_17basic_string_viewIcEE, symObjAddr: 0x78DCC, symBinAddr: 0x10007C54C, symSize: 0x41C }
  - { offsetInCU: 0x4E82C, offset: 0x4E82C, size: 0x8, addend: 0x0, symName: __ZZN3fmt2v96detail17format_error_codeERNS1_6bufferIcEEiNS0_17basic_string_viewIcEEE3SEP, symObjAddr: 0x8A9FD, symBinAddr: 0x10008EE6D, symSize: 0x0 }
  - { offsetInCU: 0x4E842, offset: 0x4E842, size: 0x8, addend: 0x0, symName: __ZZN3fmt2v96detail17format_error_codeERNS1_6bufferIcEEiNS0_17basic_string_viewIcEEE9ERROR_STR, symObjAddr: 0x8AA00, symBinAddr: 0x10008EE70, symSize: 0x0 }
  - { offsetInCU: 0x4EE06, offset: 0x4EE06, size: 0x8, addend: 0x0, symName: __ZN3fmt2v96detail13get_containerINS0_19basic_memory_bufferIcLm250ENSt3__19allocatorIcEEEEEERT_NS4_20back_insert_iteratorIS8_EE, symObjAddr: 0x77A0, symBinAddr: 0x10000AF20, symSize: 0x34 }
  - { offsetInCU: 0x4F2C7, offset: 0x4F2C7, size: 0x8, addend: 0x0, symName: __ZN3fmt2v96detail13get_containerINS1_6bufferIcEEEERT_NSt3__120back_insert_iteratorIS5_EE, symObjAddr: 0x8904, symBinAddr: 0x10000C084, symSize: 0x34 }
  - { offsetInCU: 0x4F4D1, offset: 0x4F4D1, size: 0x8, addend: 0x0, symName: __ZN3fmt2v96detail5writeIcNS0_8appenderEfLi0EEET0_S4_T1_, symObjAddr: 0xF3CC, symBinAddr: 0x100012B4C, symSize: 0x158 }
  - { offsetInCU: 0x4F5C0, offset: 0x4F5C0, size: 0x8, addend: 0x0, symName: __ZN3fmt2v96detail13exponent_maskIfEENS1_9dragonbox10float_infoIT_vE12carrier_uintEv, symObjAddr: 0xF53C, symBinAddr: 0x100012CBC, symSize: 0x1C }
  - { offsetInCU: 0x4F5F4, offset: 0x4F5F4, size: 0x8, addend: 0x0, symName: __ZN3fmt2v96detail5writeIcNS0_8appenderEdLi0EEET0_S4_T1_, symObjAddr: 0x12ECC, symBinAddr: 0x10001664C, symSize: 0x158 }
  - { offsetInCU: 0x4F6E3, offset: 0x4F6E3, size: 0x8, addend: 0x0, symName: __ZN3fmt2v96detail13exponent_maskIdEENS1_9dragonbox10float_infoIT_vE12carrier_uintEv, symObjAddr: 0x1303C, symBinAddr: 0x1000167BC, symSize: 0x20 }
  - { offsetInCU: 0x4F717, offset: 0x4F717, size: 0x8, addend: 0x0, symName: __ZN3fmt2v96detail5writeIcNS0_8appenderEeLi0EEET0_S4_T1_, symObjAddr: 0x16430, symBinAddr: 0x100019BB0, symSize: 0x158 }
  - { offsetInCU: 0x4F806, offset: 0x4F806, size: 0x8, addend: 0x0, symName: __ZN3fmt2v96detail23parse_replacement_fieldIcRZNS1_10vformat_toIcEEvRNS1_6bufferIT_EENS0_17basic_string_viewIS5_EENS0_17basic_format_argsINS0_20basic_format_contextINSt3__111conditionalIXsr3std7is_sameINS0_13type_identityIS5_E4typeEcEE5valueENS0_8appenderENSC_20back_insert_iteratorINS4_ISG_EEEEE4typeESG_EEEENS1_10locale_refEE14format_handlerEEPKS5_ST_ST_OT0_, symObjAddr: 0x17118, symBinAddr: 0x10001A898, symSize: 0x9D0 }
  - { offsetInCU: 0x4FA01, offset: 0x4FA01, size: 0x8, addend: 0x0, symName: __ZN3fmt2v96detail10vformat_toIcEEvRNS1_6bufferIT_EENS0_17basic_string_viewIS4_EENS0_17basic_format_argsINS0_20basic_format_contextINSt3__111conditionalIXsr3std7is_sameINS0_13type_identityIS4_E4typeEcEE5valueENS0_8appenderENSB_20back_insert_iteratorINS3_ISF_EEEEE4typeESF_EEEENS1_10locale_refE, symObjAddr: 0x70C4, symBinAddr: 0x10000A844, symSize: 0x5F8 }
  - { offsetInCU: 0x50B9D, offset: 0x50B9D, size: 0x8, addend: 0x0, symName: __ZN3fmt2v96detail11utf8_decodeEPKcPjPi, symObjAddr: 0x2A808, symBinAddr: 0x10002DF88, symSize: 0x2A8 }
  - { offsetInCU: 0x50C53, offset: 0x50C53, size: 0x8, addend: 0x0, symName: __ZN3fmt2v96detail13compute_widthENS0_17basic_string_viewIcEE, symObjAddr: 0x29D5C, symBinAddr: 0x10002D4DC, symSize: 0x48 }
  - { offsetInCU: 0x50CC4, offset: 0x50CC4, size: 0x8, addend: 0x0, symName: __ZN3fmt2v96detail23parse_replacement_fieldIcRNS1_21format_string_checkerIcNS1_13error_handlerEJiEEEEEPKT_S9_S9_OT0_, symObjAddr: 0x2BCDC, symBinAddr: 0x10002F45C, symSize: 0x27C }
  - { offsetInCU: 0x513FA, offset: 0x513FA, size: 0x8, addend: 0x0, symName: __ZN3fmt2v96detail23parse_replacement_fieldIcRNS1_21format_string_checkerIcNS1_13error_handlerEJPKcS6_iEEEEEPKT_SB_SB_OT0_, symObjAddr: 0x3C024, symBinAddr: 0x10003F7A4, symSize: 0x27C }
  - { offsetInCU: 0x51691, offset: 0x51691, size: 0x8, addend: 0x0, symName: __ZN3fmt2v96detail23parse_replacement_fieldIcRNS1_21format_string_checkerIcNS1_13error_handlerEJNS0_17basic_string_viewIcEEA3_cEEEEEPKT_SC_SC_OT0_, symObjAddr: 0x79A98, symBinAddr: 0x10007D218, symSize: 0x27C }
  - { offsetInCU: 0x51917, offset: 0x51917, size: 0x8, addend: 0x0, symName: __ZN3fmt2v96detail23parse_replacement_fieldIcRNS1_21format_string_checkerIcNS1_13error_handlerEJA7_ciEEEEEPKT_SA_SA_OT0_, symObjAddr: 0x7B09C, symBinAddr: 0x10007E81C, symSize: 0x27C }
  - { offsetInCU: 0x51E03, offset: 0x51E03, size: 0x8, addend: 0x0, symName: __ZN3fmt2v96detail16abort_fuzzing_ifEb, symObjAddr: 0x5C90, symBinAddr: 0x100009410, symSize: 0x28 }
  - { offsetInCU: 0x51E2B, offset: 0x51E2B, size: 0x8, addend: 0x0, symName: __ZN3fmt2v96detail12make_checkedIcEEPT_S4_m, symObjAddr: 0x5D90, symBinAddr: 0x100009510, symSize: 0x18 }
  - { offsetInCU: 0x51E6F, offset: 0x51E6F, size: 0x8, addend: 0x0, symName: __ZN3fmt2v96detail13ignore_unusedIJbEEEvDpRKT_, symObjAddr: 0x5DE8, symBinAddr: 0x100009568, symSize: 0x10 }
  - { offsetInCU: 0x51EDD, offset: 0x51EDD, size: 0x8, addend: 0x0, symName: __ZN3fmt2v96detail14format_decimalIcjEENS1_21format_decimal_resultIPT_EES5_T0_i, symObjAddr: 0x6BF0, symBinAddr: 0x10000A370, symSize: 0x190 }
  - { offsetInCU: 0x51FC3, offset: 0x51FC3, size: 0x8, addend: 0x0, symName: __ZN3fmt2v96detail12count_digitsEj, symObjAddr: 0x6D80, symBinAddr: 0x10000A500, symSize: 0x4C }
  - { offsetInCU: 0x52018, offset: 0x52018, size: 0x8, addend: 0x0, symName: __ZN3fmt2v96detail11assert_failEPKciS3_, symObjAddr: 0x6DCC, symBinAddr: 0x10000A54C, symSize: 0x54 }
  - { offsetInCU: 0x5205C, offset: 0x5205C, size: 0x8, addend: 0x0, symName: __ZN3fmt2v96detail7digits2Em, symObjAddr: 0x6E20, symBinAddr: 0x10000A5A0, symSize: 0x20 }
  - { offsetInCU: 0x5208A, offset: 0x5208A, size: 0x8, addend: 0x0, symName: __ZN3fmt2v96detail11to_unsignedIlEENSt3__113make_unsignedIT_E4typeES5_, symObjAddr: 0x6E40, symBinAddr: 0x10000A5C0, symSize: 0x50 }
  - { offsetInCU: 0x5242C, offset: 0x5242C, size: 0x8, addend: 0x0, symName: __ZN3fmt2v96detail10get_bufferIcNSt3__120back_insert_iteratorINS0_19basic_memory_bufferIcLm250ENS3_9allocatorIcEEEEEEEENS1_15iterator_bufferIT0_T_NS1_13buffer_traitsEEESB_, symObjAddr: 0x7080, symBinAddr: 0x10000A800, symSize: 0x44 }
  - { offsetInCU: 0x527C5, offset: 0x527C5, size: 0x8, addend: 0x0, symName: __ZN3fmt2v96detail12get_iteratorINS1_15iterator_bufferINSt3__120back_insert_iteratorINS0_19basic_memory_bufferIcLm250ENS4_9allocatorIcEEEEEEcNS1_13buffer_traitsEEEEEDTcldtfp_3outEERT_, symObjAddr: 0x7728, symBinAddr: 0x10000AEA8, symSize: 0x2C }
  - { offsetInCU: 0x527FC, offset: 0x527FC, size: 0x8, addend: 0x0, symName: __ZN3fmt2v96detail6equal2EPKcS3_, symObjAddr: 0x7A40, symBinAddr: 0x10000B1C0, symSize: 0x3C }
  - { offsetInCU: 0x52839, offset: 0x52839, size: 0x8, addend: 0x0, symName: __ZN3fmt2v96detail18throw_format_errorEPKc, symObjAddr: 0x7DF0, symBinAddr: 0x10000B570, symSize: 0x64 }
  - { offsetInCU: 0x52861, offset: 0x52861, size: 0x8, addend: 0x0, symName: __ZN3fmt2v96detail17convert_for_visitInEET_S3_, symObjAddr: 0x80B4, symBinAddr: 0x10000B834, symSize: 0x2C }
  - { offsetInCU: 0x52898, offset: 0x52898, size: 0x8, addend: 0x0, symName: __ZN3fmt2v96detail17convert_for_visitIoEET_S3_, symObjAddr: 0x8138, symBinAddr: 0x10000B8B8, symSize: 0x2C }
  - { offsetInCU: 0x528CF, offset: 0x528CF, size: 0x8, addend: 0x0, symName: __ZN3fmt2v96detail5writeIcNS0_8appenderEiLi0EEET0_S4_T1_, symObjAddr: 0x8540, symBinAddr: 0x10000BCC0, symSize: 0x1A4 }
  - { offsetInCU: 0x5298D, offset: 0x5298D, size: 0x8, addend: 0x0, symName: __ZN3fmt2v96detail11is_negativeIiLi0EEEbT_, symObjAddr: 0x86E4, symBinAddr: 0x10000BE64, symSize: 0x20 }
  - { offsetInCU: 0x529CA, offset: 0x529CA, size: 0x8, addend: 0x0, symName: __ZN3fmt2v96detail7reserveINS0_8appenderEEERT_S5_m, symObjAddr: 0x8704, symBinAddr: 0x10000BE84, symSize: 0x18 }
  - { offsetInCU: 0x52A0D, offset: 0x52A0D, size: 0x8, addend: 0x0, symName: __ZN3fmt2v96detail10to_pointerIcEEPT_NSt3__111conditionalIXsr3std7is_sameIS3_cEE5valueENS0_8appenderENS5_20back_insert_iteratorINS1_6bufferIS3_EEEEE4typeEm, symObjAddr: 0x871C, symBinAddr: 0x10000BE9C, symSize: 0x9C }
  - { offsetInCU: 0x52A71, offset: 0x52A71, size: 0x8, addend: 0x0, symName: __ZN3fmt2v96detail14format_decimalIcjNS0_8appenderELi0EEENS1_21format_decimal_resultIT1_EES5_T0_i, symObjAddr: 0x8828, symBinAddr: 0x10000BFA8, symSize: 0xBC }
  - { offsetInCU: 0x52AFC, offset: 0x52AFC, size: 0x8, addend: 0x0, symName: __ZN3fmt2v96detail13base_iteratorINS0_8appenderEEET_S4_S4_, symObjAddr: 0x88E4, symBinAddr: 0x10000C064, symSize: 0x20 }
  - { offsetInCU: 0x52B3F, offset: 0x52B3F, size: 0x8, addend: 0x0, symName: __ZN3fmt2v96detail17copy_str_noinlineIcPcNS0_8appenderEEET1_T0_S6_S5_, symObjAddr: 0x898C, symBinAddr: 0x10000C10C, symSize: 0x44 }
  - { offsetInCU: 0x52BA6, offset: 0x52BA6, size: 0x8, addend: 0x0, symName: __ZN3fmt2v96detail8copy_strIcPcEENS0_8appenderET0_S5_S4_, symObjAddr: 0x89D0, symBinAddr: 0x10000C150, symSize: 0x4C }
  - { offsetInCU: 0x52C04, offset: 0x52C04, size: 0x8, addend: 0x0, symName: __ZN3fmt2v96detail5writeIcNS0_8appenderEjLi0EEET0_S4_T1_, symObjAddr: 0x8A1C, symBinAddr: 0x10000C19C, symSize: 0x1A4 }
  - { offsetInCU: 0x52CC2, offset: 0x52CC2, size: 0x8, addend: 0x0, symName: __ZN3fmt2v96detail11is_negativeIjLi0EEEbT_, symObjAddr: 0x8BC0, symBinAddr: 0x10000C340, symSize: 0x18 }
  - { offsetInCU: 0x52CFC, offset: 0x52CFC, size: 0x8, addend: 0x0, symName: __ZN3fmt2v96detail5writeIcNS0_8appenderExLi0EEET0_S4_T1_, symObjAddr: 0x8BD8, symBinAddr: 0x10000C358, symSize: 0x1A4 }
  - { offsetInCU: 0x52DBA, offset: 0x52DBA, size: 0x8, addend: 0x0, symName: __ZN3fmt2v96detail11is_negativeIxLi0EEEbT_, symObjAddr: 0x8D7C, symBinAddr: 0x10000C4FC, symSize: 0x20 }
  - { offsetInCU: 0x52DF7, offset: 0x52DF7, size: 0x8, addend: 0x0, symName: __ZN3fmt2v96detail12count_digitsEy, symObjAddr: 0x8D9C, symBinAddr: 0x10000C51C, symSize: 0x24 }
  - { offsetInCU: 0x52E25, offset: 0x52E25, size: 0x8, addend: 0x0, symName: __ZN3fmt2v96detail14format_decimalIcyEENS1_21format_decimal_resultIPT_EES5_T0_i, symObjAddr: 0x8DC0, symBinAddr: 0x10000C540, symSize: 0x188 }
  - { offsetInCU: 0x52EDE, offset: 0x52EDE, size: 0x8, addend: 0x0, symName: __ZN3fmt2v96detail14format_decimalIcyNS0_8appenderELi0EEENS1_21format_decimal_resultIT1_EES5_T0_i, symObjAddr: 0x8F48, symBinAddr: 0x10000C6C8, symSize: 0xBC }
  - { offsetInCU: 0x52F6A, offset: 0x52F6A, size: 0x8, addend: 0x0, symName: __ZN3fmt2v96detail5writeIcNS0_8appenderEyLi0EEET0_S4_T1_, symObjAddr: 0x9064, symBinAddr: 0x10000C7E4, symSize: 0x1A4 }
  - { offsetInCU: 0x53028, offset: 0x53028, size: 0x8, addend: 0x0, symName: __ZN3fmt2v96detail11is_negativeIyLi0EEEbT_, symObjAddr: 0x9208, symBinAddr: 0x10000C988, symSize: 0x18 }
  - { offsetInCU: 0x53062, offset: 0x53062, size: 0x8, addend: 0x0, symName: __ZN3fmt2v96detail5writeIcNS0_8appenderEnLi0EEET0_S4_T1_, symObjAddr: 0x9220, symBinAddr: 0x10000C9A0, symSize: 0x1A4 }
  - { offsetInCU: 0x53122, offset: 0x53122, size: 0x8, addend: 0x0, symName: __ZN3fmt2v96detail11is_negativeInLi0EEEbT_, symObjAddr: 0x93C4, symBinAddr: 0x10000CB44, symSize: 0x58 }
  - { offsetInCU: 0x5315F, offset: 0x5315F, size: 0x8, addend: 0x0, symName: __ZN3fmt2v96detail12count_digitsEo, symObjAddr: 0x941C, symBinAddr: 0x10000CB9C, symSize: 0x3C }
  - { offsetInCU: 0x5318D, offset: 0x5318D, size: 0x8, addend: 0x0, symName: __ZN3fmt2v96detail14format_decimalIcoEENS1_21format_decimal_resultIPT_EES5_T0_i, symObjAddr: 0x9458, symBinAddr: 0x10000CBD8, symSize: 0x1C0 }
  - { offsetInCU: 0x53247, offset: 0x53247, size: 0x8, addend: 0x0, symName: __ZN3fmt2v96detail14format_decimalIcoNS0_8appenderELi0EEENS1_21format_decimal_resultIT1_EES5_T0_i, symObjAddr: 0x9618, symBinAddr: 0x10000CD98, symSize: 0xD4 }
  - { offsetInCU: 0x532D4, offset: 0x532D4, size: 0x8, addend: 0x0, symName: __ZN3fmt2v96detail21count_digits_fallbackIoEEiT_, symObjAddr: 0x96EC, symBinAddr: 0x10000CE6C, symSize: 0x1C0 }
  - { offsetInCU: 0x5331A, offset: 0x5331A, size: 0x8, addend: 0x0, symName: __ZN3fmt2v96detail5writeIcNS0_8appenderEoLi0EEET0_S4_T1_, symObjAddr: 0x98AC, symBinAddr: 0x10000D02C, symSize: 0x1A4 }
  - { offsetInCU: 0x533DA, offset: 0x533DA, size: 0x8, addend: 0x0, symName: __ZN3fmt2v96detail11is_negativeIoLi0EEEbT_, symObjAddr: 0x9A50, symBinAddr: 0x10000D1D0, symSize: 0x20 }
  - { offsetInCU: 0x5347C, offset: 0x5347C, size: 0x8, addend: 0x0, symName: __ZN3fmt2v96detail5writeIcNS0_8appenderEbLi0EEET0_S4_T1_RKNS0_18basic_format_specsIT_EENS1_10locale_refE, symObjAddr: 0x9A70, symBinAddr: 0x10000D1F0, symSize: 0x18C }
  - { offsetInCU: 0x5357D, offset: 0x5357D, size: 0x8, addend: 0x0, symName: __ZN3fmt2v96detail11write_bytesILNS0_5align4typeE1EcNS0_8appenderEEET1_S6_NS0_17basic_string_viewIcEERKNS0_18basic_format_specsIT0_EE, symObjAddr: 0x9C28, symBinAddr: 0x10000D3A8, symSize: 0x64 }
  - { offsetInCU: 0x53AD0, offset: 0x53AD0, size: 0x8, addend: 0x0, symName: __ZN3fmt2v96detail18write_int_noinlineIcNS0_8appenderEjEET0_S4_NS1_13write_int_argIT1_EERKNS0_18basic_format_specsIT_EENS1_10locale_refE, symObjAddr: 0x9C8C, symBinAddr: 0x10000D40C, symSize: 0x974 }
  - { offsetInCU: 0x53E00, offset: 0x53E00, size: 0x8, addend: 0x0, symName: __ZN3fmt2v96detail18make_write_int_argIiEENS1_13write_int_argINSt3__111conditionalIXaalecl8num_bitsIT_EELi32EntLi0EEjNS5_IXlecl8num_bitsIS6_EELi64EEyoE4typeEE4typeEEES6_NS0_4sign4typeE, symObjAddr: 0xA640, symBinAddr: 0x10000DDC0, symSize: 0xD0 }
  - { offsetInCU: 0x53E81, offset: 0x53E81, size: 0x8, addend: 0x0, symName: __ZN3fmt2v96detail19write_int_localizedINS0_8appenderEycEEbRT_T0_jRKNS0_18basic_format_specsIT1_EENS1_10locale_refE, symObjAddr: 0xA710, symBinAddr: 0x10000DE90, symSize: 0xBC }
  - { offsetInCU: 0x53F16, offset: 0x53F16, size: 0x8, addend: 0x0, symName: __ZN3fmt2v96detail13prefix_appendERjj, symObjAddr: 0xA7CC, symBinAddr: 0x10000DF4C, symSize: 0x8C }
  - { offsetInCU: 0x53F4F, offset: 0x53F4F, size: 0x8, addend: 0x0, symName: __ZN3fmt2v96detail12count_digitsILi4EjEEiT0_, symObjAddr: 0xA858, symBinAddr: 0x10000DFD8, symSize: 0x2C }
  - { offsetInCU: 0x53F90, offset: 0x53F90, size: 0x8, addend: 0x0, symName: __ZN3fmt2v96detail12count_digitsILi1EjEEiT0_, symObjAddr: 0xA884, symBinAddr: 0x10000E004, symSize: 0x2C }
  - { offsetInCU: 0x53FD1, offset: 0x53FD1, size: 0x8, addend: 0x0, symName: __ZN3fmt2v96detail12count_digitsILi3EjEEiT0_, symObjAddr: 0xA8B0, symBinAddr: 0x10000E030, symSize: 0x2C }
  - { offsetInCU: 0x54012, offset: 0x54012, size: 0x8, addend: 0x0, symName: __ZN3fmt2v96detail10write_charIcNS0_8appenderEEET0_S4_T_RKNS0_18basic_format_specsIS5_EE, symObjAddr: 0xA8DC, symBinAddr: 0x10000E05C, symSize: 0x78 }
  - { offsetInCU: 0x540B8, offset: 0x540B8, size: 0x8, addend: 0x0, symName: __ZN3fmt2v96detail19write_int_localizedINS0_8appenderEycEET_S4_T0_jRKNS0_18basic_format_specsIT1_EERKNS1_14digit_groupingIS7_EE, symObjAddr: 0xA99C, symBinAddr: 0x10000E11C, symSize: 0x134 }
  - { offsetInCU: 0x541C3, offset: 0x541C3, size: 0x8, addend: 0x0, symName: __ZN3fmt2v96detail13thousands_sepIcEENS1_20thousands_sep_resultIT_EENS1_10locale_refE, symObjAddr: 0xABDC, symBinAddr: 0x10000E35C, symSize: 0x80 }
  - { offsetInCU: 0x54209, offset: 0x54209, size: 0x8, addend: 0x0, symName: __ZN3fmt2v96detail18thousands_sep_implIcEENS1_20thousands_sep_resultIT_EENS1_10locale_refE, symObjAddr: 0xAEB4, symBinAddr: 0x10000E634, symSize: 0x108 }
  - { offsetInCU: 0x54269, offset: 0x54269, size: 0x8, addend: 0x0, symName: __ZN3fmt2v96detail11to_unsignedIiEENSt3__113make_unsignedIT_E4typeES5_, symObjAddr: 0xB548, symBinAddr: 0x10000ECC8, symSize: 0x50 }
  - { offsetInCU: 0x542A0, offset: 0x542A0, size: 0x8, addend: 0x0, symName: __ZN3fmt2v96detail12write_paddedILNS0_5align4typeE2ENS0_8appenderEcZNS1_19write_int_localizedIS5_ycEET_S7_T0_jRKNS0_18basic_format_specsIT1_EERKNS1_14digit_groupingISA_EEEUlS5_E_EES8_S8_SD_mmOT2_, symObjAddr: 0xB610, symBinAddr: 0x10000ED90, symSize: 0x1C4 }
  - { offsetInCU: 0x5438D, offset: 0x5438D, size: 0x8, addend: 0x0, symName: __ZN3fmt2v96detail9max_valueIiEET_v, symObjAddr: 0xBACC, symBinAddr: 0x10000F24C, symSize: 0x14 }
  - { offsetInCU: 0x543B5, offset: 0x543B5, size: 0x8, addend: 0x0, symName: __ZN3fmt2v96detail9max_valueIcEET_v, symObjAddr: 0xBBDC, symBinAddr: 0x10000F35C, symSize: 0x18 }
  - { offsetInCU: 0x543DD, offset: 0x543DD, size: 0x8, addend: 0x0, symName: __ZN3fmt2v96detail4fillINS0_8appenderEcEET_S4_mRKNS1_6fill_tIT0_EE, symObjAddr: 0xBCF4, symBinAddr: 0x10000F474, symSize: 0xF4 }
  - { offsetInCU: 0x54476, offset: 0x54476, size: 0x8, addend: 0x0, symName: __ZN3fmt2v96detail6fill_nINS0_8appenderEmcEET_S4_T0_RKT1_, symObjAddr: 0xBEC8, symBinAddr: 0x10000F648, symSize: 0x90 }
  - { offsetInCU: 0x544FA, offset: 0x544FA, size: 0x8, addend: 0x0, symName: __ZN3fmt2v96detail8copy_strIcPKcEENS0_8appenderET0_S6_S5_, symObjAddr: 0xBF8C, symBinAddr: 0x10000F70C, symSize: 0x4C }
  - { offsetInCU: 0x54797, offset: 0x54797, size: 0x8, addend: 0x0, symName: __ZN3fmt2v96detail12make_checkedIiEEPT_S4_m, symObjAddr: 0xC73C, symBinAddr: 0x10000FEBC, symSize: 0x18 }
  - { offsetInCU: 0x547DA, offset: 0x547DA, size: 0x8, addend: 0x0, symName: __ZN3fmt2v96detail12write_paddedILNS0_5align4typeE2ENS0_8appenderEcZNS1_9write_intIS5_cZNS1_9write_intIcS5_jEET0_S8_NS1_13write_int_argIT1_EERKNS0_18basic_format_specsIT_EENS1_10locale_refEEUlS5_E_EESD_SD_ijRKNSC_IS8_EESA_EUlS5_E_EES8_S8_RKNSC_ISA_EEmOT2_, symObjAddr: 0xCB84, symBinAddr: 0x100010304, symSize: 0x50 }
  - { offsetInCU: 0x5485A, offset: 0x5485A, size: 0x8, addend: 0x0, symName: __ZN3fmt2v96detail12write_paddedILNS0_5align4typeE2ENS0_8appenderEcRZNS1_9write_intIS5_cZNS1_9write_intIcS5_jEET0_S8_NS1_13write_int_argIT1_EERKNS0_18basic_format_specsIT_EENS1_10locale_refEEUlS5_E_EESD_SD_ijRKNSC_IS8_EESA_EUlS5_E_EES8_S8_RKNSC_ISA_EEmmOT2_, symObjAddr: 0xCD0C, symBinAddr: 0x10001048C, symSize: 0x1C4 }
  - { offsetInCU: 0x54990, offset: 0x54990, size: 0x8, addend: 0x0, symName: __ZN3fmt2v96detail12write_paddedILNS0_5align4typeE2ENS0_8appenderEcZNS1_9write_intIS5_cZNS1_9write_intIcS5_jEET0_S8_NS1_13write_int_argIT1_EERKNS0_18basic_format_specsIT_EENS1_10locale_refEEUlS5_E0_EESD_SD_ijRKNSC_IS8_EESA_EUlS5_E_EES8_S8_RKNSC_ISA_EEmOT2_, symObjAddr: 0xD000, symBinAddr: 0x100010780, symSize: 0x50 }
  - { offsetInCU: 0x54A10, offset: 0x54A10, size: 0x8, addend: 0x0, symName: __ZN3fmt2v96detail11format_uintILj4EcNS0_8appenderEjEET1_S4_T2_ib, symObjAddr: 0xD050, symBinAddr: 0x1000107D0, symSize: 0x110 }
  - { offsetInCU: 0x54AB4, offset: 0x54AB4, size: 0x8, addend: 0x0, symName: __ZN3fmt2v96detail11format_uintILj4EcjEEPT0_S4_T1_ib, symObjAddr: 0xD160, symBinAddr: 0x1000108E0, symSize: 0xC4 }
  - { offsetInCU: 0x54B5E, offset: 0x54B5E, size: 0x8, addend: 0x0, symName: __ZN3fmt2v96detail12write_paddedILNS0_5align4typeE2ENS0_8appenderEcRZNS1_9write_intIS5_cZNS1_9write_intIcS5_jEET0_S8_NS1_13write_int_argIT1_EERKNS0_18basic_format_specsIT_EENS1_10locale_refEEUlS5_E0_EESD_SD_ijRKNSC_IS8_EESA_EUlS5_E_EES8_S8_RKNSC_ISA_EEmmOT2_, symObjAddr: 0xD224, symBinAddr: 0x1000109A4, symSize: 0x1C4 }
  - { offsetInCU: 0x54C94, offset: 0x54C94, size: 0x8, addend: 0x0, symName: __ZN3fmt2v96detail12write_paddedILNS0_5align4typeE2ENS0_8appenderEcZNS1_9write_intIS5_cZNS1_9write_intIcS5_jEET0_S8_NS1_13write_int_argIT1_EERKNS0_18basic_format_specsIT_EENS1_10locale_refEEUlS5_E1_EESD_SD_ijRKNSC_IS8_EESA_EUlS5_E_EES8_S8_RKNSC_ISA_EEmOT2_, symObjAddr: 0xD518, symBinAddr: 0x100010C98, symSize: 0x50 }
  - { offsetInCU: 0x54D14, offset: 0x54D14, size: 0x8, addend: 0x0, symName: __ZN3fmt2v96detail11format_uintILj1EcNS0_8appenderEjEET1_S4_T2_ib, symObjAddr: 0xD568, symBinAddr: 0x100010CE8, symSize: 0x110 }
  - { offsetInCU: 0x54DB9, offset: 0x54DB9, size: 0x8, addend: 0x0, symName: __ZN3fmt2v96detail11format_uintILj1EcjEEPT0_S4_T1_ib, symObjAddr: 0xD678, symBinAddr: 0x100010DF8, symSize: 0xBC }
  - { offsetInCU: 0x54E63, offset: 0x54E63, size: 0x8, addend: 0x0, symName: __ZN3fmt2v96detail12write_paddedILNS0_5align4typeE2ENS0_8appenderEcRZNS1_9write_intIS5_cZNS1_9write_intIcS5_jEET0_S8_NS1_13write_int_argIT1_EERKNS0_18basic_format_specsIT_EENS1_10locale_refEEUlS5_E1_EESD_SD_ijRKNSC_IS8_EESA_EUlS5_E_EES8_S8_RKNSC_ISA_EEmmOT2_, symObjAddr: 0xD734, symBinAddr: 0x100010EB4, symSize: 0x1C4 }
  - { offsetInCU: 0x54F99, offset: 0x54F99, size: 0x8, addend: 0x0, symName: __ZN3fmt2v96detail12write_paddedILNS0_5align4typeE2ENS0_8appenderEcZNS1_9write_intIS5_cZNS1_9write_intIcS5_jEET0_S8_NS1_13write_int_argIT1_EERKNS0_18basic_format_specsIT_EENS1_10locale_refEEUlS5_E2_EESD_SD_ijRKNSC_IS8_EESA_EUlS5_E_EES8_S8_RKNSC_ISA_EEmOT2_, symObjAddr: 0xDA28, symBinAddr: 0x1000111A8, symSize: 0x50 }
  - { offsetInCU: 0x55019, offset: 0x55019, size: 0x8, addend: 0x0, symName: __ZN3fmt2v96detail11format_uintILj3EcNS0_8appenderEjEET1_S4_T2_ib, symObjAddr: 0xDA78, symBinAddr: 0x1000111F8, symSize: 0x110 }
  - { offsetInCU: 0x550BD, offset: 0x550BD, size: 0x8, addend: 0x0, symName: __ZN3fmt2v96detail11format_uintILj3EcjEEPT0_S4_T1_ib, symObjAddr: 0xDB88, symBinAddr: 0x100011308, symSize: 0xB8 }
  - { offsetInCU: 0x55167, offset: 0x55167, size: 0x8, addend: 0x0, symName: __ZN3fmt2v96detail12write_paddedILNS0_5align4typeE2ENS0_8appenderEcRZNS1_9write_intIS5_cZNS1_9write_intIcS5_jEET0_S8_NS1_13write_int_argIT1_EERKNS0_18basic_format_specsIT_EENS1_10locale_refEEUlS5_E2_EESD_SD_ijRKNSC_IS8_EESA_EUlS5_E_EES8_S8_RKNSC_ISA_EEmmOT2_, symObjAddr: 0xDC40, symBinAddr: 0x1000113C0, symSize: 0x1C4 }
  - { offsetInCU: 0x5529D, offset: 0x5529D, size: 0x8, addend: 0x0, symName: __ZN3fmt2v96detail12write_paddedILNS0_5align4typeE1ENS0_8appenderEcZNS1_10write_charIcS5_EET0_S7_T_RKNS0_18basic_format_specsIS8_EEEUlS5_E_EES7_S7_RKNS9_IT1_EEmOT2_, symObjAddr: 0xDEE8, symBinAddr: 0x100011668, symSize: 0x50 }
  - { offsetInCU: 0x5531D, offset: 0x5531D, size: 0x8, addend: 0x0, symName: __ZN3fmt2v96detail12write_paddedILNS0_5align4typeE1ENS0_8appenderEcRZNS1_10write_charIcS5_EET0_S7_T_RKNS0_18basic_format_specsIS8_EEEUlS5_E_EES7_S7_RKNS9_IT1_EEmmOT2_, symObjAddr: 0xDF38, symBinAddr: 0x1000116B8, symSize: 0x1C4 }
  - { offsetInCU: 0x5540A, offset: 0x5540A, size: 0x8, addend: 0x0, symName: __ZN3fmt2v96detail18write_escaped_charIcNS0_8appenderEEET0_S4_T_, symObjAddr: 0xE190, symBinAddr: 0x100011910, symSize: 0x138 }
  - { offsetInCU: 0x55459, offset: 0x55459, size: 0x8, addend: 0x0, symName: __ZN3fmt2v96detail12needs_escapeEj, symObjAddr: 0xE2C8, symBinAddr: 0x100011A48, symSize: 0xA8 }
  - { offsetInCU: 0x55487, offset: 0x55487, size: 0x8, addend: 0x0, symName: __ZN3fmt2v96detail16write_escaped_cpINS0_8appenderEcEET_S4_RKNS1_18find_escape_resultIT0_EE, symObjAddr: 0xE370, symBinAddr: 0x100011AF0, symSize: 0x360 }
  - { offsetInCU: 0x5553B, offset: 0x5553B, size: 0x8, addend: 0x0, symName: __ZN3fmt2v96detail12is_printableEtPKNS1_9singletonEmPKhS6_m, symObjAddr: 0xEA00, symBinAddr: 0x100012180, symSize: 0x234 }
  - { offsetInCU: 0x556A5, offset: 0x556A5, size: 0x8, addend: 0x0, symName: __ZN3fmt2v96detail15write_codepointILm2EcNS0_8appenderEEET1_S4_cj, symObjAddr: 0xEC34, symBinAddr: 0x1000123B4, symSize: 0xE8 }
  - { offsetInCU: 0x5571C, offset: 0x5571C, size: 0x8, addend: 0x0, symName: __ZN3fmt2v96detail15write_codepointILm4EcNS0_8appenderEEET1_S4_cj, symObjAddr: 0xED1C, symBinAddr: 0x10001249C, symSize: 0xE8 }
  - { offsetInCU: 0x55793, offset: 0x55793, size: 0x8, addend: 0x0, symName: __ZN3fmt2v96detail15write_codepointILm8EcNS0_8appenderEEET1_S4_cj, symObjAddr: 0xEE04, symBinAddr: 0x100012584, symSize: 0x124 }
  - { offsetInCU: 0x5580A, offset: 0x5580A, size: 0x8, addend: 0x0, symName: __ZN3fmt2v96detail6fill_nIcmEEPT_S4_T0_c, symObjAddr: 0xEF60, symBinAddr: 0x1000126E0, symSize: 0x58 }
  - { offsetInCU: 0x55868, offset: 0x55868, size: 0x8, addend: 0x0, symName: __ZN3fmt2v96detail11to_unsignedImEENSt3__113make_unsignedIT_E4typeES5_, symObjAddr: 0xEFB8, symBinAddr: 0x100012738, symSize: 0x14 }
  - { offsetInCU: 0x5589F, offset: 0x5589F, size: 0x8, addend: 0x0, symName: __ZN3fmt2v96detail12write_paddedILNS0_5align4typeE1ENS0_8appenderEcZNS1_11write_bytesILS4_1EcS5_EET1_S7_NS0_17basic_string_viewIcEERKNS0_18basic_format_specsIT0_EEEUlS5_E_EESB_SB_RKNSA_IS7_EEmOT2_, symObjAddr: 0xEFCC, symBinAddr: 0x10001274C, symSize: 0x50 }
  - { offsetInCU: 0x5591F, offset: 0x5591F, size: 0x8, addend: 0x0, symName: __ZN3fmt2v96detail12write_paddedILNS0_5align4typeE1ENS0_8appenderEcRZNS1_11write_bytesILS4_1EcS5_EET1_S7_NS0_17basic_string_viewIcEERKNS0_18basic_format_specsIT0_EEEUlS5_E_EESB_SB_RKNSA_IS7_EEmmOT2_, symObjAddr: 0xF01C, symBinAddr: 0x10001279C, symSize: 0x1C4 }
  - { offsetInCU: 0x55A0C, offset: 0x55A0C, size: 0x8, addend: 0x0, symName: __ZN3fmt2v96detail5writeIcNS0_8appenderEEET0_S4_T_, symObjAddr: 0xF344, symBinAddr: 0x100012AC4, symSize: 0x88 }
  - { offsetInCU: 0x55AC2, offset: 0x55AC2, size: 0x8, addend: 0x0, symName: __ZN3fmt2v96detail27is_supported_floating_pointIfEEbT_, symObjAddr: 0xF524, symBinAddr: 0x100012CA4, symSize: 0x18 }
  - { offsetInCU: 0x55AF6, offset: 0x55AF6, size: 0x8, addend: 0x0, symName: __ZN3fmt2v96detail8bit_castIjfLi0EEET_RKT0_, symObjAddr: 0xF558, symBinAddr: 0x100012CD8, symSize: 0x24 }
  - { offsetInCU: 0x55B4B, offset: 0x55B4B, size: 0x8, addend: 0x0, symName: __ZN3fmt2v96detail15write_nonfiniteIcNS0_8appenderEEET0_S4_bNS0_18basic_format_specsIT_EERKNS1_11float_specsE, symObjAddr: 0xF57C, symBinAddr: 0x100012CFC, symSize: 0x1B8 }
  - { offsetInCU: 0x55C3E, offset: 0x55C3E, size: 0x8, addend: 0x0, symName: __ZN3fmt2v96detail11write_floatINS0_8appenderENS1_9dragonbox10decimal_fpIfEEcEET_S7_RKT0_RKNS0_18basic_format_specsIT1_EENS1_11float_specsENS1_10locale_refE, symObjAddr: 0xFFE4, symBinAddr: 0x100013764, symSize: 0x64 }
  - { offsetInCU: 0x55CC3, offset: 0x55CC3, size: 0x8, addend: 0x0, symName: __ZN3fmt2v96detail20num_significand_bitsIfEEiv, symObjAddr: 0x1006C, symBinAddr: 0x1000137EC, symSize: 0x8 }
  - { offsetInCU: 0x55CEB, offset: 0x55CEB, size: 0x8, addend: 0x0, symName: __ZN3fmt2v96detail12write_paddedILNS0_5align4typeE1ENS0_8appenderEcZNS1_15write_nonfiniteIcS5_EET0_S7_bNS0_18basic_format_specsIT_EERKNS1_11float_specsEEUlS5_E_EES7_S7_RKNS8_IT1_EEmOT2_, symObjAddr: 0x10094, symBinAddr: 0x100013814, symSize: 0x50 }
  - { offsetInCU: 0x55D6B, offset: 0x55D6B, size: 0x8, addend: 0x0, symName: __ZN3fmt2v96detail12write_paddedILNS0_5align4typeE1ENS0_8appenderEcRZNS1_15write_nonfiniteIcS5_EET0_S7_bNS0_18basic_format_specsIT_EERKNS1_11float_specsEEUlS5_E_EES7_S7_RKNS8_IT1_EEmmOT2_, symObjAddr: 0x100E4, symBinAddr: 0x100013864, symSize: 0x1C4 }
  - { offsetInCU: 0x55E58, offset: 0x55E58, size: 0x8, addend: 0x0, symName: __ZN3fmt2v96detail4signIcNS0_4sign4typeEEET_T0_, symObjAddr: 0x1034C, symBinAddr: 0x100013ACC, symSize: 0x24 }
  - { offsetInCU: 0x55E98, offset: 0x55E98, size: 0x8, addend: 0x0, symName: __ZN3fmt2v96detail13exponent_biasIfEEiv, symObjAddr: 0x10370, symBinAddr: 0x100013AF0, symSize: 0x8 }
  - { offsetInCU: 0x55EC0, offset: 0x55EC0, size: 0x8, addend: 0x0, symName: __ZN3fmt2v96detail4rotrEjj, symObjAddr: 0x10A30, symBinAddr: 0x1000141B0, symSize: 0x44 }
  - { offsetInCU: 0x55EFA, offset: 0x55EFA, size: 0x8, addend: 0x0, symName: __ZN3fmt2v96detail9max_valueIjEET_v, symObjAddr: 0x10A74, symBinAddr: 0x1000141F4, symSize: 0x14 }
  - { offsetInCU: 0x55F22, offset: 0x55F22, size: 0x8, addend: 0x0, symName: __ZN3fmt2v96detail14do_write_floatINS0_8appenderENS1_9dragonbox10decimal_fpIfEEcNS1_14digit_groupingIcEEEET_S9_RKT0_RKNS0_18basic_format_specsIT1_EENS1_11float_specsENS1_10locale_refE, symObjAddr: 0x10AA4, symBinAddr: 0x100014224, symSize: 0x7DC }
  - { offsetInCU: 0x56366, offset: 0x56366, size: 0x8, addend: 0x0, symName: __ZN3fmt2v96detail20get_significand_sizeIfEEiRKNS1_9dragonbox10decimal_fpIT_EE, symObjAddr: 0x11280, symBinAddr: 0x100014A00, symSize: 0x28 }
  - { offsetInCU: 0x5639D, offset: 0x5639D, size: 0x8, addend: 0x0, symName: __ZN3fmt2v96detail13decimal_pointIcEET_NS1_10locale_refE, symObjAddr: 0x112A8, symBinAddr: 0x100014A28, symSize: 0x30 }
  - { offsetInCU: 0x5643E, offset: 0x5643E, size: 0x8, addend: 0x0, symName: __ZN3fmt2v96detail12write_paddedILNS0_5align4typeE2ENS0_8appenderEcRZNS1_14do_write_floatIS5_NS1_9dragonbox10decimal_fpIfEEcNS1_14digit_groupingIcEEEET_SC_RKT0_RKNS0_18basic_format_specsIT1_EENS1_11float_specsENS1_10locale_refEEUlS5_E_EESD_SD_SK_mOT2_, symObjAddr: 0x113E8, symBinAddr: 0x100014B68, symSize: 0x50 }
  - { offsetInCU: 0x564BE, offset: 0x564BE, size: 0x8, addend: 0x0, symName: __ZN3fmt2v96detail12write_paddedILNS0_5align4typeE2ENS0_8appenderEcZNS1_14do_write_floatIS5_NS1_9dragonbox10decimal_fpIfEEcNS1_14digit_groupingIcEEEET_SC_RKT0_RKNS0_18basic_format_specsIT1_EENS1_11float_specsENS1_10locale_refEEUlS5_E0_EESD_SD_SK_mOT2_, symObjAddr: 0x11580, symBinAddr: 0x100014D00, symSize: 0x50 }
  - { offsetInCU: 0x5653E, offset: 0x5653E, size: 0x8, addend: 0x0, symName: __ZN3fmt2v96detail12write_paddedILNS0_5align4typeE2ENS0_8appenderEcZNS1_14do_write_floatIS5_NS1_9dragonbox10decimal_fpIfEEcNS1_14digit_groupingIcEEEET_SC_RKT0_RKNS0_18basic_format_specsIT1_EENS1_11float_specsENS1_10locale_refEEUlS5_E1_EESD_SD_SK_mOT2_, symObjAddr: 0x115D0, symBinAddr: 0x100014D50, symSize: 0x50 }
  - { offsetInCU: 0x565BE, offset: 0x565BE, size: 0x8, addend: 0x0, symName: __ZN3fmt2v96detail12write_paddedILNS0_5align4typeE2ENS0_8appenderEcZNS1_14do_write_floatIS5_NS1_9dragonbox10decimal_fpIfEEcNS1_14digit_groupingIcEEEET_SC_RKT0_RKNS0_18basic_format_specsIT1_EENS1_11float_specsENS1_10locale_refEEUlS5_E2_EESD_SD_SK_mOT2_, symObjAddr: 0x11620, symBinAddr: 0x100014DA0, symSize: 0x50 }
  - { offsetInCU: 0x5663E, offset: 0x5663E, size: 0x8, addend: 0x0, symName: __ZN3fmt2v96detail18decimal_point_implIcEET_NS1_10locale_refE, symObjAddr: 0x11670, symBinAddr: 0x100014DF0, symSize: 0x80 }
  - { offsetInCU: 0x56674, offset: 0x56674, size: 0x8, addend: 0x0, symName: __ZN3fmt2v96detail12write_paddedILNS0_5align4typeE2ENS0_8appenderEcRZNS1_14do_write_floatIS5_NS1_9dragonbox10decimal_fpIfEEcNS1_14digit_groupingIcEEEET_SC_RKT0_RKNS0_18basic_format_specsIT1_EENS1_11float_specsENS1_10locale_refEEUlS5_E_EESD_SD_SK_mmOT2_, symObjAddr: 0x11720, symBinAddr: 0x100014EA0, symSize: 0x1C4 }
  - { offsetInCU: 0x56761, offset: 0x56761, size: 0x8, addend: 0x0, symName: __ZN3fmt2v96detail17write_significandINS0_8appenderEjcLi0EEET_S4_T0_iiT1_, symObjAddr: 0x118E4, symBinAddr: 0x100015064, symSize: 0xAC }
  - { offsetInCU: 0x5680A, offset: 0x5680A, size: 0x8, addend: 0x0, symName: __ZN3fmt2v96detail6fill_nINS0_8appenderEicEET_S4_T0_RKT1_, symObjAddr: 0x11990, symBinAddr: 0x100015110, symSize: 0x90 }
  - { offsetInCU: 0x5688E, offset: 0x5688E, size: 0x8, addend: 0x0, symName: __ZN3fmt2v96detail14write_exponentIcNS0_8appenderEEET0_iS4_, symObjAddr: 0x11A20, symBinAddr: 0x1000151A0, symSize: 0x278 }
  - { offsetInCU: 0x5690A, offset: 0x5690A, size: 0x8, addend: 0x0, symName: __ZN3fmt2v96detail17write_significandIcjLi0EEEPT_S4_T0_iiS3_, symObjAddr: 0x11C98, symBinAddr: 0x100015418, symSize: 0x1D0 }
  - { offsetInCU: 0x569ED, offset: 0x569ED, size: 0x8, addend: 0x0, symName: __ZN3fmt2v96detail12write_paddedILNS0_5align4typeE2ENS0_8appenderEcRZNS1_14do_write_floatIS5_NS1_9dragonbox10decimal_fpIfEEcNS1_14digit_groupingIcEEEET_SC_RKT0_RKNS0_18basic_format_specsIT1_EENS1_11float_specsENS1_10locale_refEEUlS5_E0_EESD_SD_SK_mmOT2_, symObjAddr: 0x11E68, symBinAddr: 0x1000155E8, symSize: 0x1C4 }
  - { offsetInCU: 0x56ADA, offset: 0x56ADA, size: 0x8, addend: 0x0, symName: __ZN3fmt2v96detail17write_significandIcNS0_8appenderEjNS1_14digit_groupingIcEEEET0_S6_T1_iiRKT2_, symObjAddr: 0x12194, symBinAddr: 0x100015914, symSize: 0x1E8 }
  - { offsetInCU: 0x56B7D, offset: 0x56B7D, size: 0x8, addend: 0x0, symName: __ZN3fmt2v96detail17write_significandIcNS0_8appenderEjEET0_S4_T1_i, symObjAddr: 0x1237C, symBinAddr: 0x100015AFC, symSize: 0x50 }
  - { offsetInCU: 0x56BE4, offset: 0x56BE4, size: 0x8, addend: 0x0, symName: __ZN3fmt2v96detail12write_paddedILNS0_5align4typeE2ENS0_8appenderEcRZNS1_14do_write_floatIS5_NS1_9dragonbox10decimal_fpIfEEcNS1_14digit_groupingIcEEEET_SC_RKT0_RKNS0_18basic_format_specsIT1_EENS1_11float_specsENS1_10locale_refEEUlS5_E1_EESD_SD_SK_mmOT2_, symObjAddr: 0x126DC, symBinAddr: 0x100015E5C, symSize: 0x1C4 }
  - { offsetInCU: 0x56CD1, offset: 0x56CD1, size: 0x8, addend: 0x0, symName: __ZN3fmt2v96detail17write_significandINS0_8appenderEcjNS1_14digit_groupingIcEEEET_S6_T1_iiT0_RKT2_, symObjAddr: 0x129BC, symBinAddr: 0x10001613C, symSize: 0x1EC }
  - { offsetInCU: 0x56D84, offset: 0x56D84, size: 0x8, addend: 0x0, symName: __ZN3fmt2v96detail12write_paddedILNS0_5align4typeE2ENS0_8appenderEcRZNS1_14do_write_floatIS5_NS1_9dragonbox10decimal_fpIfEEcNS1_14digit_groupingIcEEEET_SC_RKT0_RKNS0_18basic_format_specsIT1_EENS1_11float_specsENS1_10locale_refEEUlS5_E2_EESD_SD_SK_mmOT2_, symObjAddr: 0x12BA8, symBinAddr: 0x100016328, symSize: 0x1C4 }
  - { offsetInCU: 0x56EA0, offset: 0x56EA0, size: 0x8, addend: 0x0, symName: __ZN3fmt2v96detail27is_supported_floating_pointIdEEbT_, symObjAddr: 0x13024, symBinAddr: 0x1000167A4, symSize: 0x18 }
  - { offsetInCU: 0x56ED4, offset: 0x56ED4, size: 0x8, addend: 0x0, symName: __ZN3fmt2v96detail8bit_castIydLi0EEET_RKT0_, symObjAddr: 0x1305C, symBinAddr: 0x1000167DC, symSize: 0x24 }
  - { offsetInCU: 0x56F29, offset: 0x56F29, size: 0x8, addend: 0x0, symName: __ZN3fmt2v96detail11write_floatINS0_8appenderENS1_9dragonbox10decimal_fpIdEEcEET_S7_RKT0_RKNS0_18basic_format_specsIT1_EENS1_11float_specsENS1_10locale_refE, symObjAddr: 0x13BFC, symBinAddr: 0x10001737C, symSize: 0x64 }
  - { offsetInCU: 0x56FAE, offset: 0x56FAE, size: 0x8, addend: 0x0, symName: __ZN3fmt2v96detail20num_significand_bitsIdEEiv, symObjAddr: 0x13C60, symBinAddr: 0x1000173E0, symSize: 0x8 }
  - { offsetInCU: 0x56FD6, offset: 0x56FD6, size: 0x8, addend: 0x0, symName: __ZN3fmt2v96detail13exponent_biasIdEEiv, symObjAddr: 0x13C68, symBinAddr: 0x1000173E8, symSize: 0x8 }
  - { offsetInCU: 0x56FFE, offset: 0x56FFE, size: 0x8, addend: 0x0, symName: __ZN3fmt2v96detail7umul128Eyy, symObjAddr: 0x143F4, symBinAddr: 0x100017B74, symSize: 0x7C }
  - { offsetInCU: 0x57046, offset: 0x57046, size: 0x8, addend: 0x0, symName: __ZN3fmt2v96detail4rotrEyj, symObjAddr: 0x14690, symBinAddr: 0x100017E10, symSize: 0x44 }
  - { offsetInCU: 0x57080, offset: 0x57080, size: 0x8, addend: 0x0, symName: __ZN3fmt2v96detail9max_valueIyEET_v, symObjAddr: 0x146D4, symBinAddr: 0x100017E54, symSize: 0x14 }
  - { offsetInCU: 0x570A8, offset: 0x570A8, size: 0x8, addend: 0x0, symName: __ZN3fmt2v96detail14do_write_floatINS0_8appenderENS1_9dragonbox10decimal_fpIdEEcNS1_14digit_groupingIcEEEET_S9_RKT0_RKNS0_18basic_format_specsIT1_EENS1_11float_specsENS1_10locale_refE, symObjAddr: 0x14704, symBinAddr: 0x100017E84, symSize: 0x7DC }
  - { offsetInCU: 0x574EC, offset: 0x574EC, size: 0x8, addend: 0x0, symName: __ZN3fmt2v96detail20get_significand_sizeIdEEiRKNS1_9dragonbox10decimal_fpIT_EE, symObjAddr: 0x14EE0, symBinAddr: 0x100018660, symSize: 0x28 }
  - { offsetInCU: 0x57523, offset: 0x57523, size: 0x8, addend: 0x0, symName: __ZN3fmt2v96detail12write_paddedILNS0_5align4typeE2ENS0_8appenderEcRZNS1_14do_write_floatIS5_NS1_9dragonbox10decimal_fpIdEEcNS1_14digit_groupingIcEEEET_SC_RKT0_RKNS0_18basic_format_specsIT1_EENS1_11float_specsENS1_10locale_refEEUlS5_E_EESD_SD_SK_mOT2_, symObjAddr: 0x15018, symBinAddr: 0x100018798, symSize: 0x50 }
  - { offsetInCU: 0x575A3, offset: 0x575A3, size: 0x8, addend: 0x0, symName: __ZN3fmt2v96detail12write_paddedILNS0_5align4typeE2ENS0_8appenderEcZNS1_14do_write_floatIS5_NS1_9dragonbox10decimal_fpIdEEcNS1_14digit_groupingIcEEEET_SC_RKT0_RKNS0_18basic_format_specsIT1_EENS1_11float_specsENS1_10locale_refEEUlS5_E0_EESD_SD_SK_mOT2_, symObjAddr: 0x151B0, symBinAddr: 0x100018930, symSize: 0x50 }
  - { offsetInCU: 0x57623, offset: 0x57623, size: 0x8, addend: 0x0, symName: __ZN3fmt2v96detail12write_paddedILNS0_5align4typeE2ENS0_8appenderEcZNS1_14do_write_floatIS5_NS1_9dragonbox10decimal_fpIdEEcNS1_14digit_groupingIcEEEET_SC_RKT0_RKNS0_18basic_format_specsIT1_EENS1_11float_specsENS1_10locale_refEEUlS5_E1_EESD_SD_SK_mOT2_, symObjAddr: 0x15200, symBinAddr: 0x100018980, symSize: 0x50 }
  - { offsetInCU: 0x576A3, offset: 0x576A3, size: 0x8, addend: 0x0, symName: __ZN3fmt2v96detail12write_paddedILNS0_5align4typeE2ENS0_8appenderEcZNS1_14do_write_floatIS5_NS1_9dragonbox10decimal_fpIdEEcNS1_14digit_groupingIcEEEET_SC_RKT0_RKNS0_18basic_format_specsIT1_EENS1_11float_specsENS1_10locale_refEEUlS5_E2_EESD_SD_SK_mOT2_, symObjAddr: 0x15250, symBinAddr: 0x1000189D0, symSize: 0x50 }
  - { offsetInCU: 0x57723, offset: 0x57723, size: 0x8, addend: 0x0, symName: __ZN3fmt2v96detail12write_paddedILNS0_5align4typeE2ENS0_8appenderEcRZNS1_14do_write_floatIS5_NS1_9dragonbox10decimal_fpIdEEcNS1_14digit_groupingIcEEEET_SC_RKT0_RKNS0_18basic_format_specsIT1_EENS1_11float_specsENS1_10locale_refEEUlS5_E_EESD_SD_SK_mmOT2_, symObjAddr: 0x152A0, symBinAddr: 0x100018A20, symSize: 0x1C4 }
  - { offsetInCU: 0x57810, offset: 0x57810, size: 0x8, addend: 0x0, symName: __ZN3fmt2v96detail17write_significandINS0_8appenderEycLi0EEET_S4_T0_iiT1_, symObjAddr: 0x15464, symBinAddr: 0x100018BE4, symSize: 0xAC }
  - { offsetInCU: 0x578B9, offset: 0x578B9, size: 0x8, addend: 0x0, symName: __ZN3fmt2v96detail17write_significandIcyLi0EEEPT_S4_T0_iiS3_, symObjAddr: 0x15510, symBinAddr: 0x100018C90, symSize: 0x1CC }
  - { offsetInCU: 0x5799C, offset: 0x5799C, size: 0x8, addend: 0x0, symName: __ZN3fmt2v96detail12write_paddedILNS0_5align4typeE2ENS0_8appenderEcRZNS1_14do_write_floatIS5_NS1_9dragonbox10decimal_fpIdEEcNS1_14digit_groupingIcEEEET_SC_RKT0_RKNS0_18basic_format_specsIT1_EENS1_11float_specsENS1_10locale_refEEUlS5_E0_EESD_SD_SK_mmOT2_, symObjAddr: 0x156DC, symBinAddr: 0x100018E5C, symSize: 0x1C4 }
  - { offsetInCU: 0x57A89, offset: 0x57A89, size: 0x8, addend: 0x0, symName: __ZN3fmt2v96detail17write_significandIcNS0_8appenderEyNS1_14digit_groupingIcEEEET0_S6_T1_iiRKT2_, symObjAddr: 0x15A08, symBinAddr: 0x100019188, symSize: 0x1E8 }
  - { offsetInCU: 0x57B2C, offset: 0x57B2C, size: 0x8, addend: 0x0, symName: __ZN3fmt2v96detail17write_significandIcNS0_8appenderEyEET0_S4_T1_i, symObjAddr: 0x15BF0, symBinAddr: 0x100019370, symSize: 0x50 }
  - { offsetInCU: 0x57B93, offset: 0x57B93, size: 0x8, addend: 0x0, symName: __ZN3fmt2v96detail12write_paddedILNS0_5align4typeE2ENS0_8appenderEcRZNS1_14do_write_floatIS5_NS1_9dragonbox10decimal_fpIdEEcNS1_14digit_groupingIcEEEET_SC_RKT0_RKNS0_18basic_format_specsIT1_EENS1_11float_specsENS1_10locale_refEEUlS5_E1_EESD_SD_SK_mmOT2_, symObjAddr: 0x15C40, symBinAddr: 0x1000193C0, symSize: 0x1C4 }
  - { offsetInCU: 0x57C80, offset: 0x57C80, size: 0x8, addend: 0x0, symName: __ZN3fmt2v96detail17write_significandINS0_8appenderEcyNS1_14digit_groupingIcEEEET_S6_T1_iiT0_RKT2_, symObjAddr: 0x15F20, symBinAddr: 0x1000196A0, symSize: 0x1EC }
  - { offsetInCU: 0x57D33, offset: 0x57D33, size: 0x8, addend: 0x0, symName: __ZN3fmt2v96detail12write_paddedILNS0_5align4typeE2ENS0_8appenderEcRZNS1_14do_write_floatIS5_NS1_9dragonbox10decimal_fpIdEEcNS1_14digit_groupingIcEEEET_SC_RKT0_RKNS0_18basic_format_specsIT1_EENS1_11float_specsENS1_10locale_refEEUlS5_E2_EESD_SD_SK_mmOT2_, symObjAddr: 0x1610C, symBinAddr: 0x10001988C, symSize: 0x1C4 }
  - { offsetInCU: 0x57E4F, offset: 0x57E4F, size: 0x8, addend: 0x0, symName: __ZN3fmt2v96detail27is_supported_floating_pointIeEEbT_, symObjAddr: 0x16588, symBinAddr: 0x100019D08, symSize: 0x18 }
  - { offsetInCU: 0x57E83, offset: 0x57E83, size: 0x8, addend: 0x0, symName: __ZN3fmt2v96detail8bit_castIyeLi0EEET_RKT0_, symObjAddr: 0x165A0, symBinAddr: 0x100019D20, symSize: 0x24 }
  - { offsetInCU: 0x57ED8, offset: 0x57ED8, size: 0x8, addend: 0x0, symName: __ZN3fmt2v96detail5writeIcNS0_8appenderEEET0_S4_PKT_, symObjAddr: 0x165E4, symBinAddr: 0x100019D64, symSize: 0xB4 }
  - { offsetInCU: 0x57F73, offset: 0x57F73, size: 0x8, addend: 0x0, symName: __ZN3fmt2v96detail5writeIcNS0_8appenderEEET0_S4_NS0_17basic_string_viewIT_EE, symObjAddr: 0x16698, symBinAddr: 0x100019E18, symSize: 0xB0 }
  - { offsetInCU: 0x57FD1, offset: 0x57FD1, size: 0x8, addend: 0x0, symName: __ZN3fmt2v96detail17copy_str_noinlineIcPKcNS0_8appenderEEET1_T0_S7_S6_, symObjAddr: 0x16748, symBinAddr: 0x100019EC8, symSize: 0x44 }
  - { offsetInCU: 0x58038, offset: 0x58038, size: 0x8, addend: 0x0, symName: __ZN3fmt2v96detail5writeIcNS0_8appenderEvLi0EEET0_S4_PKT1_RKNS0_18basic_format_specsIT_EENS1_10locale_refE, symObjAddr: 0x167B8, symBinAddr: 0x100019F38, symSize: 0x68 }
  - { offsetInCU: 0x580AE, offset: 0x580AE, size: 0x8, addend: 0x0, symName: __ZN3fmt2v96detail23check_pointer_type_specINS1_13error_handlerEEEvNS0_17presentation_typeEOT_, symObjAddr: 0x16820, symBinAddr: 0x100019FA0, symSize: 0x58 }
  - { offsetInCU: 0x580F0, offset: 0x580F0, size: 0x8, addend: 0x0, symName: __ZN3fmt2v96detail9write_ptrIcNS0_8appenderEmEET0_S4_T1_PKNS0_18basic_format_specsIT_EE, symObjAddr: 0x16878, symBinAddr: 0x100019FF8, symSize: 0xD0 }
  - { offsetInCU: 0x581BD, offset: 0x581BD, size: 0x8, addend: 0x0, symName: __ZN3fmt2v96detail8bit_castImPKvLi0EEET_RKT0_, symObjAddr: 0x16948, symBinAddr: 0x10001A0C8, symSize: 0x24 }
  - { offsetInCU: 0x58212, offset: 0x58212, size: 0x8, addend: 0x0, symName: __ZN3fmt2v96detail12count_digitsILi4EmEEiT0_, symObjAddr: 0x1696C, symBinAddr: 0x10001A0EC, symSize: 0x28 }
  - { offsetInCU: 0x58272, offset: 0x58272, size: 0x8, addend: 0x0, symName: __ZN3fmt2v96detail12write_paddedILNS0_5align4typeE2ENS0_8appenderEcRZNS1_9write_ptrIcS5_mEET0_S7_T1_PKNS0_18basic_format_specsIT_EEEUlS5_E_EES7_S7_RKNS9_IS8_EEmOT2_, symObjAddr: 0x16994, symBinAddr: 0x10001A114, symSize: 0x50 }
  - { offsetInCU: 0x582F2, offset: 0x582F2, size: 0x8, addend: 0x0, symName: __ZN3fmt2v96detail12write_paddedILNS0_5align4typeE2ENS0_8appenderEcRZNS1_9write_ptrIcS5_mEET0_S7_T1_PKNS0_18basic_format_specsIT_EEEUlS5_E_EES7_S7_RKNS9_IS8_EEmmOT2_, symObjAddr: 0x16AF8, symBinAddr: 0x10001A278, symSize: 0x1C4 }
  - { offsetInCU: 0x583DF, offset: 0x583DF, size: 0x8, addend: 0x0, symName: __ZN3fmt2v96detail11format_uintILj4EcNS0_8appenderEmEET1_S4_T2_ib, symObjAddr: 0x16CBC, symBinAddr: 0x10001A43C, symSize: 0x110 }
  - { offsetInCU: 0x58483, offset: 0x58483, size: 0x8, addend: 0x0, symName: __ZN3fmt2v96detail11format_uintILj4EcmEEPT0_S4_T1_ib, symObjAddr: 0x16DCC, symBinAddr: 0x10001A54C, symSize: 0xC4 }
  - { offsetInCU: 0x5852D, offset: 0x5852D, size: 0x8, addend: 0x0, symName: __ZN3fmt2v96detail5writeIcNS0_8appenderEEET0_S4_NS0_9monostateENS0_18basic_format_specsIT_EENS1_10locale_refE, symObjAddr: 0x17054, symBinAddr: 0x10001A7D4, symSize: 0x34 }
  - { offsetInCU: 0x585EA, offset: 0x585EA, size: 0x8, addend: 0x0, symName: __ZN3fmt2v96detail4findILb0EcPKcEEbT1_S5_T0_RS5_, symObjAddr: 0x17B68, symBinAddr: 0x10001B2E8, symSize: 0x74 }
  - { offsetInCU: 0x58D68, offset: 0x58D68, size: 0x8, addend: 0x0, symName: __ZN3fmt2v96detail7get_argINS0_20basic_format_contextINS0_8appenderEcEEiEENT_10format_argERS6_T0_, symObjAddr: 0x18E10, symBinAddr: 0x10001C590, symSize: 0x54 }
  - { offsetInCU: 0x58DC8, offset: 0x58DC8, size: 0x8, addend: 0x0, symName: __ZN3fmt2v96detail15do_parse_arg_idIcRZNS1_23parse_replacement_fieldIcRZNS1_10vformat_toIcEEvRNS1_6bufferIT_EENS0_17basic_string_viewIS6_EENS0_17basic_format_argsINS0_20basic_format_contextINSt3__111conditionalIXsr3std7is_sameINS0_13type_identityIS6_E4typeEcEE5valueENS0_8appenderENSD_20back_insert_iteratorINS5_ISH_EEEEE4typeESH_EEEENS1_10locale_refEE14format_handlerEEPKS6_SU_SU_OT0_E10id_adapterEESU_SU_SU_SW_, symObjAddr: 0x18FB4, symBinAddr: 0x10001C734, symSize: 0x280 }
  - { offsetInCU: 0x58E61, offset: 0x58E61, size: 0x8, addend: 0x0, symName: __ZN3fmt2v96detail21parse_nonnegative_intIcEEiRPKT_S5_i, symObjAddr: 0x19268, symBinAddr: 0x10001C9E8, symSize: 0x220 }
  - { offsetInCU: 0x58F01, offset: 0x58F01, size: 0x8, addend: 0x0, symName: __ZN3fmt2v96detail13is_name_startIcEEbT_, symObjAddr: 0x19510, symBinAddr: 0x10001CC90, symSize: 0x98 }
  - { offsetInCU: 0x58F38, offset: 0x58F38, size: 0x8, addend: 0x0, symName: __ZN3fmt2v96detail15is_ascii_letterIcEEbT_, symObjAddr: 0x19E74, symBinAddr: 0x10001D5F4, symSize: 0x84 }
  - { offsetInCU: 0x58F6F, offset: 0x58F6F, size: 0x8, addend: 0x0, symName: __ZN3fmt2v96detail23parse_presentation_typeIcEENS0_17presentation_typeET_, symObjAddr: 0x19EF8, symBinAddr: 0x10001D678, symSize: 0x13C }
  - { offsetInCU: 0x58FA6, offset: 0x58FA6, size: 0x8, addend: 0x0, symName: __ZN3fmt2v96detail11parse_alignIcRNS1_13specs_checkerINS1_13specs_handlerIcEEEEEEPKT_SA_SA_OT0_, symObjAddr: 0x1A170, symBinAddr: 0x10001D8F0, symSize: 0x22C }
  - { offsetInCU: 0x5903F, offset: 0x5903F, size: 0x8, addend: 0x0, symName: __ZN3fmt2v96detail8to_asciiIcLi0EEET_S3_, symObjAddr: 0x1A39C, symBinAddr: 0x10001DB1C, symSize: 0x14 }
  - { offsetInCU: 0x590D5, offset: 0x590D5, size: 0x8, addend: 0x0, symName: __ZN3fmt2v96detail11parse_widthIcRNS1_13specs_checkerINS1_13specs_handlerIcEEEEEEPKT_SA_SA_OT0_, symObjAddr: 0x1A4D0, symBinAddr: 0x10001DC50, symSize: 0x214 }
  - { offsetInCU: 0x59248, offset: 0x59248, size: 0x8, addend: 0x0, symName: __ZN3fmt2v96detail15parse_precisionIcRNS1_13specs_checkerINS1_13specs_handlerIcEEEEEEPKT_SA_SA_OT0_, symObjAddr: 0x1A6E4, symBinAddr: 0x10001DE64, symSize: 0x23C }
  - { offsetInCU: 0x59371, offset: 0x59371, size: 0x8, addend: 0x0, symName: __ZN3fmt2v96detail17code_point_lengthIcEEiPKT_, symObjAddr: 0x1A950, symBinAddr: 0x10001E0D0, symSize: 0x44 }
  - { offsetInCU: 0x593B7, offset: 0x593B7, size: 0x8, addend: 0x0, symName: __ZN3fmt2v96detail22code_point_length_implEc, symObjAddr: 0x1AA2C, symBinAddr: 0x10001E1AC, symSize: 0x24 }
  - { offsetInCU: 0x593E5, offset: 0x593E5, size: 0x8, addend: 0x0, symName: __ZN3fmt2v96detail18is_arithmetic_typeENS1_4typeE, symObjAddr: 0x1AB90, symBinAddr: 0x10001E310, symSize: 0x48 }
  - { offsetInCU: 0x59413, offset: 0x59413, size: 0x8, addend: 0x0, symName: __ZN3fmt2v96detail16is_integral_typeENS1_4typeE, symObjAddr: 0x1ABD8, symBinAddr: 0x10001E358, symSize: 0x48 }
  - { offsetInCU: 0x59441, offset: 0x59441, size: 0x8, addend: 0x0, symName: __ZN3fmt2v96detail15do_parse_arg_idIcRZNS1_11parse_widthIcRNS1_13specs_checkerINS1_13specs_handlerIcEEEEEEPKT_SB_SB_OT0_E13width_adapterEESB_SB_SB_SD_, symObjAddr: 0x1AD28, symBinAddr: 0x10001E4A8, symSize: 0x280 }
  - { offsetInCU: 0x594DA, offset: 0x594DA, size: 0x8, addend: 0x0, symName: __ZN3fmt2v96detail16get_dynamic_specINS1_13width_checkerENS0_16basic_format_argINS0_20basic_format_contextINS0_8appenderEcEEEENS1_13error_handlerEEEiT0_T1_, symObjAddr: 0x1B11C, symBinAddr: 0x10001E89C, symSize: 0x2E8 }
  - { offsetInCU: 0x5956C, offset: 0x5956C, size: 0x8, addend: 0x0, symName: __ZN3fmt2v96detail7get_argINS0_20basic_format_contextINS0_8appenderEcEENS0_17basic_string_viewIcEEEENT_10format_argERS8_T0_, symObjAddr: 0x1B9B4, symBinAddr: 0x10001F134, symSize: 0x64 }
  - { offsetInCU: 0x595CC, offset: 0x595CC, size: 0x8, addend: 0x0, symName: __ZN3fmt2v96detail15do_parse_arg_idIcRZNS1_15parse_precisionIcRNS1_13specs_checkerINS1_13specs_handlerIcEEEEEEPKT_SB_SB_OT0_E17precision_adapterEESB_SB_SB_SD_, symObjAddr: 0x1BC20, symBinAddr: 0x10001F3A0, symSize: 0x280 }
  - { offsetInCU: 0x59665, offset: 0x59665, size: 0x8, addend: 0x0, symName: __ZN3fmt2v96detail16get_dynamic_specINS1_17precision_checkerENS0_16basic_format_argINS0_20basic_format_contextINS0_8appenderEcEEEENS1_13error_handlerEEEiT0_T1_, symObjAddr: 0x1C014, symBinAddr: 0x10001F794, symSize: 0x2E8 }
  - { offsetInCU: 0x596F7, offset: 0x596F7, size: 0x8, addend: 0x0, symName: __ZN3fmt2v96detail18make_write_int_argIjEENS1_13write_int_argINSt3__111conditionalIXaalecl8num_bitsIT_EELi32EntLi0EEjNS5_IXlecl8num_bitsIS6_EELi64EEyoE4typeEE4typeEEES6_NS0_4sign4typeE, symObjAddr: 0x1C8B8, symBinAddr: 0x100020038, symSize: 0xD0 }
  - { offsetInCU: 0x59BE0, offset: 0x59BE0, size: 0x8, addend: 0x0, symName: __ZN3fmt2v96detail18write_int_noinlineIcNS0_8appenderEyEET0_S4_NS1_13write_int_argIT1_EERKNS0_18basic_format_specsIT_EENS1_10locale_refE, symObjAddr: 0x1C988, symBinAddr: 0x100020108, symSize: 0x968 }
  - { offsetInCU: 0x59F0B, offset: 0x59F0B, size: 0x8, addend: 0x0, symName: __ZN3fmt2v96detail18make_write_int_argIxEENS1_13write_int_argINSt3__111conditionalIXaalecl8num_bitsIT_EELi32EntLi0EEjNS5_IXlecl8num_bitsIS6_EELi64EEyoE4typeEE4typeEEES6_NS0_4sign4typeE, symObjAddr: 0x1D330, symBinAddr: 0x100020AB0, symSize: 0xDC }
  - { offsetInCU: 0x59F8C, offset: 0x59F8C, size: 0x8, addend: 0x0, symName: __ZN3fmt2v96detail12count_digitsILi4EyEEiT0_, symObjAddr: 0x1D40C, symBinAddr: 0x100020B8C, symSize: 0x28 }
  - { offsetInCU: 0x59FEC, offset: 0x59FEC, size: 0x8, addend: 0x0, symName: __ZN3fmt2v96detail12count_digitsILi1EyEEiT0_, symObjAddr: 0x1D434, symBinAddr: 0x100020BB4, symSize: 0x28 }
  - { offsetInCU: 0x5A04C, offset: 0x5A04C, size: 0x8, addend: 0x0, symName: __ZN3fmt2v96detail12count_digitsILi3EyEEiT0_, symObjAddr: 0x1D45C, symBinAddr: 0x100020BDC, symSize: 0x28 }
  - { offsetInCU: 0x5A0AC, offset: 0x5A0AC, size: 0x8, addend: 0x0, symName: __ZN3fmt2v96detail12write_paddedILNS0_5align4typeE2ENS0_8appenderEcZNS1_9write_intIS5_cZNS1_9write_intIcS5_yEET0_S8_NS1_13write_int_argIT1_EERKNS0_18basic_format_specsIT_EENS1_10locale_refEEUlS5_E_EESD_SD_ijRKNSC_IS8_EESA_EUlS5_E_EES8_S8_RKNSC_ISA_EEmOT2_, symObjAddr: 0x1D4D4, symBinAddr: 0x100020C54, symSize: 0x50 }
  - { offsetInCU: 0x5A12C, offset: 0x5A12C, size: 0x8, addend: 0x0, symName: __ZN3fmt2v96detail12write_paddedILNS0_5align4typeE2ENS0_8appenderEcRZNS1_9write_intIS5_cZNS1_9write_intIcS5_yEET0_S8_NS1_13write_int_argIT1_EERKNS0_18basic_format_specsIT_EENS1_10locale_refEEUlS5_E_EESD_SD_ijRKNSC_IS8_EESA_EUlS5_E_EES8_S8_RKNSC_ISA_EEmmOT2_, symObjAddr: 0x1D524, symBinAddr: 0x100020CA4, symSize: 0x1C4 }
  - { offsetInCU: 0x5A262, offset: 0x5A262, size: 0x8, addend: 0x0, symName: __ZN3fmt2v96detail12write_paddedILNS0_5align4typeE2ENS0_8appenderEcZNS1_9write_intIS5_cZNS1_9write_intIcS5_yEET0_S8_NS1_13write_int_argIT1_EERKNS0_18basic_format_specsIT_EENS1_10locale_refEEUlS5_E0_EESD_SD_ijRKNSC_IS8_EESA_EUlS5_E_EES8_S8_RKNSC_ISA_EEmOT2_, symObjAddr: 0x1D864, symBinAddr: 0x100020FE4, symSize: 0x50 }
  - { offsetInCU: 0x5A2E2, offset: 0x5A2E2, size: 0x8, addend: 0x0, symName: __ZN3fmt2v96detail11format_uintILj4EcNS0_8appenderEyEET1_S4_T2_ib, symObjAddr: 0x1D8B4, symBinAddr: 0x100021034, symSize: 0x110 }
  - { offsetInCU: 0x5A386, offset: 0x5A386, size: 0x8, addend: 0x0, symName: __ZN3fmt2v96detail11format_uintILj4EcyEEPT0_S4_T1_ib, symObjAddr: 0x1D9C4, symBinAddr: 0x100021144, symSize: 0xC4 }
  - { offsetInCU: 0x5A430, offset: 0x5A430, size: 0x8, addend: 0x0, symName: __ZN3fmt2v96detail12write_paddedILNS0_5align4typeE2ENS0_8appenderEcRZNS1_9write_intIS5_cZNS1_9write_intIcS5_yEET0_S8_NS1_13write_int_argIT1_EERKNS0_18basic_format_specsIT_EENS1_10locale_refEEUlS5_E0_EESD_SD_ijRKNSC_IS8_EESA_EUlS5_E_EES8_S8_RKNSC_ISA_EEmmOT2_, symObjAddr: 0x1DA88, symBinAddr: 0x100021208, symSize: 0x1C4 }
  - { offsetInCU: 0x5A566, offset: 0x5A566, size: 0x8, addend: 0x0, symName: __ZN3fmt2v96detail12write_paddedILNS0_5align4typeE2ENS0_8appenderEcZNS1_9write_intIS5_cZNS1_9write_intIcS5_yEET0_S8_NS1_13write_int_argIT1_EERKNS0_18basic_format_specsIT_EENS1_10locale_refEEUlS5_E1_EESD_SD_ijRKNSC_IS8_EESA_EUlS5_E_EES8_S8_RKNSC_ISA_EEmOT2_, symObjAddr: 0x1DDC8, symBinAddr: 0x100021548, symSize: 0x50 }
  - { offsetInCU: 0x5A5E6, offset: 0x5A5E6, size: 0x8, addend: 0x0, symName: __ZN3fmt2v96detail11format_uintILj1EcNS0_8appenderEyEET1_S4_T2_ib, symObjAddr: 0x1DE18, symBinAddr: 0x100021598, symSize: 0x110 }
  - { offsetInCU: 0x5A68C, offset: 0x5A68C, size: 0x8, addend: 0x0, symName: __ZN3fmt2v96detail11format_uintILj1EcyEEPT0_S4_T1_ib, symObjAddr: 0x1DF28, symBinAddr: 0x1000216A8, symSize: 0xB8 }
  - { offsetInCU: 0x5A736, offset: 0x5A736, size: 0x8, addend: 0x0, symName: __ZN3fmt2v96detail12write_paddedILNS0_5align4typeE2ENS0_8appenderEcRZNS1_9write_intIS5_cZNS1_9write_intIcS5_yEET0_S8_NS1_13write_int_argIT1_EERKNS0_18basic_format_specsIT_EENS1_10locale_refEEUlS5_E1_EESD_SD_ijRKNSC_IS8_EESA_EUlS5_E_EES8_S8_RKNSC_ISA_EEmmOT2_, symObjAddr: 0x1DFE0, symBinAddr: 0x100021760, symSize: 0x1C4 }
  - { offsetInCU: 0x5A86C, offset: 0x5A86C, size: 0x8, addend: 0x0, symName: __ZN3fmt2v96detail12write_paddedILNS0_5align4typeE2ENS0_8appenderEcZNS1_9write_intIS5_cZNS1_9write_intIcS5_yEET0_S8_NS1_13write_int_argIT1_EERKNS0_18basic_format_specsIT_EENS1_10locale_refEEUlS5_E2_EESD_SD_ijRKNSC_IS8_EESA_EUlS5_E_EES8_S8_RKNSC_ISA_EEmOT2_, symObjAddr: 0x1E320, symBinAddr: 0x100021AA0, symSize: 0x50 }
  - { offsetInCU: 0x5A8EC, offset: 0x5A8EC, size: 0x8, addend: 0x0, symName: __ZN3fmt2v96detail11format_uintILj3EcNS0_8appenderEyEET1_S4_T2_ib, symObjAddr: 0x1E370, symBinAddr: 0x100021AF0, symSize: 0x110 }
  - { offsetInCU: 0x5A990, offset: 0x5A990, size: 0x8, addend: 0x0, symName: __ZN3fmt2v96detail11format_uintILj3EcyEEPT0_S4_T1_ib, symObjAddr: 0x1E480, symBinAddr: 0x100021C00, symSize: 0xB8 }
  - { offsetInCU: 0x5AA3A, offset: 0x5AA3A, size: 0x8, addend: 0x0, symName: __ZN3fmt2v96detail12write_paddedILNS0_5align4typeE2ENS0_8appenderEcRZNS1_9write_intIS5_cZNS1_9write_intIcS5_yEET0_S8_NS1_13write_int_argIT1_EERKNS0_18basic_format_specsIT_EENS1_10locale_refEEUlS5_E2_EESD_SD_ijRKNSC_IS8_EESA_EUlS5_E_EES8_S8_RKNSC_ISA_EEmmOT2_, symObjAddr: 0x1E538, symBinAddr: 0x100021CB8, symSize: 0x1C4 }
  - { offsetInCU: 0x5AB70, offset: 0x5AB70, size: 0x8, addend: 0x0, symName: __ZN3fmt2v96detail18make_write_int_argIyEENS1_13write_int_argINSt3__111conditionalIXaalecl8num_bitsIT_EELi32EntLi0EEjNS5_IXlecl8num_bitsIS6_EELi64EEyoE4typeEE4typeEEES6_NS0_4sign4typeE, symObjAddr: 0x1E7E0, symBinAddr: 0x100021F60, symSize: 0xDC }
  - { offsetInCU: 0x5B059, offset: 0x5B059, size: 0x8, addend: 0x0, symName: __ZN3fmt2v96detail18write_int_noinlineIcNS0_8appenderEoEET0_S4_NS1_13write_int_argIT1_EERKNS0_18basic_format_specsIT_EENS1_10locale_refE, symObjAddr: 0x1E8BC, symBinAddr: 0x10002203C, symSize: 0xA34 }
  - { offsetInCU: 0x5B38F, offset: 0x5B38F, size: 0x8, addend: 0x0, symName: __ZN3fmt2v96detail18make_write_int_argInEENS1_13write_int_argINSt3__111conditionalIXaalecl8num_bitsIT_EELi32EntLi0EEjNS5_IXlecl8num_bitsIS6_EELi64EEyoE4typeEE4typeEEES6_NS0_4sign4typeE, symObjAddr: 0x1F330, symBinAddr: 0x100022AB0, symSize: 0xF4 }
  - { offsetInCU: 0x5B410, offset: 0x5B410, size: 0x8, addend: 0x0, symName: __ZN3fmt2v96detail19write_int_localizedINS0_8appenderEocEEbRT_T0_jRKNS0_18basic_format_specsIT1_EENS1_10locale_refE, symObjAddr: 0x1F424, symBinAddr: 0x100022BA4, symSize: 0xD4 }
  - { offsetInCU: 0x5B4A5, offset: 0x5B4A5, size: 0x8, addend: 0x0, symName: __ZN3fmt2v96detail12count_digitsILi4EoEEiT0_, symObjAddr: 0x1F4F8, symBinAddr: 0x100022C78, symSize: 0x40 }
  - { offsetInCU: 0x5B505, offset: 0x5B505, size: 0x8, addend: 0x0, symName: __ZN3fmt2v96detail12count_digitsILi1EoEEiT0_, symObjAddr: 0x1F538, symBinAddr: 0x100022CB8, symSize: 0x40 }
  - { offsetInCU: 0x5B565, offset: 0x5B565, size: 0x8, addend: 0x0, symName: __ZN3fmt2v96detail12count_digitsILi3EoEEiT0_, symObjAddr: 0x1F578, symBinAddr: 0x100022CF8, symSize: 0x40 }
  - { offsetInCU: 0x5B5C5, offset: 0x5B5C5, size: 0x8, addend: 0x0, symName: __ZN3fmt2v96detail19write_int_localizedINS0_8appenderEocEET_S4_T0_jRKNS0_18basic_format_specsIT1_EERKNS1_14digit_groupingIS7_EE, symObjAddr: 0x1F5B8, symBinAddr: 0x100022D38, symSize: 0x15C }
  - { offsetInCU: 0x5B6D0, offset: 0x5B6D0, size: 0x8, addend: 0x0, symName: __ZN3fmt2v96detail12write_paddedILNS0_5align4typeE2ENS0_8appenderEcZNS1_19write_int_localizedIS5_ocEET_S7_T0_jRKNS0_18basic_format_specsIT1_EERKNS1_14digit_groupingISA_EEEUlS5_E_EES8_S8_SD_mmOT2_, symObjAddr: 0x1F714, symBinAddr: 0x100022E94, symSize: 0x1C4 }
  - { offsetInCU: 0x5B7BD, offset: 0x5B7BD, size: 0x8, addend: 0x0, symName: __ZN3fmt2v96detail12write_paddedILNS0_5align4typeE2ENS0_8appenderEcZNS1_9write_intIS5_cZNS1_9write_intIcS5_oEET0_S8_NS1_13write_int_argIT1_EERKNS0_18basic_format_specsIT_EENS1_10locale_refEEUlS5_E_EESD_SD_ijRKNSC_IS8_EESA_EUlS5_E_EES8_S8_RKNSC_ISA_EEmOT2_, symObjAddr: 0x1FA18, symBinAddr: 0x100023198, symSize: 0x50 }
  - { offsetInCU: 0x5B83D, offset: 0x5B83D, size: 0x8, addend: 0x0, symName: __ZN3fmt2v96detail12write_paddedILNS0_5align4typeE2ENS0_8appenderEcRZNS1_9write_intIS5_cZNS1_9write_intIcS5_oEET0_S8_NS1_13write_int_argIT1_EERKNS0_18basic_format_specsIT_EENS1_10locale_refEEUlS5_E_EESD_SD_ijRKNSC_IS8_EESA_EUlS5_E_EES8_S8_RKNSC_ISA_EEmmOT2_, symObjAddr: 0x1FA68, symBinAddr: 0x1000231E8, symSize: 0x1C4 }
  - { offsetInCU: 0x5B973, offset: 0x5B973, size: 0x8, addend: 0x0, symName: __ZN3fmt2v96detail12write_paddedILNS0_5align4typeE2ENS0_8appenderEcZNS1_9write_intIS5_cZNS1_9write_intIcS5_oEET0_S8_NS1_13write_int_argIT1_EERKNS0_18basic_format_specsIT_EENS1_10locale_refEEUlS5_E0_EESD_SD_ijRKNSC_IS8_EESA_EUlS5_E_EES8_S8_RKNSC_ISA_EEmOT2_, symObjAddr: 0x1FDF4, symBinAddr: 0x100023574, symSize: 0x50 }
  - { offsetInCU: 0x5B9F3, offset: 0x5B9F3, size: 0x8, addend: 0x0, symName: __ZN3fmt2v96detail11format_uintILj4EcNS0_8appenderEoEET1_S4_T2_ib, symObjAddr: 0x1FE44, symBinAddr: 0x1000235C4, symSize: 0x138 }
  - { offsetInCU: 0x5BA98, offset: 0x5BA98, size: 0x8, addend: 0x0, symName: __ZN3fmt2v96detail11format_uintILj4EcoEEPT0_S4_T1_ib, symObjAddr: 0x1FF7C, symBinAddr: 0x1000236FC, symSize: 0x10C }
  - { offsetInCU: 0x5BB43, offset: 0x5BB43, size: 0x8, addend: 0x0, symName: __ZN3fmt2v96detail12write_paddedILNS0_5align4typeE2ENS0_8appenderEcRZNS1_9write_intIS5_cZNS1_9write_intIcS5_oEET0_S8_NS1_13write_int_argIT1_EERKNS0_18basic_format_specsIT_EENS1_10locale_refEEUlS5_E0_EESD_SD_ijRKNSC_IS8_EESA_EUlS5_E_EES8_S8_RKNSC_ISA_EEmmOT2_, symObjAddr: 0x20088, symBinAddr: 0x100023808, symSize: 0x1C4 }
  - { offsetInCU: 0x5BC79, offset: 0x5BC79, size: 0x8, addend: 0x0, symName: __ZN3fmt2v96detail12write_paddedILNS0_5align4typeE2ENS0_8appenderEcZNS1_9write_intIS5_cZNS1_9write_intIcS5_oEET0_S8_NS1_13write_int_argIT1_EERKNS0_18basic_format_specsIT_EENS1_10locale_refEEUlS5_E1_EESD_SD_ijRKNSC_IS8_EESA_EUlS5_E_EES8_S8_RKNSC_ISA_EEmOT2_, symObjAddr: 0x20414, symBinAddr: 0x100023B94, symSize: 0x50 }
  - { offsetInCU: 0x5BCF9, offset: 0x5BCF9, size: 0x8, addend: 0x0, symName: __ZN3fmt2v96detail11format_uintILj1EcNS0_8appenderEoEET1_S4_T2_ib, symObjAddr: 0x20464, symBinAddr: 0x100023BE4, symSize: 0x140 }
  - { offsetInCU: 0x5BD9F, offset: 0x5BD9F, size: 0x8, addend: 0x0, symName: __ZN3fmt2v96detail11format_uintILj1EcoEEPT0_S4_T1_ib, symObjAddr: 0x205A4, symBinAddr: 0x100023D24, symSize: 0x100 }
  - { offsetInCU: 0x5BE4A, offset: 0x5BE4A, size: 0x8, addend: 0x0, symName: __ZN3fmt2v96detail12write_paddedILNS0_5align4typeE2ENS0_8appenderEcRZNS1_9write_intIS5_cZNS1_9write_intIcS5_oEET0_S8_NS1_13write_int_argIT1_EERKNS0_18basic_format_specsIT_EENS1_10locale_refEEUlS5_E1_EESD_SD_ijRKNSC_IS8_EESA_EUlS5_E_EES8_S8_RKNSC_ISA_EEmmOT2_, symObjAddr: 0x206A4, symBinAddr: 0x100023E24, symSize: 0x1C4 }
  - { offsetInCU: 0x5BF80, offset: 0x5BF80, size: 0x8, addend: 0x0, symName: __ZN3fmt2v96detail12write_paddedILNS0_5align4typeE2ENS0_8appenderEcZNS1_9write_intIS5_cZNS1_9write_intIcS5_oEET0_S8_NS1_13write_int_argIT1_EERKNS0_18basic_format_specsIT_EENS1_10locale_refEEUlS5_E2_EESD_SD_ijRKNSC_IS8_EESA_EUlS5_E_EES8_S8_RKNSC_ISA_EEmOT2_, symObjAddr: 0x20A30, symBinAddr: 0x1000241B0, symSize: 0x50 }
  - { offsetInCU: 0x5C000, offset: 0x5C000, size: 0x8, addend: 0x0, symName: __ZN3fmt2v96detail11format_uintILj3EcNS0_8appenderEoEET1_S4_T2_ib, symObjAddr: 0x20A80, symBinAddr: 0x100024200, symSize: 0x138 }
  - { offsetInCU: 0x5C0A5, offset: 0x5C0A5, size: 0x8, addend: 0x0, symName: __ZN3fmt2v96detail11format_uintILj3EcoEEPT0_S4_T1_ib, symObjAddr: 0x20BB8, symBinAddr: 0x100024338, symSize: 0x100 }
  - { offsetInCU: 0x5C150, offset: 0x5C150, size: 0x8, addend: 0x0, symName: __ZN3fmt2v96detail12write_paddedILNS0_5align4typeE2ENS0_8appenderEcRZNS1_9write_intIS5_cZNS1_9write_intIcS5_oEET0_S8_NS1_13write_int_argIT1_EERKNS0_18basic_format_specsIT_EENS1_10locale_refEEUlS5_E2_EESD_SD_ijRKNSC_IS8_EESA_EUlS5_E_EES8_S8_RKNSC_ISA_EEmmOT2_, symObjAddr: 0x20CB8, symBinAddr: 0x100024438, symSize: 0x1C4 }
  - { offsetInCU: 0x5C286, offset: 0x5C286, size: 0x8, addend: 0x0, symName: __ZN3fmt2v96detail18make_write_int_argIoEENS1_13write_int_argINSt3__111conditionalIXaalecl8num_bitsIT_EELi32EntLi0EEjNS5_IXlecl8num_bitsIS6_EELi64EEyoE4typeEE4typeEEES6_NS0_4sign4typeE, symObjAddr: 0x20F60, symBinAddr: 0x1000246E0, symSize: 0xF4 }
  - { offsetInCU: 0x5C307, offset: 0x5C307, size: 0x8, addend: 0x0, symName: __ZN3fmt2v96detail5writeIcNS0_8appenderEEET0_S4_T_RKNS0_18basic_format_specsIS5_EENS1_10locale_refE, symObjAddr: 0x21054, symBinAddr: 0x1000247D4, symSize: 0xE8 }
  - { offsetInCU: 0x5C3AB, offset: 0x5C3AB, size: 0x8, addend: 0x0, symName: __ZN3fmt2v96detail16check_char_specsIcNS1_13error_handlerEEEbRKNS0_18basic_format_specsIT_EEOT0_, symObjAddr: 0x2113C, symBinAddr: 0x1000248BC, symSize: 0x114 }
  - { offsetInCU: 0x5C3FA, offset: 0x5C3FA, size: 0x8, addend: 0x0, symName: __ZN3fmt2v96detail19check_int_type_specIRNS1_13error_handlerEEEvNS0_17presentation_typeEOT_, symObjAddr: 0x21250, symBinAddr: 0x1000249D0, symSize: 0x58 }
  - { offsetInCU: 0x5C43C, offset: 0x5C43C, size: 0x8, addend: 0x0, symName: __ZN3fmt2v96detail5writeIcNS0_8appenderEfLi0EEET0_S4_T1_NS0_18basic_format_specsIT_EENS1_10locale_refE, symObjAddr: 0x212A8, symBinAddr: 0x100024A28, symSize: 0x5C4 }
  - { offsetInCU: 0x5C568, offset: 0x5C568, size: 0x8, addend: 0x0, symName: __ZN3fmt2v96detail21parse_float_type_specINS1_13error_handlerEcEENS1_11float_specsERKNS0_18basic_format_specsIT0_EEOT_, symObjAddr: 0x2186C, symBinAddr: 0x100024FEC, symSize: 0x208 }
  - { offsetInCU: 0x5C5C6, offset: 0x5C5C6, size: 0x8, addend: 0x0, symName: __ZN3fmt2v96detail8isfiniteIfLi0EEEbT_, symObjAddr: 0x21AB0, symBinAddr: 0x100025230, symSize: 0x34 }
  - { offsetInCU: 0x5C612, offset: 0x5C612, size: 0x8, addend: 0x0, symName: __ZN3fmt2v96detail5isnanIfEEbT_, symObjAddr: 0x21AE4, symBinAddr: 0x100025264, symSize: 0x24 }
  - { offsetInCU: 0x5C649, offset: 0x5C649, size: 0x8, addend: 0x0, symName: __ZN3fmt2v96detail14snprintf_floatIdEEiT_iNS1_11float_specsERNS1_6bufferIcEE, symObjAddr: 0x21B08, symBinAddr: 0x100025288, symSize: 0x2C4 }
  - { offsetInCU: 0x5C734, offset: 0x5C734, size: 0x8, addend: 0x0, symName: __ZN3fmt2v96detail13convert_floatIfEENSt3__111conditionalIXoosr3std7is_sameIT_fEE5valueeqstS5_Lm8EEdS5_E4typeES5_, symObjAddr: 0x21DCC, symBinAddr: 0x10002554C, symSize: 0x18 }
  - { offsetInCU: 0x5C76B, offset: 0x5C76B, size: 0x8, addend: 0x0, symName: __ZN3fmt2v96detail11write_bytesILNS0_5align4typeE2EcNS0_8appenderEEET1_S6_NS0_17basic_string_viewIcEERKNS0_18basic_format_specsIT0_EE, symObjAddr: 0x21DE4, symBinAddr: 0x100025564, symSize: 0x64 }
  - { offsetInCU: 0x5C991, offset: 0x5C991, size: 0x8, addend: 0x0, symName: __ZN3fmt2v96detail12format_floatIdEEiT_iNS1_11float_specsERNS1_6bufferIcEE, symObjAddr: 0x21E48, symBinAddr: 0x1000255C8, symSize: 0x978 }
  - { offsetInCU: 0x5CC08, offset: 0x5CC08, size: 0x8, addend: 0x0, symName: __ZN3fmt2v96detail11write_floatINS0_8appenderENS1_14big_decimal_fpEcEET_S5_RKT0_RKNS0_18basic_format_specsIT1_EENS1_11float_specsENS1_10locale_refE, symObjAddr: 0x227E8, symBinAddr: 0x100025F68, symSize: 0x64 }
  - { offsetInCU: 0x5CC8D, offset: 0x5CC8D, size: 0x8, addend: 0x0, symName: __ZN3fmt2v96detail12write_paddedILNS0_5align4typeE2ENS0_8appenderEcZNS1_11write_bytesILS4_2EcS5_EET1_S7_NS0_17basic_string_viewIcEERKNS0_18basic_format_specsIT0_EEEUlS5_E_EESB_SB_RKNSA_IS7_EEmOT2_, symObjAddr: 0x22880, symBinAddr: 0x100026000, symSize: 0x50 }
  - { offsetInCU: 0x5CD0D, offset: 0x5CD0D, size: 0x8, addend: 0x0, symName: __ZN3fmt2v96detail12write_paddedILNS0_5align4typeE2ENS0_8appenderEcRZNS1_11write_bytesILS4_2EcS5_EET1_S7_NS0_17basic_string_viewIcEERKNS0_18basic_format_specsIT0_EEEUlS5_E_EESB_SB_RKNSA_IS7_EEmmOT2_, symObjAddr: 0x228D0, symBinAddr: 0x100026050, symSize: 0x1C4 }
  - { offsetInCU: 0x5CDFA, offset: 0x5CDFA, size: 0x8, addend: 0x0, symName: __ZN3fmt2v96detail13convert_floatIdEENSt3__111conditionalIXoosr3std7is_sameIT_fEE5valueeqstS5_Lm8EEdS5_E4typeES5_, symObjAddr: 0x22B08, symBinAddr: 0x100026288, symSize: 0x14 }
  - { offsetInCU: 0x5CE31, offset: 0x5CE31, size: 0x8, addend: 0x0, symName: __ZN3fmt2v96detail6fill_nIciEEPT_S4_T0_c, symObjAddr: 0x22B1C, symBinAddr: 0x10002629C, symSize: 0x60 }
  - { offsetInCU: 0x5CE8F, offset: 0x5CE8F, size: 0x8, addend: 0x0, symName: __ZN3fmt2v96detail9normalizeILi0EyEENS1_8basic_fpIT0_EES5_, symObjAddr: 0x22B7C, symBinAddr: 0x1000262FC, symSize: 0x84 }
  - { offsetInCU: 0x5CEFD, offset: 0x5CEFD, size: 0x8, addend: 0x0, symName: __ZN3fmt2v96detail16get_cached_powerEiRi, symObjAddr: 0x22C34, symBinAddr: 0x1000263B4, symSize: 0xCC }
  - { offsetInCU: 0x5CF85, offset: 0x5CF85, size: 0x8, addend: 0x0, symName: __ZN3fmt2v96detailmlENS1_8basic_fpIyEES3_, symObjAddr: 0x22D00, symBinAddr: 0x100026480, symSize: 0x58 }
  - { offsetInCU: 0x5D078, offset: 0x5D078, size: 0x8, addend: 0x0, symName: __ZN3fmt2v96detail13format_dragonENS1_8basic_fpIoEEjiRNS1_6bufferIcEERi, symObjAddr: 0x22FD0, symBinAddr: 0x100026750, symSize: 0xADC }
  - { offsetInCU: 0x5D277, offset: 0x5D277, size: 0x8, addend: 0x0, symName: __ZN3fmt2v96detail8multiplyEyy, symObjAddr: 0x23C88, symBinAddr: 0x100027408, symSize: 0x88 }
  - { offsetInCU: 0x5D2D2, offset: 0x5D2D2, size: 0x8, addend: 0x0, symName: __ZN3fmt2v96detail16adjust_precisionERii, symObjAddr: 0x23D10, symBinAddr: 0x100027490, symSize: 0xCC }
  - { offsetInCU: 0x5D30B, offset: 0x5D30B, size: 0x8, addend: 0x0, symName: __ZN3fmt2v96detail19get_round_directionEyyy, symObjAddr: 0x23DDC, symBinAddr: 0x10002755C, symSize: 0x174 }
  - { offsetInCU: 0x5D357, offset: 0x5D357, size: 0x8, addend: 0x0, symName: __ZN3fmt2v96detail11add_compareERKNS1_6bigintES4_S4_, symObjAddr: 0x2489C, symBinAddr: 0x10002801C, symSize: 0x204 }
  - { offsetInCU: 0x5D4C1, offset: 0x5D4C1, size: 0x8, addend: 0x0, symName: __ZN3fmt2v96detail7compareERKNS1_6bigintES4_, symObjAddr: 0x24C30, symBinAddr: 0x1000283B0, symSize: 0x1B4 }
  - { offsetInCU: 0x5D575, offset: 0x5D575, size: 0x8, addend: 0x0, symName: __ZN3fmt2v96detail12make_checkedIjEEPT_S4_m, symObjAddr: 0x25244, symBinAddr: 0x1000289C4, symSize: 0x18 }
  - { offsetInCU: 0x5D5B8, offset: 0x5D5B8, size: 0x8, addend: 0x0, symName: __ZN3fmt2v96detail8num_bitsIjEEiv, symObjAddr: 0x25BA0, symBinAddr: 0x100029320, symSize: 0x8 }
  - { offsetInCU: 0x5D5E0, offset: 0x5D5E0, size: 0x8, addend: 0x0, symName: __ZN3fmt2v96detail8copy_strIjPjS3_EET1_T0_S5_S4_, symObjAddr: 0x25DF4, symBinAddr: 0x100029574, symSize: 0x5C }
  - { offsetInCU: 0x5D647, offset: 0x5D647, size: 0x8, addend: 0x0, symName: __ZN3fmt2v96detail8num_bitsIyEEiv, symObjAddr: 0x26808, symBinAddr: 0x100029F88, symSize: 0x8 }
  - { offsetInCU: 0x5D66F, offset: 0x5D66F, size: 0x8, addend: 0x0, symName: __ZN3fmt2v96detail14do_write_floatINS0_8appenderENS1_14big_decimal_fpEcNS1_14digit_groupingIcEEEET_S7_RKT0_RKNS0_18basic_format_specsIT1_EENS1_11float_specsENS1_10locale_refE, symObjAddr: 0x26ED4, symBinAddr: 0x10002A654, symSize: 0x7DC }
  - { offsetInCU: 0x5DAB3, offset: 0x5DAB3, size: 0x8, addend: 0x0, symName: __ZN3fmt2v96detail20get_significand_sizeERKNS1_14big_decimal_fpE, symObjAddr: 0x276B0, symBinAddr: 0x10002AE30, symSize: 0x18 }
  - { offsetInCU: 0x5DAE1, offset: 0x5DAE1, size: 0x8, addend: 0x0, symName: __ZN3fmt2v96detail12write_paddedILNS0_5align4typeE2ENS0_8appenderEcRZNS1_14do_write_floatIS5_NS1_14big_decimal_fpEcNS1_14digit_groupingIcEEEET_SA_RKT0_RKNS0_18basic_format_specsIT1_EENS1_11float_specsENS1_10locale_refEEUlS5_E_EESB_SB_SI_mOT2_, symObjAddr: 0x277D8, symBinAddr: 0x10002AF58, symSize: 0x50 }
  - { offsetInCU: 0x5DB61, offset: 0x5DB61, size: 0x8, addend: 0x0, symName: __ZN3fmt2v96detail12write_paddedILNS0_5align4typeE2ENS0_8appenderEcZNS1_14do_write_floatIS5_NS1_14big_decimal_fpEcNS1_14digit_groupingIcEEEET_SA_RKT0_RKNS0_18basic_format_specsIT1_EENS1_11float_specsENS1_10locale_refEEUlS5_E0_EESB_SB_SI_mOT2_, symObjAddr: 0x27970, symBinAddr: 0x10002B0F0, symSize: 0x50 }
  - { offsetInCU: 0x5DBE1, offset: 0x5DBE1, size: 0x8, addend: 0x0, symName: __ZN3fmt2v96detail12write_paddedILNS0_5align4typeE2ENS0_8appenderEcZNS1_14do_write_floatIS5_NS1_14big_decimal_fpEcNS1_14digit_groupingIcEEEET_SA_RKT0_RKNS0_18basic_format_specsIT1_EENS1_11float_specsENS1_10locale_refEEUlS5_E1_EESB_SB_SI_mOT2_, symObjAddr: 0x279C0, symBinAddr: 0x10002B140, symSize: 0x50 }
  - { offsetInCU: 0x5DC61, offset: 0x5DC61, size: 0x8, addend: 0x0, symName: __ZN3fmt2v96detail12write_paddedILNS0_5align4typeE2ENS0_8appenderEcZNS1_14do_write_floatIS5_NS1_14big_decimal_fpEcNS1_14digit_groupingIcEEEET_SA_RKT0_RKNS0_18basic_format_specsIT1_EENS1_11float_specsENS1_10locale_refEEUlS5_E2_EESB_SB_SI_mOT2_, symObjAddr: 0x27A10, symBinAddr: 0x10002B190, symSize: 0x50 }
  - { offsetInCU: 0x5DCE1, offset: 0x5DCE1, size: 0x8, addend: 0x0, symName: __ZN3fmt2v96detail12write_paddedILNS0_5align4typeE2ENS0_8appenderEcRZNS1_14do_write_floatIS5_NS1_14big_decimal_fpEcNS1_14digit_groupingIcEEEET_SA_RKT0_RKNS0_18basic_format_specsIT1_EENS1_11float_specsENS1_10locale_refEEUlS5_E_EESB_SB_SI_mmOT2_, symObjAddr: 0x27A60, symBinAddr: 0x10002B1E0, symSize: 0x1C4 }
  - { offsetInCU: 0x5DDCE, offset: 0x5DDCE, size: 0x8, addend: 0x0, symName: __ZN3fmt2v96detail17write_significandINS0_8appenderEcEET_S4_PKciiT0_, symObjAddr: 0x27C24, symBinAddr: 0x10002B3A4, symSize: 0xD0 }
  - { offsetInCU: 0x5DE4A, offset: 0x5DE4A, size: 0x8, addend: 0x0, symName: __ZN3fmt2v96detail12write_paddedILNS0_5align4typeE2ENS0_8appenderEcRZNS1_14do_write_floatIS5_NS1_14big_decimal_fpEcNS1_14digit_groupingIcEEEET_SA_RKT0_RKNS0_18basic_format_specsIT1_EENS1_11float_specsENS1_10locale_refEEUlS5_E0_EESB_SB_SI_mmOT2_, symObjAddr: 0x27CF4, symBinAddr: 0x10002B474, symSize: 0x1C4 }
  - { offsetInCU: 0x5DF37, offset: 0x5DF37, size: 0x8, addend: 0x0, symName: __ZN3fmt2v96detail17write_significandIcNS0_8appenderEPKcNS1_14digit_groupingIcEEEET0_S8_T1_iiRKT2_, symObjAddr: 0x28020, symBinAddr: 0x10002B7A0, symSize: 0x1E8 }
  - { offsetInCU: 0x5DFDA, offset: 0x5DFDA, size: 0x8, addend: 0x0, symName: __ZN3fmt2v96detail17write_significandIcNS0_8appenderEEET0_S4_PKci, symObjAddr: 0x28208, symBinAddr: 0x10002B988, symSize: 0x4C }
  - { offsetInCU: 0x5E038, offset: 0x5E038, size: 0x8, addend: 0x0, symName: __ZN3fmt2v96detail12write_paddedILNS0_5align4typeE2ENS0_8appenderEcRZNS1_14do_write_floatIS5_NS1_14big_decimal_fpEcNS1_14digit_groupingIcEEEET_SA_RKT0_RKNS0_18basic_format_specsIT1_EENS1_11float_specsENS1_10locale_refEEUlS5_E1_EESB_SB_SI_mmOT2_, symObjAddr: 0x28254, symBinAddr: 0x10002B9D4, symSize: 0x1C4 }
  - { offsetInCU: 0x5E125, offset: 0x5E125, size: 0x8, addend: 0x0, symName: __ZN3fmt2v96detail17write_significandINS0_8appenderEcPKcNS1_14digit_groupingIcEEEET_S8_T1_iiT0_RKT2_, symObjAddr: 0x28534, symBinAddr: 0x10002BCB4, symSize: 0x1EC }
  - { offsetInCU: 0x5E1D8, offset: 0x5E1D8, size: 0x8, addend: 0x0, symName: __ZN3fmt2v96detail12write_paddedILNS0_5align4typeE2ENS0_8appenderEcRZNS1_14do_write_floatIS5_NS1_14big_decimal_fpEcNS1_14digit_groupingIcEEEET_SA_RKT0_RKNS0_18basic_format_specsIT1_EENS1_11float_specsENS1_10locale_refEEUlS5_E2_EESB_SB_SI_mmOT2_, symObjAddr: 0x28720, symBinAddr: 0x10002BEA0, symSize: 0x1C4 }
  - { offsetInCU: 0x5E2C5, offset: 0x5E2C5, size: 0x8, addend: 0x0, symName: __ZN3fmt2v96detail5writeIcNS0_8appenderEdLi0EEET0_S4_T1_NS0_18basic_format_specsIT_EENS1_10locale_refE, symObjAddr: 0x28A44, symBinAddr: 0x10002C1C4, symSize: 0x584 }
  - { offsetInCU: 0x5E3F1, offset: 0x5E3F1, size: 0x8, addend: 0x0, symName: __ZN3fmt2v96detail8isfiniteIdLi0EEEbT_, symObjAddr: 0x28FC8, symBinAddr: 0x10002C748, symSize: 0x34 }
  - { offsetInCU: 0x5E43D, offset: 0x5E43D, size: 0x8, addend: 0x0, symName: __ZN3fmt2v96detail5isnanIdEEbT_, symObjAddr: 0x28FFC, symBinAddr: 0x10002C77C, symSize: 0x24 }
  - { offsetInCU: 0x5E474, offset: 0x5E474, size: 0x8, addend: 0x0, symName: __ZN3fmt2v96detail5writeIcNS0_8appenderEeLi0EEET0_S4_T1_NS0_18basic_format_specsIT_EENS1_10locale_refE, symObjAddr: 0x29054, symBinAddr: 0x10002C7D4, symSize: 0x59C }
  - { offsetInCU: 0x5E5A0, offset: 0x5E5A0, size: 0x8, addend: 0x0, symName: __ZN3fmt2v96detail8isfiniteIeLi0EEEbT_, symObjAddr: 0x295F0, symBinAddr: 0x10002CD70, symSize: 0x34 }
  - { offsetInCU: 0x5E5EC, offset: 0x5E5EC, size: 0x8, addend: 0x0, symName: __ZN3fmt2v96detail5isnanIeEEbT_, symObjAddr: 0x29624, symBinAddr: 0x10002CDA4, symSize: 0x24 }
  - { offsetInCU: 0x5E623, offset: 0x5E623, size: 0x8, addend: 0x0, symName: __ZN3fmt2v96detail13convert_floatIeEENSt3__111conditionalIXoosr3std7is_sameIT_fEE5valueeqstS5_Lm8EEdS5_E4typeES5_, symObjAddr: 0x29648, symBinAddr: 0x10002CDC8, symSize: 0x14 }
  - { offsetInCU: 0x5E65A, offset: 0x5E65A, size: 0x8, addend: 0x0, symName: __ZN3fmt2v96detail5writeIcNS0_8appenderEEET0_S4_PKT_RKNS0_18basic_format_specsIS5_EENS1_10locale_refE, symObjAddr: 0x29690, symBinAddr: 0x10002CE10, symSize: 0xE4 }
  - { offsetInCU: 0x5E711, offset: 0x5E711, size: 0x8, addend: 0x0, symName: __ZN3fmt2v96detail23check_cstring_type_specINS1_13error_handlerEEEbNS0_17presentation_typeEOT_, symObjAddr: 0x29774, symBinAddr: 0x10002CEF4, symSize: 0xB0 }
  - { offsetInCU: 0x5E757, offset: 0x5E757, size: 0x8, addend: 0x0, symName: __ZN3fmt2v96detail5writeIcNS0_8appenderEEET0_S4_NS0_17basic_string_viewINS0_13type_identityIT_E4typeEEERKNS0_18basic_format_specsIS7_EENS1_10locale_refE, symObjAddr: 0x29824, symBinAddr: 0x10002CFA4, symSize: 0x68 }
  - { offsetInCU: 0x5E7C1, offset: 0x5E7C1, size: 0x8, addend: 0x0, symName: __ZN3fmt2v96detail8bit_castImPKcLi0EEET_RKT0_, symObjAddr: 0x2988C, symBinAddr: 0x10002D00C, symSize: 0x24 }
  - { offsetInCU: 0x5E816, offset: 0x5E816, size: 0x8, addend: 0x0, symName: __ZN3fmt2v96detail22check_string_type_specINS1_13error_handlerEEEvNS0_17presentation_typeEOT_, symObjAddr: 0x298B0, symBinAddr: 0x10002D030, symSize: 0x6C }
  - { offsetInCU: 0x5E858, offset: 0x5E858, size: 0x8, addend: 0x0, symName: __ZN3fmt2v96detail5writeIcNS0_8appenderEEET0_S4_NS0_17basic_string_viewIT_EERKNS0_18basic_format_specsIS6_EE, symObjAddr: 0x2991C, symBinAddr: 0x10002D09C, symSize: 0x1A4 }
  - { offsetInCU: 0x5E947, offset: 0x5E947, size: 0x8, addend: 0x0, symName: __ZN3fmt2v96detail16code_point_indexENS0_17basic_string_viewIcEEm, symObjAddr: 0x29AC0, symBinAddr: 0x10002D240, symSize: 0xE0 }
  - { offsetInCU: 0x5E9CE, offset: 0x5E9CE, size: 0x8, addend: 0x0, symName: __ZN3fmt2v96detail20write_escaped_stringIcNS1_17counting_iteratorEEET0_S4_NS0_17basic_string_viewIT_EE, symObjAddr: 0x29BA0, symBinAddr: 0x10002D320, symSize: 0x178 }
  - { offsetInCU: 0x5EB07, offset: 0x5EB07, size: 0x8, addend: 0x0, symName: __ZN3fmt2v96detail12write_paddedILNS0_5align4typeE1ENS0_8appenderEcZNS1_5writeIcS5_EET0_S7_NS0_17basic_string_viewIT_EERKNS0_18basic_format_specsIS9_EEEUlS5_E_EES7_S7_RKNSB_IT1_EEmmOT2_, symObjAddr: 0x29DA4, symBinAddr: 0x10002D524, symSize: 0x1C4 }
  - { offsetInCU: 0x5EBF4, offset: 0x5EBF4, size: 0x8, addend: 0x0, symName: __ZN3fmt2v96detail11find_escapeEPKcS3_, symObjAddr: 0x29FC0, symBinAddr: 0x10002D740, symSize: 0x74 }
  - { offsetInCU: 0x5EC73, offset: 0x5EC73, size: 0x8, addend: 0x0, symName: __ZN3fmt2v96detail8copy_strIcPKcNS1_17counting_iteratorEEET1_T0_S7_S6_, symObjAddr: 0x2A034, symBinAddr: 0x10002D7B4, symSize: 0x94 }
  - { offsetInCU: 0x5ECDA, offset: 0x5ECDA, size: 0x8, addend: 0x0, symName: __ZN3fmt2v96detail16write_escaped_cpINS1_17counting_iteratorEcEET_S4_RKNS1_18find_escape_resultIT0_EE, symObjAddr: 0x2A0C8, symBinAddr: 0x10002D848, symSize: 0x3C4 }
  - { offsetInCU: 0x5ED8E, offset: 0x5ED8E, size: 0x8, addend: 0x0, symName: __ZN3fmt2v96detail18for_each_codepointIZNS1_11find_escapeEPKcS4_EUljNS0_17basic_string_viewIcEEE_EEvS6_T_, symObjAddr: 0x2A4AC, symBinAddr: 0x10002DC2C, symSize: 0x1C0 }
  - { offsetInCU: 0x5EEA2, offset: 0x5EEA2, size: 0x8, addend: 0x0, symName: __ZN3fmt2v96detail8copy_strIcKccLi0EEEPT1_PT0_S7_S5_, symObjAddr: 0x2A7B0, symBinAddr: 0x10002DF30, symSize: 0x58 }
  - { offsetInCU: 0x5EF1E, offset: 0x5EF1E, size: 0x8, addend: 0x0, symName: __ZN3fmt2v96detail15write_codepointILm2EcNS1_17counting_iteratorEEET1_S4_cj, symObjAddr: 0x2AB60, symBinAddr: 0x10002E2E0, symSize: 0xF0 }
  - { offsetInCU: 0x5EF95, offset: 0x5EF95, size: 0x8, addend: 0x0, symName: __ZN3fmt2v96detail15write_codepointILm4EcNS1_17counting_iteratorEEET1_S4_cj, symObjAddr: 0x2AC50, symBinAddr: 0x10002E3D0, symSize: 0xF0 }
  - { offsetInCU: 0x5F00C, offset: 0x5F00C, size: 0x8, addend: 0x0, symName: __ZN3fmt2v96detail15write_codepointILm8EcNS1_17counting_iteratorEEET1_S4_cj, symObjAddr: 0x2AD40, symBinAddr: 0x10002E4C0, symSize: 0x12C }
  - { offsetInCU: 0x5F083, offset: 0x5F083, size: 0x8, addend: 0x0, symName: __ZN3fmt2v96detail8copy_strIcPcNS1_17counting_iteratorEEET1_T0_S6_S5_, symObjAddr: 0x2AE6C, symBinAddr: 0x10002E5EC, symSize: 0x94 }
  - { offsetInCU: 0x5F0EA, offset: 0x5F0EA, size: 0x8, addend: 0x0, symName: __ZN3fmt2v96detail18for_each_codepointIZNS1_13compute_widthENS0_17basic_string_viewIcEEE17count_code_pointsEEvS4_T_, symObjAddr: 0x2AF18, symBinAddr: 0x10002E698, symSize: 0x1C0 }
  - { offsetInCU: 0x5F1FE, offset: 0x5F1FE, size: 0x8, addend: 0x0, symName: __ZN3fmt2v96detail20write_escaped_stringIcNS0_8appenderEEET0_S4_NS0_17basic_string_viewIT_EE, symObjAddr: 0x2B638, symBinAddr: 0x10002EDB8, symSize: 0x154 }
  - { offsetInCU: 0x5F350, offset: 0x5F350, size: 0x8, addend: 0x0, symName: __ZN3fmt2v96detail19check_format_stringIJRiEZZN6spdlog7details10fmt_helper4pad2EiRNS0_19basic_memory_bufferIcLm250ENSt3__19allocatorIcEEEEENKUlvE_clEvE18FMT_COMPILE_STRINGLi0EEEvT0_, symObjAddr: 0x2B924, symBinAddr: 0x10002F0A4, symSize: 0x2EC }
  - { offsetInCU: 0x5F497, offset: 0x5F497, size: 0x8, addend: 0x0, symName: __ZN3fmt2v96detail4findILb1EcPKcEEbT1_S5_T0_RS5_, symObjAddr: 0x2BF84, symBinAddr: 0x10002F704, symSize: 0xB0 }
  - { offsetInCU: 0x5F50E, offset: 0x5F50E, size: 0x8, addend: 0x0, symName: __ZN3fmt2v96detail15do_parse_arg_idIcRZNS1_23parse_replacement_fieldIcRNS1_21format_string_checkerIcNS1_13error_handlerEJiEEEEEPKT_SA_SA_OT0_E10id_adapterEESA_SA_SA_SC_, symObjAddr: 0x2C28C, symBinAddr: 0x10002FA0C, symSize: 0x280 }
  - { offsetInCU: 0x5F5A7, offset: 0x5F5A7, size: 0x8, addend: 0x0, symName: __ZN3fmt2v96detail18parse_format_specsIiNS1_21compile_parse_contextIcNS1_13error_handlerEEEEEDTcldtfp_5beginEERT0_, symObjAddr: 0x2C7A0, symBinAddr: 0x10002FF20, symSize: 0x44 }
  - { offsetInCU: 0x5F731, offset: 0x5F731, size: 0x8, addend: 0x0, symName: __ZN3fmt2v96detail16check_char_specsIcRNS1_13error_handlerEEEbRKNS0_18basic_format_specsIT_EEOT0_, symObjAddr: 0x2D14C, symBinAddr: 0x1000308CC, symSize: 0x114 }
  - { offsetInCU: 0x5F780, offset: 0x5F780, size: 0x8, addend: 0x0, symName: __ZN3fmt2v96detail21parse_float_type_specIRNS1_13error_handlerEcEENS1_11float_specsERKNS0_18basic_format_specsIT0_EEOT_, symObjAddr: 0x2D260, symBinAddr: 0x1000309E0, symSize: 0x208 }
  - { offsetInCU: 0x5F7DE, offset: 0x5F7DE, size: 0x8, addend: 0x0, symName: __ZN3fmt2v96detail23check_cstring_type_specIRNS1_13error_handlerEEEbNS0_17presentation_typeEOT_, symObjAddr: 0x2D4A4, symBinAddr: 0x100030C24, symSize: 0xB0 }
  - { offsetInCU: 0x5F824, offset: 0x5F824, size: 0x8, addend: 0x0, symName: __ZN3fmt2v96detail22check_string_type_specIRNS1_13error_handlerEEEvNS0_17presentation_typeEOT_, symObjAddr: 0x2D554, symBinAddr: 0x100030CD4, symSize: 0x6C }
  - { offsetInCU: 0x5F866, offset: 0x5F866, size: 0x8, addend: 0x0, symName: __ZN3fmt2v96detail23check_pointer_type_specIRNS1_13error_handlerEEEvNS0_17presentation_typeEOT_, symObjAddr: 0x2D5C0, symBinAddr: 0x100030D40, symSize: 0x58 }
  - { offsetInCU: 0x5F8A8, offset: 0x5F8A8, size: 0x8, addend: 0x0, symName: __ZN3fmt2v96detail11parse_alignIcRNS1_13specs_checkerINS1_21dynamic_specs_handlerINS1_21compile_parse_contextIcNS1_13error_handlerEEEEEEEEEPKT_SD_SD_OT0_, symObjAddr: 0x2D71C, symBinAddr: 0x100030E9C, symSize: 0x22C }
  - { offsetInCU: 0x5F99A, offset: 0x5F99A, size: 0x8, addend: 0x0, symName: __ZN3fmt2v96detail11parse_widthIcRNS1_13specs_checkerINS1_21dynamic_specs_handlerINS1_21compile_parse_contextIcNS1_13error_handlerEEEEEEEEEPKT_SD_SD_OT0_, symObjAddr: 0x2DA68, symBinAddr: 0x1000311E8, symSize: 0x214 }
  - { offsetInCU: 0x5FB0D, offset: 0x5FB0D, size: 0x8, addend: 0x0, symName: __ZN3fmt2v96detail15parse_precisionIcRNS1_13specs_checkerINS1_21dynamic_specs_handlerINS1_21compile_parse_contextIcNS1_13error_handlerEEEEEEEEEPKT_SD_SD_OT0_, symObjAddr: 0x2DC7C, symBinAddr: 0x1000313FC, symSize: 0x23C }
  - { offsetInCU: 0x5FC36, offset: 0x5FC36, size: 0x8, addend: 0x0, symName: __ZN3fmt2v96detail15do_parse_arg_idIcRZNS1_11parse_widthIcRNS1_13specs_checkerINS1_21dynamic_specs_handlerINS1_21compile_parse_contextIcNS1_13error_handlerEEEEEEEEEPKT_SE_SE_OT0_E13width_adapterEESE_SE_SE_SG_, symObjAddr: 0x2DF84, symBinAddr: 0x100031704, symSize: 0x280 }
  - { offsetInCU: 0x5FCCF, offset: 0x5FCCF, size: 0x8, addend: 0x0, symName: __ZN3fmt2v96detail15do_parse_arg_idIcRZNS1_15parse_precisionIcRNS1_13specs_checkerINS1_21dynamic_specs_handlerINS1_21compile_parse_contextIcNS1_13error_handlerEEEEEEEEEPKT_SE_SE_OT0_E17precision_adapterEESE_SE_SE_SG_, symObjAddr: 0x2E770, symBinAddr: 0x100031EF0, symSize: 0x280 }
  - { offsetInCU: 0x60084, offset: 0x60084, size: 0x8, addend: 0x0, symName: __ZN3fmt2v96detail19check_format_stringIJPKcRKS4_RKiEZZN6spdlog6logger8sink_it_ERKNS9_7details7log_msgEENKUlvE_clEvE18FMT_COMPILE_STRINGLi0EEEvT0_, symObjAddr: 0x3BC7C, symBinAddr: 0x10003F3FC, symSize: 0x2F0 }
  - { offsetInCU: 0x601D5, offset: 0x601D5, size: 0x8, addend: 0x0, symName: __ZN3fmt2v96detail15do_parse_arg_idIcRZNS1_23parse_replacement_fieldIcRNS1_21format_string_checkerIcNS1_13error_handlerEJPKcS7_iEEEEEPKT_SC_SC_OT0_E10id_adapterEESC_SC_SC_SE_, symObjAddr: 0x3C4C4, symBinAddr: 0x10003FC44, symSize: 0x280 }
  - { offsetInCU: 0x6026E, offset: 0x6026E, size: 0x8, addend: 0x0, symName: __ZN3fmt2v96detail18parse_format_specsIPKcNS1_21compile_parse_contextIcNS1_13error_handlerEEEEEDTcldtfp_5beginEERT0_, symObjAddr: 0x3C938, symBinAddr: 0x1000400B8, symSize: 0x44 }
  - { offsetInCU: 0x602BD, offset: 0x602BD, size: 0x8, addend: 0x0, symName: __ZN3fmt2v96detail8copy_strIcccLi0EEEPT1_PT0_S6_S4_, symObjAddr: 0x6B8A8, symBinAddr: 0x10006F028, symSize: 0x58 }
  - { offsetInCU: 0x603F4, offset: 0x603F4, size: 0x8, addend: 0x0, symName: __ZN3fmt2v96detail12get_iteratorIcEENSt3__111conditionalIXsr3std7is_sameIT_cEE5valueENS0_8appenderENS3_20back_insert_iteratorINS1_6bufferIS5_EEEEE4typeERS9_, symObjAddr: 0x6C530, symBinAddr: 0x10006FCB0, symSize: 0x2C }
  - { offsetInCU: 0x6042B, offset: 0x6042B, size: 0x8, addend: 0x0, symName: __ZN3fmt2v96detail19check_format_stringIJPKcRS4_RiEZZN6spdlog6logger4log_IJS6_RmmEEEvNS7_10source_locENS7_5level10level_enumENS0_17basic_string_viewIcEEDpOT_ENKUlvE_clEvE18FMT_COMPILE_STRINGLi0EEEvT0_, symObjAddr: 0x6C818, symBinAddr: 0x10006FF98, symSize: 0x2F0 }
  - { offsetInCU: 0x60523, offset: 0x60523, size: 0x8, addend: 0x0, symName: __ZN3fmt2v96detail19check_format_stringIJPKcRKS4_RKiEZZN6spdlog12async_logger16backend_sink_it_ERKNS9_7details7log_msgEENKUlvE_clEvE18FMT_COMPILE_STRINGLi0EEEvT0_, symObjAddr: 0x73AA0, symBinAddr: 0x100077220, symSize: 0x2F0 }
  - { offsetInCU: 0x6061B, offset: 0x6061B, size: 0x8, addend: 0x0, symName: __ZN3fmt2v96detail5writeIcNSt3__120back_insert_iteratorINS1_6bufferIcEEEEEET0_S8_PKT_, symObjAddr: 0x78CEC, symBinAddr: 0x10007C46C, symSize: 0xB4 }
  - { offsetInCU: 0x606B6, offset: 0x606B6, size: 0x8, addend: 0x0, symName: __ZN3fmt2v96detail5writeIcNSt3__120back_insert_iteratorINS1_6bufferIcEEEEEET0_S8_NS0_17basic_string_viewIT_EE, symObjAddr: 0x79214, symBinAddr: 0x10007C994, symSize: 0xB0 }
  - { offsetInCU: 0x60714, offset: 0x60714, size: 0x8, addend: 0x0, symName: __ZN3fmt2v96detail7reserveINSt3__120back_insert_iteratorINS1_6bufferIcEEEEEERT_S9_m, symObjAddr: 0x792C4, symBinAddr: 0x10007CA44, symSize: 0x18 }
  - { offsetInCU: 0x60757, offset: 0x60757, size: 0x8, addend: 0x0, symName: __ZN3fmt2v96detail17copy_str_noinlineIcPKcNSt3__120back_insert_iteratorINS1_6bufferIcEEEEEET1_T0_SB_SA_, symObjAddr: 0x792DC, symBinAddr: 0x10007CA5C, symSize: 0x44 }
  - { offsetInCU: 0x607BE, offset: 0x607BE, size: 0x8, addend: 0x0, symName: __ZN3fmt2v96detail13base_iteratorINSt3__120back_insert_iteratorINS1_6bufferIcEEEEEET_S8_S8_, symObjAddr: 0x79320, symBinAddr: 0x10007CAA0, symSize: 0x20 }
  - { offsetInCU: 0x60801, offset: 0x60801, size: 0x8, addend: 0x0, symName: __ZN3fmt2v96detail8copy_strIcPKcNSt3__120back_insert_iteratorINS1_6bufferIcEEEEEET1_T0_SB_SA_, symObjAddr: 0x79340, symBinAddr: 0x10007CAC0, symSize: 0x90 }
  - { offsetInCU: 0x609DE, offset: 0x609DE, size: 0x8, addend: 0x0, symName: __ZN3fmt2v96detail14to_string_viewIcEENS0_17basic_string_viewIT_EES5_, symObjAddr: 0x79698, symBinAddr: 0x10007CE18, symSize: 0x24 }
  - { offsetInCU: 0x60AE4, offset: 0x60AE4, size: 0x8, addend: 0x0, symName: __ZN3fmt2v96detail19check_format_stringIJRNS0_17basic_string_viewIcEERA3_KcEZZNS1_17format_error_codeERNS1_6bufferIcEEiS4_ENKUlvE_clEvE18FMT_COMPILE_STRINGLi0EEEvT0_, symObjAddr: 0x796F4, symBinAddr: 0x10007CE74, symSize: 0x2EC }
  - { offsetInCU: 0x60C30, offset: 0x60C30, size: 0x8, addend: 0x0, symName: __ZN3fmt2v96detail15do_parse_arg_idIcRZNS1_23parse_replacement_fieldIcRNS1_21format_string_checkerIcNS1_13error_handlerEJNS0_17basic_string_viewIcEEA3_cEEEEEPKT_SD_SD_OT0_E10id_adapterEESD_SD_SD_SF_, symObjAddr: 0x79F38, symBinAddr: 0x10007D6B8, symSize: 0x280 }
  - { offsetInCU: 0x60CC9, offset: 0x60CC9, size: 0x8, addend: 0x0, symName: __ZN3fmt2v96detail18parse_format_specsINS0_17basic_string_viewIcEENS1_21compile_parse_contextIcNS1_13error_handlerEEEEEDTcldtfp_5beginEERT0_, symObjAddr: 0x7A3A8, symBinAddr: 0x10007DB28, symSize: 0x44 }
  - { offsetInCU: 0x60D18, offset: 0x60D18, size: 0x8, addend: 0x0, symName: __ZN3fmt2v96detail18parse_format_specsIA3_cNS1_21compile_parse_contextIcNS1_13error_handlerEEEEEDTcldtfp_5beginEERT0_, symObjAddr: 0x7A3EC, symBinAddr: 0x10007DB6C, symSize: 0x44 }
  - { offsetInCU: 0x60EF1, offset: 0x60EF1, size: 0x8, addend: 0x0, symName: __ZN3fmt2v96detail19check_format_stringIJRA7_KcRiEZZNS1_17format_error_codeERNS1_6bufferIcEEiNS0_17basic_string_viewIcEEENKUlvE0_clEvE18FMT_COMPILE_STRINGLi0EEEvT0_, symObjAddr: 0x7AD5C, symBinAddr: 0x10007E4DC, symSize: 0x2EC }
  - { offsetInCU: 0x6103D, offset: 0x6103D, size: 0x8, addend: 0x0, symName: __ZN3fmt2v96detail15do_parse_arg_idIcRZNS1_23parse_replacement_fieldIcRNS1_21format_string_checkerIcNS1_13error_handlerEJA7_ciEEEEEPKT_SB_SB_OT0_E10id_adapterEESB_SB_SB_SD_, symObjAddr: 0x7B53C, symBinAddr: 0x10007ECBC, symSize: 0x280 }
  - { offsetInCU: 0x610D6, offset: 0x610D6, size: 0x8, addend: 0x0, symName: __ZN3fmt2v96detail18parse_format_specsIA7_cNS1_21compile_parse_contextIcNS1_13error_handlerEEEEEDTcldtfp_5beginEERT0_, symObjAddr: 0x7B9AC, symBinAddr: 0x10007F12C, symSize: 0x44 }
  - { offsetInCU: 0x61125, offset: 0x61125, size: 0x8, addend: 0x0, symName: __ZN3fmt2v96detail19check_format_stringIJPKcRKS4_RKiEZZN6spdlog12async_logger8sink_it_ERKNS9_7details7log_msgEENKUlvE_clEvE18FMT_COMPILE_STRINGLi0EEEvT0_, symObjAddr: 0x7DD78, symBinAddr: 0x1000814F8, symSize: 0x2F0 }
  - { offsetInCU: 0x6121D, offset: 0x6121D, size: 0x8, addend: 0x0, symName: __ZN3fmt2v96detail19check_format_stringIJPKcRS4_RiEZZN6spdlog6logger4log_IJS6_EEEvNS7_10source_locENS7_5level10level_enumENS0_17basic_string_viewIcEEDpOT_ENKUlvE_clEvE18FMT_COMPILE_STRINGLi0EEEvT0_, symObjAddr: 0x7F5D8, symBinAddr: 0x100082D58, symSize: 0x2F0 }
  - { offsetInCU: 0x6148B, offset: 0x6148B, size: 0x8, addend: 0x0, symName: __ZN3fmt2v96detail19check_format_stringIJPKcRS4_RiEZZN6spdlog6logger4log_IJiRA11_S3_iddEEEvNS7_10source_locENS7_5level10level_enumENS0_17basic_string_viewIcEEDpOT_ENKUlvE_clEvE18FMT_COMPILE_STRINGLi0EEEvT0_, symObjAddr: 0x80404, symBinAddr: 0x100083B84, symSize: 0x2F0 }
  - { offsetInCU: 0x61583, offset: 0x61583, size: 0x8, addend: 0x0, symName: __ZN3fmt2v96detail19check_format_stringIJPKcRS4_RiEZZN6spdlog6logger4log_IJRdiEEEvNS7_10source_locENS7_5level10level_enumENS0_17basic_string_viewIcEEDpOT_ENKUlvE_clEvE18FMT_COMPILE_STRINGLi0EEEvT0_, symObjAddr: 0x81DD0, symBinAddr: 0x100085550, symSize: 0x2F0 }
  - { offsetInCU: 0x62B5F, offset: 0x62B5F, size: 0x8, addend: 0x0, symName: __ZN3fmt2v910vformat_toINSt3__120back_insert_iteratorINS0_19basic_memory_bufferIcLm250ENS2_9allocatorIcEEEEEELi0EEET_S9_NS0_17basic_string_viewIcEENS0_17basic_format_argsINS0_20basic_format_contextINS0_8appenderEcEEEE, symObjAddr: 0x6ECC, symBinAddr: 0x10000A64C, symSize: 0x98 }
  - { offsetInCU: 0x62BE1, offset: 0x62BE1, size: 0x8, addend: 0x0, symName: __ZN3fmt2v916make_format_argsINS0_20basic_format_contextINS0_8appenderEcEEJRiEEENS0_16format_arg_storeIT_JDpNSt3__19remove_cvINS8_16remove_referenceIT0_E4typeEE4typeEEEEDpOSB_, symObjAddr: 0x6F64, symBinAddr: 0x10000A6E4, symSize: 0x11C }
  - { offsetInCU: 0x630D4, offset: 0x630D4, size: 0x8, addend: 0x0, symName: __ZN3fmt2v9eqENS0_17basic_string_viewIcEES2_, symObjAddr: 0x198C0, symBinAddr: 0x10001D040, symSize: 0x50 }
  - { offsetInCU: 0x63194, offset: 0x63194, size: 0x8, addend: 0x0, symName: __ZN3fmt2v915detail_exported22compile_string_to_viewIcLm6EEENS0_17basic_string_viewIT_EERAT0__KS4_, symObjAddr: 0x2BC10, symBinAddr: 0x10002F390, symSize: 0x64 }
  - { offsetInCU: 0x631D5, offset: 0x631D5, size: 0x8, addend: 0x0, symName: __ZN3fmt2v915detail_exported22compile_string_to_viewIcLm12EEENS0_17basic_string_viewIT_EERAT0__KS4_, symObjAddr: 0x3BF6C, symBinAddr: 0x10003F6EC, symSize: 0x64 }
  - { offsetInCU: 0x63216, offset: 0x63216, size: 0x8, addend: 0x0, symName: __ZN3fmt2v915detail_exported22compile_string_to_viewIcLm5EEENS0_17basic_string_viewIT_EERAT0__KS4_, symObjAddr: 0x799E0, symBinAddr: 0x10007D160, symSize: 0x64 }
  - { offsetInCU: 0x633EA, offset: 0x633EA, size: 0x8, addend: 0x0, symName: __ZN3fmt2v97vformatENS0_17basic_string_viewIcEENS0_17basic_format_argsINS0_20basic_format_contextINS0_8appenderEcEEEE, symObjAddr: 0x3B720, symBinAddr: 0x10003EEA0, symSize: 0xF8 }
  - { offsetInCU: 0x63439, offset: 0x63439, size: 0x8, addend: 0x0, symName: __ZN3fmt2v916make_format_argsINS0_20basic_format_contextINS0_8appenderEcEEJRPKcRKS6_RKiEEENS0_16format_arg_storeIT_JDpNSt3__19remove_cvINSE_16remove_referenceIT0_E4typeEE4typeEEEEDpOSH_, symObjAddr: 0x3B818, symBinAddr: 0x10003EF98, symSize: 0x284 }
  - { offsetInCU: 0x6383F, offset: 0x6383F, size: 0x8, addend: 0x0, symName: __ZN3fmt2v99to_stringIcLm500EEENSt3__112basic_stringIT_NS2_11char_traitsIS4_EENS2_9allocatorIS4_EEEERKNS0_19basic_memory_bufferIS4_XT0_ES8_EE, symObjAddr: 0x3BA9C, symBinAddr: 0x10003F21C, symSize: 0x84 }
  - { offsetInCU: 0x63A6F, offset: 0x63A6F, size: 0x8, addend: 0x0, symName: __ZN3fmt2v910vformat_toINS0_8appenderELi0EEET_S3_NS0_17basic_string_viewIcEENS0_17basic_format_argsINS0_20basic_format_contextIS2_cEEEE, symObjAddr: 0x6C1E4, symBinAddr: 0x10006F964, symSize: 0x8C }
  - { offsetInCU: 0x63AD9, offset: 0x63AD9, size: 0x8, addend: 0x0, symName: __ZN3fmt2v916make_format_argsINS0_20basic_format_contextINS0_8appenderEcEEJRiRmS6_EEENS0_16format_arg_storeIT_JDpNSt3__19remove_cvINS9_16remove_referenceIT0_E4typeEE4typeEEEEDpOSC_, symObjAddr: 0x6C270, symBinAddr: 0x10006F9F0, symSize: 0x284 }
  - { offsetInCU: 0x63EDF, offset: 0x63EDF, size: 0x8, addend: 0x0, symName: __ZN3fmt2v910get_bufferIcEERNS0_6detail6bufferIcEENS0_8appenderE, symObjAddr: 0x6C504, symBinAddr: 0x10006FC84, symSize: 0x2C }
  - { offsetInCU: 0x63F16, offset: 0x63F16, size: 0x8, addend: 0x0, symName: __ZN3fmt2v916make_format_argsINS0_20basic_format_contextINS0_8appenderEcEEJRPKcS7_RiEEENS0_16format_arg_storeIT_JDpNSt3__19remove_cvINSB_16remove_referenceIT0_E4typeEE4typeEEEEDpOSE_, symObjAddr: 0x6C55C, symBinAddr: 0x10006FCDC, symSize: 0x284 }
  - { offsetInCU: 0x6431C, offset: 0x6431C, size: 0x8, addend: 0x0, symName: __ZN3fmt2v919format_system_errorERNS0_6detail6bufferIcEEiPKc, symObjAddr: 0x78AD8, symBinAddr: 0x10007C258, symSize: 0x154 }
  - { offsetInCU: 0x643CE, offset: 0x643CE, size: 0x8, addend: 0x0, symName: __ZN3fmt2v99to_stringIcLm250EEENSt3__112basic_stringIT_NS2_11char_traitsIS4_EENS2_9allocatorIS4_EEEERKNS0_19basic_memory_bufferIS4_XT0_ES8_EE, symObjAddr: 0x78C2C, symBinAddr: 0x10007C3AC, symSize: 0x84 }
  - { offsetInCU: 0x64601, offset: 0x64601, size: 0x8, addend: 0x0, symName: __ZN3fmt2v916make_format_argsINS0_20basic_format_contextINS0_8appenderEcEEJRNS0_17basic_string_viewIcEERA3_KcEEENS0_16format_arg_storeIT_JDpNSt3__19remove_cvINSD_16remove_referenceIT0_E4typeEE4typeEEEEDpOSG_, symObjAddr: 0x79448, symBinAddr: 0x10007CBC8, symSize: 0x250 }
  - { offsetInCU: 0x64944, offset: 0x64944, size: 0x8, addend: 0x0, symName: __ZN3fmt2v916make_format_argsINS0_20basic_format_contextINS0_8appenderEcEEJRA7_KcRiEEENS0_16format_arg_storeIT_JDpNSt3__19remove_cvINSB_16remove_referenceIT0_E4typeEE4typeEEEEDpOSE_, symObjAddr: 0x7AB60, symBinAddr: 0x10007E2E0, symSize: 0x1C4 }
  - { offsetInCU: 0x64C2B, offset: 0x64C2B, size: 0x8, addend: 0x0, symName: __ZN3fmt2v916make_format_argsINS0_20basic_format_contextINS0_8appenderEcEEJRiRA11_KcS5_RdS9_EEENS0_16format_arg_storeIT_JDpNSt3__19remove_cvINSC_16remove_referenceIT0_E4typeEE4typeEEEEDpOSF_, symObjAddr: 0x7FFC4, symBinAddr: 0x100083744, symSize: 0x3F8 }
  - { offsetInCU: 0x6527F, offset: 0x6527F, size: 0x8, addend: 0x0, symName: __ZN3fmt2v916make_format_argsINS0_20basic_format_contextINS0_8appenderEcEEJRdRiEEENS0_16format_arg_storeIT_JDpNSt3__19remove_cvINS9_16remove_referenceIT0_E4typeEE4typeEEEEDpOSC_, symObjAddr: 0x81BC0, symBinAddr: 0x100085340, symSize: 0x1C8 }
  - { offsetInCU: 0x66F6B, offset: 0x66F6B, size: 0x8, addend: 0x0, symName: __ZN6spdlog7details8registry8instanceEv, symObjAddr: 0x17EC, symBinAddr: 0x100004F6C, symSize: 0xB8 }
  - { offsetInCU: 0x66F8D, offset: 0x66F8D, size: 0x8, addend: 0x0, symName: __ZZN6spdlog7details8registry8instanceEvE10s_instance, symObjAddr: 0x85E30, symBinAddr: 0x10009C000, symSize: 0x0 }
  - { offsetInCU: 0x6707A, offset: 0x6707A, size: 0x8, addend: 0x0, symName: __ZN3fmt2v96detail9dragonbox14cache_accessorIfE16get_cached_powerEi, symObjAddr: 0x103F8, symBinAddr: 0x100013B78, symSize: 0x80 }
  - { offsetInCU: 0x6709A, offset: 0x6709A, size: 0x8, addend: 0x0, symName: __ZZN3fmt2v96detail9dragonbox14cache_accessorIfE16get_cached_powerEiE18pow10_significands, symObjAddr: 0x888C0, symBinAddr: 0x10008CD30, symSize: 0x0 }
  - { offsetInCU: 0x670E9, offset: 0x670E9, size: 0x8, addend: 0x0, symName: __ZN3fmt2v96detail9dragonbox14cache_accessorIdE16get_cached_powerEi, symObjAddr: 0x13C70, symBinAddr: 0x1000173F0, symSize: 0x2D4 }
  - { offsetInCU: 0x67109, offset: 0x67109, size: 0x8, addend: 0x0, symName: __ZZN3fmt2v96detail9dragonbox14cache_accessorIdE16get_cached_powerEiE18pow10_significands, symObjAddr: 0x88B70, symBinAddr: 0x10008CFE0, symSize: 0x0 }
  - { offsetInCU: 0x6711F, offset: 0x6711F, size: 0x8, addend: 0x0, symName: __ZZN3fmt2v96detail9dragonbox14cache_accessorIdE16get_cached_powerEiE14powers_of_5_64, symObjAddr: 0x88CE0, symBinAddr: 0x10008D150, symSize: 0x0 }
  - { offsetInCU: 0x67135, offset: 0x67135, size: 0x8, addend: 0x0, symName: __ZZN3fmt2v96detail9dragonbox14cache_accessorIdE16get_cached_powerEiE17compression_ratio, symObjAddr: 0x88DB8, symBinAddr: 0x10008D228, symSize: 0x0 }
  - { offsetInCU: 0x67268, offset: 0x67268, size: 0x8, addend: 0x0, symName: __ZN6spdlog7details13console_mutex5mutexEv, symObjAddr: 0x34598, symBinAddr: 0x100037D18, symSize: 0x84 }
  - { offsetInCU: 0x67288, offset: 0x67288, size: 0x8, addend: 0x0, symName: __ZZN6spdlog7details13console_mutex5mutexEvE7s_mutex, symObjAddr: 0x86020, symBinAddr: 0x10009C1F0, symSize: 0x0 }
  - { offsetInCU: 0x6729E, offset: 0x6729E, size: 0x8, addend: 0x0, symName: __ZZN6spdlog7details2os17is_color_terminalEvENKUlvE_clEv, symObjAddr: 0x34BF0, symBinAddr: 0x100038370, symSize: 0xDC }
  - { offsetInCU: 0x672C6, offset: 0x672C6, size: 0x8, addend: 0x0, symName: __ZZZN6spdlog7details2os17is_color_terminalEvENKUlvE_clEvE5terms, symObjAddr: 0x86590, symBinAddr: 0x100096CF8, symSize: 0x0 }
  - { offsetInCU: 0x67373, offset: 0x67373, size: 0x8, addend: 0x0, symName: __ZN6spdlog6logger12err_handler_ERKNSt3__112basic_stringIcNS1_11char_traitsIcEENS1_9allocatorIcEEEE, symObjAddr: 0x3AC94, symBinAddr: 0x10003E414, symSize: 0x318 }
  - { offsetInCU: 0x67399, offset: 0x67399, size: 0x8, addend: 0x0, symName: __ZZN6spdlog6logger12err_handler_ERKNSt3__112basic_stringIcNS1_11char_traitsIcEENS1_9allocatorIcEEEEE5mutex, symObjAddr: 0x86078, symBinAddr: 0x10009C248, symSize: 0x0 }
  - { offsetInCU: 0x673AF, offset: 0x673AF, size: 0x8, addend: 0x0, symName: __ZZN6spdlog6logger12err_handler_ERKNSt3__112basic_stringIcNS1_11char_traitsIcEENS1_9allocatorIcEEEEE16last_report_time, symObjAddr: 0x860C0, symBinAddr: 0x10009C290, symSize: 0x0 }
  - { offsetInCU: 0x673C5, offset: 0x673C5, size: 0x8, addend: 0x0, symName: __ZZN6spdlog6logger12err_handler_ERKNSt3__112basic_stringIcNS1_11char_traitsIcEENS1_9allocatorIcEEEEE11err_counter, symObjAddr: 0x860D0, symBinAddr: 0x10009C2A0, symSize: 0x0 }
  - { offsetInCU: 0x67957, offset: 0x67957, size: 0x8, addend: 0x0, symName: __ZNSt3__16vectorINS_10unique_ptrIN6spdlog7details14flag_formatterENS_14default_deleteIS4_EEEENS_9allocatorIS7_EEE26__swap_out_circular_bufferERNS_14__split_bufferIS7_RS9_EE, symObjAddr: 0x3E18, symBinAddr: 0x100007598, symSize: 0x118 }
  - { offsetInCU: 0x67AE2, offset: 0x67AE2, size: 0x8, addend: 0x0, symName: __ZNKSt3__16chrono15__duration_castINS0_8durationIxNS_5ratioILl1ELl1000000EEEEENS2_IxNS3_ILl1ELl1EEEEES4_Lb1ELb0EEclB7v160006ERKS5_, symObjAddr: 0x6894, symBinAddr: 0x10000A014, symSize: 0x4C }
  - { offsetInCU: 0x67E23, offset: 0x67E23, size: 0x8, addend: 0x0, symName: __ZN3fmt2v96detail6bigint8multiplyIoLi0EEEvT_, symObjAddr: 0x265EC, symBinAddr: 0x100029D6C, symSize: 0x21C }
  - { offsetInCU: 0x67FBD, offset: 0x67FBD, size: 0x8, addend: 0x0, symName: __ZNKSt3__16chrono15__duration_castINS0_8durationIxNS_5ratioILl1ELl1000000EEEEENS2_IxNS3_ILl1ELl1000EEEEES6_Lb1ELb0EEclB7v160006ERKS5_, symObjAddr: 0x2EE6C, symBinAddr: 0x1000325EC, symSize: 0x48 }
  - { offsetInCU: 0x68007, offset: 0x68007, size: 0x8, addend: 0x0, symName: __ZNKSt3__16chrono15__duration_castINS0_8durationIxNS_5ratioILl1ELl1EEEEENS2_IxNS3_ILl1ELl1000EEEEENS3_ILl1000ELl1EEELb0ELb1EEclB7v160006ERKS5_, symObjAddr: 0x2EEB4, symBinAddr: 0x100032634, symSize: 0x48 }
  - { offsetInCU: 0x68CB6, offset: 0x68CB6, size: 0x8, addend: 0x0, symName: __ZNKSt3__16chrono13__duration_ltINS0_8durationIxNS_5ratioILl1ELl1000000EEEEENS2_IxNS3_ILl1ELl1EEEEEEclB7v160006ERKS5_RKS7_, symObjAddr: 0x3B53C, symBinAddr: 0x10003ECBC, symSize: 0x6C }
  - { offsetInCU: 0x68D11, offset: 0x68D11, size: 0x8, addend: 0x0, symName: __ZNKSt3__16chrono15__duration_castINS0_8durationIxNS_5ratioILl1ELl1EEEEENS2_IxNS3_ILl1ELl1000000EEEEENS3_ILl1000000ELl1EEELb0ELb1EEclB7v160006ERKS5_, symObjAddr: 0x3B664, symBinAddr: 0x10003EDE4, symSize: 0x4C }
  - { offsetInCU: 0x69DFD, offset: 0x69DFD, size: 0x8, addend: 0x0, symName: __ZNKSt3__16chrono15__duration_castINS0_8durationIxNS_5ratioILl1ELl1000000EEEEENS2_IxNS3_ILl1ELl1000000000EEEEENS3_ILl1000ELl1EEELb0ELb1EEclB7v160006ERKS5_, symObjAddr: 0x50DBC, symBinAddr: 0x10005453C, symSize: 0x48 }
  - { offsetInCU: 0x69E47, offset: 0x69E47, size: 0x8, addend: 0x0, symName: __ZNKSt3__16chrono15__duration_castINS0_8durationIxNS_5ratioILl1ELl1EEEEENS2_IxNS3_ILl1ELl1000000000EEEEENS3_ILl1000000000ELl1EEELb0ELb1EEclB7v160006ERKS5_, symObjAddr: 0x50E04, symBinAddr: 0x100054584, symSize: 0x4C }
  - { offsetInCU: 0x6C8BF, offset: 0x6C8BF, size: 0x8, addend: 0x0, symName: __ZNKSt3__16chrono15__duration_castINS0_8durationIxNS_5ratioILl1ELl1000000000EEEEENS2_IdNS3_ILl1ELl1EEEEES4_Lb1ELb0EEclB7v160006ERKS5_, symObjAddr: 0x6A570, symBinAddr: 0x10006DCF0, symSize: 0x50 }
  - { offsetInCU: 0x6C9AE, offset: 0x6C9AE, size: 0x8, addend: 0x0, symName: __ZN6spdlog7details11thread_poolC1Emm, symObjAddr: 0x6D288, symBinAddr: 0x100070A08, symSize: 0xF0 }
  - { offsetInCU: 0x6CFE3, offset: 0x6CFE3, size: 0x8, addend: 0x0, symName: __ZN6spdlog7details11thread_poolC2EmmNSt3__18functionIFvvEEES5_, symObjAddr: 0x70740, symBinAddr: 0x100073EC0, symSize: 0x1F0 }
  - { offsetInCU: 0x6D163, offset: 0x6D163, size: 0x8, addend: 0x0, symName: __ZNSt3__16vectorINS_6threadENS_9allocatorIS1_EEE26__swap_out_circular_bufferERNS_14__split_bufferIS1_RS3_EE, symObjAddr: 0x74260, symBinAddr: 0x1000779E0, symSize: 0x118 }
  - { offsetInCU: 0x6D483, offset: 0x6D483, size: 0x8, addend: 0x0, symName: __ZNKSt3__16chrono13__duration_ltINS0_8durationIxNS_5ratioILl1ELl1000EEEEENS2_IeNS3_ILl1ELl1EEEEEEclB7v160006ERKS5_RKS7_, symObjAddr: 0x784AC, symBinAddr: 0x10007BC2C, symSize: 0x78 }
  - { offsetInCU: 0x6D506, offset: 0x6D506, size: 0x8, addend: 0x0, symName: __ZNKSt3__16chrono15__duration_castINS0_8durationIeNS_5ratioILl1ELl1EEEEENS2_IeNS3_ILl1ELl1000EEEEENS3_ILl1000ELl1EEELb0ELb1EEclB7v160006ERKS5_, symObjAddr: 0x7874C, symBinAddr: 0x10007BECC, symSize: 0x4C }
  - { offsetInCU: 0x6D550, offset: 0x6D550, size: 0x8, addend: 0x0, symName: __ZNKSt3__16chrono15__duration_castINS0_8durationIxNS_5ratioILl1ELl1000EEEEENS2_IxNS3_ILl1ELl1000000000EEEEENS3_ILl1000000ELl1EEELb0ELb1EEclB7v160006ERKS5_, symObjAddr: 0x787B0, symBinAddr: 0x10007BF30, symSize: 0x4C }
  - { offsetInCU: 0x6D59A, offset: 0x6D59A, size: 0x8, addend: 0x0, symName: __ZNKSt3__16chrono13__duration_ltINS0_8durationIxNS_5ratioILl1ELl1000000000EEEEENS2_IxNS3_ILl1ELl1000EEEEEEclB7v160006ERKS5_RKS7_, symObjAddr: 0x787FC, symBinAddr: 0x10007BF7C, symSize: 0x6C }
  - { offsetInCU: 0x6D737, offset: 0x6D737, size: 0x8, addend: 0x0, symName: __ZNSt3__110shared_ptrIN6spdlog12async_loggerEE18__enable_weak_thisB7v160006IS2_S2_vEEvPKNS_23enable_shared_from_thisIT_EEPT0_, symObjAddr: 0x7E29C, symBinAddr: 0x100081A1C, symSize: 0x7C }
  - { offsetInCU: 0x6DE9C, offset: 0x6DE9C, size: 0x8, addend: 0x0, symName: __Z5isnanB7v160006e, symObjAddr: 0x165C4, symBinAddr: 0x100019D44, symSize: 0x20 }
  - { offsetInCU: 0x6F034, offset: 0x6F034, size: 0x8, addend: 0x0, symName: __Z7isdigiti, symObjAddr: 0x456C8, symBinAddr: 0x100048E48, symSize: 0x28 }
  - { offsetInCU: 0x6FB10, offset: 0x6FB10, size: 0x8, addend: 0x0, symName: _main, symObjAddr: 0x0, symBinAddr: 0x100003780, symSize: 0x708 }
  - { offsetInCU: 0x6FF24, offset: 0x6FF24, size: 0x8, addend: 0x0, symName: __ZNSt3__112basic_stringIcNS_11char_traitsIcEENS_9allocatorIcEEEC1B7v160006IDnEEPKc, symObjAddr: 0x888, symBinAddr: 0x100004008, symSize: 0x34 }
  - { offsetInCU: 0x70001, offset: 0x70001, size: 0x8, addend: 0x0, symName: __Z8bench_mtiNSt3__110shared_ptrIN6spdlog6loggerEEEi, symObjAddr: 0xAFC, symBinAddr: 0x10000427C, symSize: 0x318 }
  - { offsetInCU: 0x701D9, offset: 0x701D9, size: 0x8, addend: 0x0, symName: __ZNSt3__110shared_ptrIN6spdlog6loggerEEC1B7v160006INS1_12async_loggerEvEEONS0_IT_EE, symObjAddr: 0xE14, symBinAddr: 0x100004594, symSize: 0x34 }
  - { offsetInCU: 0x7021C, offset: 0x7021C, size: 0x8, addend: 0x0, symName: __ZNSt3__110shared_ptrIN6spdlog6loggerEED1B7v160006Ev, symObjAddr: 0xE48, symBinAddr: 0x1000045C8, symSize: 0x2C }
  - { offsetInCU: 0x70246, offset: 0x70246, size: 0x8, addend: 0x0, symName: __ZNSt3__110shared_ptrIN6spdlog12async_loggerEED1B7v160006Ev, symObjAddr: 0xE74, symBinAddr: 0x1000045F4, symSize: 0x2C }
  - { offsetInCU: 0x70299, offset: 0x70299, size: 0x8, addend: 0x0, symName: __ZNSt3__110shared_ptrIN6spdlog5sinks15basic_file_sinkINS_5mutexEEEED1B7v160006Ev, symObjAddr: 0xEA0, symBinAddr: 0x100004620, symSize: 0x2C }
  - { offsetInCU: 0x702C3, offset: 0x702C3, size: 0x8, addend: 0x0, symName: __ZNSt3__110shared_ptrIN6spdlog7details11thread_poolEED1B7v160006Ev, symObjAddr: 0xECC, symBinAddr: 0x10000464C, symSize: 0x2C }
  - { offsetInCU: 0x702ED, offset: 0x702ED, size: 0x8, addend: 0x0, symName: __ZNSt3__113basic_ostreamIcNS_11char_traitsIcEEElsB7v160006EPFRS3_S4_E, symObjAddr: 0xF40, symBinAddr: 0x1000046C0, symSize: 0x2C }
  - { offsetInCU: 0x703A3, offset: 0x703A3, size: 0x8, addend: 0x0, symName: __Z19thread_short_stringNSt3__110shared_ptrIN6spdlog6loggerEEEi, symObjAddr: 0xFD0, symBinAddr: 0x100004750, symSize: 0xE8 }
  - { offsetInCU: 0x7048F, offset: 0x7048F, size: 0x8, addend: 0x0, symName: __ZNKSt3__110shared_ptrIN6spdlog6loggerEEptB7v160006Ev, symObjAddr: 0x10B8, symBinAddr: 0x100004838, symSize: 0x18 }
  - { offsetInCU: 0x704B5, offset: 0x704B5, size: 0x8, addend: 0x0, symName: __ZN6spdlog6logger4infoIJRiEEEvN3fmt2v919basic_format_stringIcJDpNS4_13type_identityIT_E4typeEEEEDpOS7_, symObjAddr: 0x10D0, symBinAddr: 0x100004850, symSize: 0x48 }
  - { offsetInCU: 0x705A6, offset: 0x705A6, size: 0x8, addend: 0x0, symName: __Z10thread_funNSt3__110shared_ptrIN6spdlog6loggerEEEi, symObjAddr: 0x1118, symBinAddr: 0x100004898, symSize: 0x1BC }
  - { offsetInCU: 0x70742, offset: 0x70742, size: 0x8, addend: 0x0, symName: __ZN6spdlog6logger4infoIJiRA11_KciddEEEvN3fmt2v919basic_format_stringIcJDpNS6_13type_identityIT_E4typeEEEEDpOS9_, symObjAddr: 0x12D4, symBinAddr: 0x100004A54, symSize: 0x70 }
  - { offsetInCU: 0x707DB, offset: 0x707DB, size: 0x8, addend: 0x0, symName: __ZNSt3__16vectorINS_6threadENS_9allocatorIS1_EEEC1B7v160006Ev, symObjAddr: 0x1344, symBinAddr: 0x100004AC4, symSize: 0x2C }
  - { offsetInCU: 0x70805, offset: 0x70805, size: 0x8, addend: 0x0, symName: __ZNSt3__16vectorINS_6threadENS_9allocatorIS1_EEE9push_backB7v160006EOS1_, symObjAddr: 0x1370, symBinAddr: 0x100004AF0, symSize: 0x6C }
  - { offsetInCU: 0x70842, offset: 0x70842, size: 0x8, addend: 0x0, symName: __ZNSt3__16threadC1IRFvNS_10shared_ptrIN6spdlog6loggerEEEiEJRS5_iEvEEOT_DpOT0_, symObjAddr: 0x13DC, symBinAddr: 0x100004B5C, symSize: 0x44 }
  - { offsetInCU: 0x708B3, offset: 0x708B3, size: 0x8, addend: 0x0, symName: __ZNSt3__16threadC1IRFvNS_10shared_ptrIN6spdlog6loggerEEEiEJRS5_RiEvEEOT_DpOT0_, symObjAddr: 0x1420, symBinAddr: 0x100004BA0, symSize: 0x44 }
  - { offsetInCU: 0x70924, offset: 0x70924, size: 0x8, addend: 0x0, symName: __ZNSt3__16vectorINS_6threadENS_9allocatorIS1_EEE5beginB7v160006Ev, symObjAddr: 0x1464, symBinAddr: 0x100004BE4, symSize: 0x30 }
  - { offsetInCU: 0x7094C, offset: 0x7094C, size: 0x8, addend: 0x0, symName: __ZNSt3__16vectorINS_6threadENS_9allocatorIS1_EEE3endB7v160006Ev, symObjAddr: 0x1494, symBinAddr: 0x100004C14, symSize: 0x30 }
  - { offsetInCU: 0x70974, offset: 0x70974, size: 0x8, addend: 0x0, symName: __ZNKSt3__111__wrap_iterIPNS_6threadEEdeB7v160006Ev, symObjAddr: 0x14F8, symBinAddr: 0x100004C78, symSize: 0x18 }
  - { offsetInCU: 0x7099A, offset: 0x7099A, size: 0x8, addend: 0x0, symName: __ZNSt3__111__wrap_iterIPNS_6threadEEppB7v160006Ev, symObjAddr: 0x1510, symBinAddr: 0x100004C90, symSize: 0x20 }
  - { offsetInCU: 0x709C0, offset: 0x709C0, size: 0x8, addend: 0x0, symName: __ZNKSt3__16chrono8durationIdNS_5ratioILl1ELl1EEEE5countB7v160006Ev, symObjAddr: 0x15B8, symBinAddr: 0x100004D38, symSize: 0x18 }
  - { offsetInCU: 0x709E6, offset: 0x709E6, size: 0x8, addend: 0x0, symName: __ZNSt3__16vectorINS_6threadENS_9allocatorIS1_EEED1B7v160006Ev, symObjAddr: 0x1618, symBinAddr: 0x100004D98, symSize: 0x2C }
  - { offsetInCU: 0x70A10, offset: 0x70A10, size: 0x8, addend: 0x0, symName: __ZNSt3__112basic_stringIcNS_11char_traitsIcEENS_9allocatorIcEEEC1B7v160006EOS5_, symObjAddr: 0x16B4, symBinAddr: 0x100004E34, symSize: 0x34 }
  - { offsetInCU: 0x70A49, offset: 0x70A49, size: 0x8, addend: 0x0, symName: __ZNSt3__113unordered_mapIcNS_10unique_ptrIN6spdlog21custom_flag_formatterENS_14default_deleteIS3_EEEENS_4hashIcEENS_8equal_toIcEENS_9allocatorINS_4pairIKcS6_EEEEEC1B7v160006Ev, symObjAddr: 0x16E8, symBinAddr: 0x100004E68, symSize: 0x2C }
  - { offsetInCU: 0x70A73, offset: 0x70A73, size: 0x8, addend: 0x0, symName: __ZN6spdlog17pattern_formatterC1ENSt3__112basic_stringIcNS1_11char_traitsIcEENS1_9allocatorIcEEEENS_17pattern_time_typeES7_NS1_13unordered_mapIcNS1_10unique_ptrINS_21custom_flag_formatterENS1_14default_deleteISB_EEEENS1_4hashIcEENS1_8equal_toIcEENS5_INS1_4pairIKcSE_EEEEEE, symObjAddr: 0x1714, symBinAddr: 0x100004E94, symSize: 0x4C }
  - { offsetInCU: 0x70ADF, offset: 0x70ADF, size: 0x8, addend: 0x0, symName: __ZNSt3__110unique_ptrIN6spdlog9formatterENS_14default_deleteIS2_EEEC1B7v160006ILb1EvEEPS2_, symObjAddr: 0x1760, symBinAddr: 0x100004EE0, symSize: 0x34 }
  - { offsetInCU: 0x70B22, offset: 0x70B22, size: 0x8, addend: 0x0, symName: __ZNSt3__110unique_ptrIN6spdlog9formatterENS_14default_deleteIS2_EEED1B7v160006Ev, symObjAddr: 0x1794, symBinAddr: 0x100004F14, symSize: 0x2C }
  - { offsetInCU: 0x70B4C, offset: 0x70B4C, size: 0x8, addend: 0x0, symName: __ZNSt3__113unordered_mapIcNS_10unique_ptrIN6spdlog21custom_flag_formatterENS_14default_deleteIS3_EEEENS_4hashIcEENS_8equal_toIcEENS_9allocatorINS_4pairIKcS6_EEEEED1B7v160006Ev, symObjAddr: 0x17C0, symBinAddr: 0x100004F40, symSize: 0x2C }
  - { offsetInCU: 0x70B76, offset: 0x70B76, size: 0x8, addend: 0x0, symName: __ZN6spdlog7details8registry13set_formatterENSt3__110unique_ptrINS_9formatterENS2_14default_deleteIS4_EEEE, symObjAddr: 0x18A4, symBinAddr: 0x100005024, symSize: 0x144 }
  - { offsetInCU: 0x70C04, offset: 0x70C04, size: 0x8, addend: 0x0, symName: __ZNSt3__110unique_ptrIN6spdlog9formatterENS_14default_deleteIS2_EEEC1B7v160006EOS5_, symObjAddr: 0x19E8, symBinAddr: 0x100005168, symSize: 0x34 }
  - { offsetInCU: 0x70C3C, offset: 0x70C3C, size: 0x8, addend: 0x0, symName: __ZN6spdlog7details8registryC1Ev, symObjAddr: 0x1A1C, symBinAddr: 0x10000519C, symSize: 0x2C }
  - { offsetInCU: 0x70C68, offset: 0x70C68, size: 0x8, addend: 0x0, symName: __ZN6spdlog7details8registryD1Ev, symObjAddr: 0x1A48, symBinAddr: 0x1000051C8, symSize: 0x2C }
  - { offsetInCU: 0x70C94, offset: 0x70C94, size: 0x8, addend: 0x0, symName: __ZN6spdlog7details8registryC2Ev, symObjAddr: 0x1A74, symBinAddr: 0x1000051F4, symSize: 0x2F8 }
  - { offsetInCU: 0x70CE4, offset: 0x70CE4, size: 0x8, addend: 0x0, symName: __ZNSt3__15mutexC1B7v160006Ev, symObjAddr: 0x1D6C, symBinAddr: 0x1000054EC, symSize: 0x2C }
  - { offsetInCU: 0x70D0E, offset: 0x70D0E, size: 0x8, addend: 0x0, symName: __ZNSt3__113unordered_mapINS_12basic_stringIcNS_11char_traitsIcEENS_9allocatorIcEEEENS_10shared_ptrIN6spdlog6loggerEEENS_4hashIS6_EENS_8equal_toIS6_EENS4_INS_4pairIKS6_SA_EEEEEC1B7v160006Ev, symObjAddr: 0x1D98, symBinAddr: 0x100005518, symSize: 0x2C }
  - { offsetInCU: 0x70D38, offset: 0x70D38, size: 0x8, addend: 0x0, symName: __ZNSt3__113unordered_mapINS_12basic_stringIcNS_11char_traitsIcEENS_9allocatorIcEEEEN6spdlog5level10level_enumENS_4hashIS6_EENS_8equal_toIS6_EENS4_INS_4pairIKS6_S9_EEEEEC1B7v160006Ev, symObjAddr: 0x1DC4, symBinAddr: 0x100005544, symSize: 0x2C }
  - { offsetInCU: 0x70D62, offset: 0x70D62, size: 0x8, addend: 0x0, symName: __ZN6spdlog17pattern_formatterC1ENS_17pattern_time_typeENSt3__112basic_stringIcNS2_11char_traitsIcEENS2_9allocatorIcEEEE, symObjAddr: 0x1DF0, symBinAddr: 0x100005570, symSize: 0x3C }
  - { offsetInCU: 0x70DAE, offset: 0x70DAE, size: 0x8, addend: 0x0, symName: __ZNSt3__18functionIFvRKNS_12basic_stringIcNS_11char_traitsIcEENS_9allocatorIcEEEEEEC1B7v160006Ev, symObjAddr: 0x1E2C, symBinAddr: 0x1000055AC, symSize: 0x2C }
  - { offsetInCU: 0x70DD8, offset: 0x70DD8, size: 0x8, addend: 0x0, symName: __ZNSt3__110shared_ptrIN6spdlog7details11thread_poolEEC1B7v160006Ev, symObjAddr: 0x1E58, symBinAddr: 0x1000055D8, symSize: 0x2C }
  - { offsetInCU: 0x70E02, offset: 0x70E02, size: 0x8, addend: 0x0, symName: __ZNSt3__110unique_ptrIN6spdlog7details15periodic_workerENS_14default_deleteIS3_EEEC1B7v160006ILb1EvEEv, symObjAddr: 0x1E84, symBinAddr: 0x100005604, symSize: 0x2C }
  - { offsetInCU: 0x70E37, offset: 0x70E37, size: 0x8, addend: 0x0, symName: __ZNSt3__110shared_ptrIN6spdlog6loggerEEC1B7v160006Ev, symObjAddr: 0x1EB0, symBinAddr: 0x100005630, symSize: 0x2C }
  - { offsetInCU: 0x70E61, offset: 0x70E61, size: 0x8, addend: 0x0, symName: __ZNSt3__110shared_ptrIN6spdlog6loggerEEaSB7v160006EOS3_, symObjAddr: 0x1F5C, symBinAddr: 0x1000056DC, symSize: 0x50 }
  - { offsetInCU: 0x70E96, offset: 0x70E96, size: 0x8, addend: 0x0, symName: __ZNSt3__113unordered_mapINS_12basic_stringIcNS_11char_traitsIcEENS_9allocatorIcEEEENS_10shared_ptrIN6spdlog6loggerEEENS_4hashIS6_EENS_8equal_toIS6_EENS4_INS_4pairIKS6_SA_EEEEEixEOS6_, symObjAddr: 0x1FAC, symBinAddr: 0x10000572C, symSize: 0x80 }
  - { offsetInCU: 0x70ECD, offset: 0x70ECD, size: 0x8, addend: 0x0, symName: __ZNSt3__110shared_ptrIN6spdlog6loggerEEaSB7v160006ERKS3_, symObjAddr: 0x202C, symBinAddr: 0x1000057AC, symSize: 0x50 }
  - { offsetInCU: 0x70F2B, offset: 0x70F2B, size: 0x8, addend: 0x0, symName: __ZNSt3__110shared_ptrIN6spdlog5sinks21ansicolor_stdout_sinkINS1_7details13console_mutexEEEED1B7v160006Ev, symObjAddr: 0x207C, symBinAddr: 0x1000057FC, symSize: 0x2C }
  - { offsetInCU: 0x70F55, offset: 0x70F55, size: 0x8, addend: 0x0, symName: __ZNSt3__110unique_ptrIN6spdlog7details15periodic_workerENS_14default_deleteIS3_EEED1B7v160006Ev, symObjAddr: 0x20A8, symBinAddr: 0x100005828, symSize: 0x2C }
  - { offsetInCU: 0x70F7F, offset: 0x70F7F, size: 0x8, addend: 0x0, symName: __ZNSt3__18functionIFvRKNS_12basic_stringIcNS_11char_traitsIcEENS_9allocatorIcEEEEEED1Ev, symObjAddr: 0x20D4, symBinAddr: 0x100005854, symSize: 0x2C }
  - { offsetInCU: 0x70FAB, offset: 0x70FAB, size: 0x8, addend: 0x0, symName: __ZNSt3__113unordered_mapINS_12basic_stringIcNS_11char_traitsIcEENS_9allocatorIcEEEEN6spdlog5level10level_enumENS_4hashIS6_EENS_8equal_toIS6_EENS4_INS_4pairIKS6_S9_EEEEED1B7v160006Ev, symObjAddr: 0x2100, symBinAddr: 0x100005880, symSize: 0x2C }
  - { offsetInCU: 0x70FD5, offset: 0x70FD5, size: 0x8, addend: 0x0, symName: __ZNSt3__113unordered_mapINS_12basic_stringIcNS_11char_traitsIcEENS_9allocatorIcEEEENS_10shared_ptrIN6spdlog6loggerEEENS_4hashIS6_EENS_8equal_toIS6_EENS4_INS_4pairIKS6_SA_EEEEED1B7v160006Ev, symObjAddr: 0x212C, symBinAddr: 0x1000058AC, symSize: 0x2C }
  - { offsetInCU: 0x70FFF, offset: 0x70FFF, size: 0x8, addend: 0x0, symName: __ZNSt3__15mutexC2B7v160006Ev, symObjAddr: 0x2158, symBinAddr: 0x1000058D8, symSize: 0x44 }
  - { offsetInCU: 0x71029, offset: 0x71029, size: 0x8, addend: 0x0, symName: __ZNSt3__113unordered_mapINS_12basic_stringIcNS_11char_traitsIcEENS_9allocatorIcEEEENS_10shared_ptrIN6spdlog6loggerEEENS_4hashIS6_EENS_8equal_toIS6_EENS4_INS_4pairIKS6_SA_EEEEEC2B7v160006Ev, symObjAddr: 0x219C, symBinAddr: 0x10000591C, symSize: 0x3C }
  - { offsetInCU: 0x71053, offset: 0x71053, size: 0x8, addend: 0x0, symName: __ZNSt3__112__hash_tableINS_17__hash_value_typeINS_12basic_stringIcNS_11char_traitsIcEENS_9allocatorIcEEEENS_10shared_ptrIN6spdlog6loggerEEEEENS_22__unordered_map_hasherIS7_SC_NS_4hashIS7_EENS_8equal_toIS7_EELb1EEENS_21__unordered_map_equalIS7_SC_SH_SF_Lb1EEENS5_ISC_EEEC1Ev, symObjAddr: 0x21D8, symBinAddr: 0x100005958, symSize: 0x2C }
  - { offsetInCU: 0x7107F, offset: 0x7107F, size: 0x8, addend: 0x0, symName: __ZNSt3__112__hash_tableINS_17__hash_value_typeINS_12basic_stringIcNS_11char_traitsIcEENS_9allocatorIcEEEENS_10shared_ptrIN6spdlog6loggerEEEEENS_22__unordered_map_hasherIS7_SC_NS_4hashIS7_EENS_8equal_toIS7_EELb1EEENS_21__unordered_map_equalIS7_SC_SH_SF_Lb1EEENS5_ISC_EEEC2Ev, symObjAddr: 0x2214, symBinAddr: 0x100005994, symSize: 0x7C }
  - { offsetInCU: 0x710AB, offset: 0x710AB, size: 0x8, addend: 0x0, symName: __ZNSt3__110unique_ptrIA_PNS_16__hash_node_baseIPNS_11__hash_nodeINS_17__hash_value_typeINS_12basic_stringIcNS_11char_traitsIcEENS_9allocatorIcEEEENS_10shared_ptrIN6spdlog6loggerEEEEEPvEEEENS_25__bucket_list_deallocatorINS7_ISJ_EEEEEC1B7v160006ILb1EvEEv, symObjAddr: 0x2290, symBinAddr: 0x100005A10, symSize: 0x2C }
  - { offsetInCU: 0x710E0, offset: 0x710E0, size: 0x8, addend: 0x0, symName: __ZNSt3__117__compressed_pairINS_16__hash_node_baseIPNS_11__hash_nodeINS_17__hash_value_typeINS_12basic_stringIcNS_11char_traitsIcEENS_9allocatorIcEEEENS_10shared_ptrIN6spdlog6loggerEEEEEPvEEEENS7_ISG_EEEC1B7v160006ILb1EvEEv, symObjAddr: 0x22BC, symBinAddr: 0x100005A3C, symSize: 0x2C }
  - { offsetInCU: 0x7111B, offset: 0x7111B, size: 0x8, addend: 0x0, symName: __ZNSt3__117__compressed_pairImNS_22__unordered_map_hasherINS_12basic_stringIcNS_11char_traitsIcEENS_9allocatorIcEEEENS_17__hash_value_typeIS7_NS_10shared_ptrIN6spdlog6loggerEEEEENS_4hashIS7_EENS_8equal_toIS7_EELb1EEEEC1B7v160006IiNS_18__default_init_tagEEEOT_OT0_, symObjAddr: 0x22E8, symBinAddr: 0x100005A68, symSize: 0x3C }
  - { offsetInCU: 0x71179, offset: 0x71179, size: 0x8, addend: 0x0, symName: __ZNSt3__117__compressed_pairIfNS_21__unordered_map_equalINS_12basic_stringIcNS_11char_traitsIcEENS_9allocatorIcEEEENS_17__hash_value_typeIS7_NS_10shared_ptrIN6spdlog6loggerEEEEENS_8equal_toIS7_EENS_4hashIS7_EELb1EEEEC1B7v160006IfNS_18__default_init_tagEEEOT_OT0_, symObjAddr: 0x2324, symBinAddr: 0x100005AA4, symSize: 0x3C }
  - { offsetInCU: 0x711D1, offset: 0x711D1, size: 0x8, addend: 0x0, symName: __ZNSt3__110unique_ptrIA_PNS_16__hash_node_baseIPNS_11__hash_nodeINS_17__hash_value_typeINS_12basic_stringIcNS_11char_traitsIcEENS_9allocatorIcEEEENS_10shared_ptrIN6spdlog6loggerEEEEEPvEEEENS_25__bucket_list_deallocatorINS7_ISJ_EEEEEC2B7v160006ILb1EvEEv, symObjAddr: 0x2360, symBinAddr: 0x100005AE0, symSize: 0x3C }
  - { offsetInCU: 0x7120C, offset: 0x7120C, size: 0x8, addend: 0x0, symName: __ZNSt3__117__compressed_pairIPPNS_16__hash_node_baseIPNS_11__hash_nodeINS_17__hash_value_typeINS_12basic_stringIcNS_11char_traitsIcEENS_9allocatorIcEEEENS_10shared_ptrIN6spdlog6loggerEEEEEPvEEEENS_25__bucket_list_deallocatorINS7_ISJ_EEEEEC1B7v160006INS_16__value_init_tagESQ_EEOT_OT0_, symObjAddr: 0x239C, symBinAddr: 0x100005B1C, symSize: 0x3C }
  - { offsetInCU: 0x71264, offset: 0x71264, size: 0x8, addend: 0x0, symName: __ZNSt3__117__compressed_pairIPPNS_16__hash_node_baseIPNS_11__hash_nodeINS_17__hash_value_typeINS_12basic_stringIcNS_11char_traitsIcEENS_9allocatorIcEEEENS_10shared_ptrIN6spdlog6loggerEEEEEPvEEEENS_25__bucket_list_deallocatorINS7_ISJ_EEEEEC2B7v160006INS_16__value_init_tagESQ_EEOT_OT0_, symObjAddr: 0x23D8, symBinAddr: 0x100005B58, symSize: 0x40 }
  - { offsetInCU: 0x712BC, offset: 0x712BC, size: 0x8, addend: 0x0, symName: __ZNSt3__122__compressed_pair_elemIPPNS_16__hash_node_baseIPNS_11__hash_nodeINS_17__hash_value_typeINS_12basic_stringIcNS_11char_traitsIcEENS_9allocatorIcEEEENS_10shared_ptrIN6spdlog6loggerEEEEEPvEEEELi0ELb0EEC2B7v160006ENS_16__value_init_tagE, symObjAddr: 0x2418, symBinAddr: 0x100005B98, symSize: 0x18 }
  - { offsetInCU: 0x712F1, offset: 0x712F1, size: 0x8, addend: 0x0, symName: __ZNSt3__122__compressed_pair_elemINS_25__bucket_list_deallocatorINS_9allocatorIPNS_16__hash_node_baseIPNS_11__hash_nodeINS_17__hash_value_typeINS_12basic_stringIcNS_11char_traitsIcEENS2_IcEEEENS_10shared_ptrIN6spdlog6loggerEEEEEPvEEEEEEEELi1ELb0EEC2B7v160006ENS_16__value_init_tagE, symObjAddr: 0x2430, symBinAddr: 0x100005BB0, symSize: 0x2C }
  - { offsetInCU: 0x71326, offset: 0x71326, size: 0x8, addend: 0x0, symName: __ZNSt3__125__bucket_list_deallocatorINS_9allocatorIPNS_16__hash_node_baseIPNS_11__hash_nodeINS_17__hash_value_typeINS_12basic_stringIcNS_11char_traitsIcEENS1_IcEEEENS_10shared_ptrIN6spdlog6loggerEEEEEPvEEEEEEEC1B7v160006Ev, symObjAddr: 0x245C, symBinAddr: 0x100005BDC, symSize: 0x2C }
  - { offsetInCU: 0x71350, offset: 0x71350, size: 0x8, addend: 0x0, symName: __ZNSt3__125__bucket_list_deallocatorINS_9allocatorIPNS_16__hash_node_baseIPNS_11__hash_nodeINS_17__hash_value_typeINS_12basic_stringIcNS_11char_traitsIcEENS1_IcEEEENS_10shared_ptrIN6spdlog6loggerEEEEEPvEEEEEEEC2B7v160006Ev, symObjAddr: 0x2488, symBinAddr: 0x100005C08, symSize: 0x40 }
  - { offsetInCU: 0x7137A, offset: 0x7137A, size: 0x8, addend: 0x0, symName: __ZNSt3__117__compressed_pairImNS_9allocatorIPNS_16__hash_node_baseIPNS_11__hash_nodeINS_17__hash_value_typeINS_12basic_stringIcNS_11char_traitsIcEENS1_IcEEEENS_10shared_ptrIN6spdlog6loggerEEEEEPvEEEEEEEC1B7v160006IiNS_18__default_init_tagEEEOT_OT0_, symObjAddr: 0x24C8, symBinAddr: 0x100005C48, symSize: 0x3C }
  - { offsetInCU: 0x713D2, offset: 0x713D2, size: 0x8, addend: 0x0, symName: __ZNSt3__117__compressed_pairImNS_9allocatorIPNS_16__hash_node_baseIPNS_11__hash_nodeINS_17__hash_value_typeINS_12basic_stringIcNS_11char_traitsIcEENS1_IcEEEENS_10shared_ptrIN6spdlog6loggerEEEEEPvEEEEEEEC2B7v160006IiNS_18__default_init_tagEEEOT_OT0_, symObjAddr: 0x2504, symBinAddr: 0x100005C84, symSize: 0x40 }
  - { offsetInCU: 0x7142A, offset: 0x7142A, size: 0x8, addend: 0x0, symName: __ZNSt3__122__compressed_pair_elemImLi0ELb0EEC2B7v160006IivEEOT_, symObjAddr: 0x2544, symBinAddr: 0x100005CC4, symSize: 0x24 }
  - { offsetInCU: 0x7146C, offset: 0x7146C, size: 0x8, addend: 0x0, symName: __ZNSt3__122__compressed_pair_elemINS_9allocatorIPNS_16__hash_node_baseIPNS_11__hash_nodeINS_17__hash_value_typeINS_12basic_stringIcNS_11char_traitsIcEENS1_IcEEEENS_10shared_ptrIN6spdlog6loggerEEEEEPvEEEEEELi1ELb1EEC2B7v160006ENS_18__default_init_tagE, symObjAddr: 0x2568, symBinAddr: 0x100005CE8, symSize: 0x2C }
  - { offsetInCU: 0x714A1, offset: 0x714A1, size: 0x8, addend: 0x0, symName: __ZNSt3__19allocatorIPNS_16__hash_node_baseIPNS_11__hash_nodeINS_17__hash_value_typeINS_12basic_stringIcNS_11char_traitsIcEENS0_IcEEEENS_10shared_ptrIN6spdlog6loggerEEEEEPvEEEEEC2B7v160006Ev, symObjAddr: 0x2594, symBinAddr: 0x100005D14, symSize: 0x2C }
  - { offsetInCU: 0x714CB, offset: 0x714CB, size: 0x8, addend: 0x0, symName: __ZNSt3__116__non_trivial_ifILb1ENS_9allocatorIPNS_16__hash_node_baseIPNS_11__hash_nodeINS_17__hash_value_typeINS_12basic_stringIcNS_11char_traitsIcEENS1_IcEEEENS_10shared_ptrIN6spdlog6loggerEEEEEPvEEEEEEEC2B7v160006Ev, symObjAddr: 0x25C0, symBinAddr: 0x100005D40, symSize: 0x14 }
  - { offsetInCU: 0x714F5, offset: 0x714F5, size: 0x8, addend: 0x0, symName: __ZNSt3__117__compressed_pairINS_16__hash_node_baseIPNS_11__hash_nodeINS_17__hash_value_typeINS_12basic_stringIcNS_11char_traitsIcEENS_9allocatorIcEEEENS_10shared_ptrIN6spdlog6loggerEEEEEPvEEEENS7_ISG_EEEC2B7v160006ILb1EvEEv, symObjAddr: 0x25D4, symBinAddr: 0x100005D54, symSize: 0x34 }
  - { offsetInCU: 0x7152A, offset: 0x7152A, size: 0x8, addend: 0x0, symName: __ZNSt3__122__compressed_pair_elemINS_16__hash_node_baseIPNS_11__hash_nodeINS_17__hash_value_typeINS_12basic_stringIcNS_11char_traitsIcEENS_9allocatorIcEEEENS_10shared_ptrIN6spdlog6loggerEEEEEPvEEEELi0ELb0EEC2B7v160006ENS_16__value_init_tagE, symObjAddr: 0x2608, symBinAddr: 0x100005D88, symSize: 0x2C }
  - { offsetInCU: 0x7155F, offset: 0x7155F, size: 0x8, addend: 0x0, symName: __ZNSt3__122__compressed_pair_elemINS_9allocatorINS_11__hash_nodeINS_17__hash_value_typeINS_12basic_stringIcNS_11char_traitsIcEENS1_IcEEEENS_10shared_ptrIN6spdlog6loggerEEEEEPvEEEELi1ELb1EEC2B7v160006ENS_16__value_init_tagE, symObjAddr: 0x2634, symBinAddr: 0x100005DB4, symSize: 0x2C }
  - { offsetInCU: 0x71594, offset: 0x71594, size: 0x8, addend: 0x0, symName: __ZNSt3__116__hash_node_baseIPNS_11__hash_nodeINS_17__hash_value_typeINS_12basic_stringIcNS_11char_traitsIcEENS_9allocatorIcEEEENS_10shared_ptrIN6spdlog6loggerEEEEEPvEEEC1B7v160006Ev, symObjAddr: 0x2660, symBinAddr: 0x100005DE0, symSize: 0x2C }
  - { offsetInCU: 0x715BE, offset: 0x715BE, size: 0x8, addend: 0x0, symName: __ZNSt3__116__hash_node_baseIPNS_11__hash_nodeINS_17__hash_value_typeINS_12basic_stringIcNS_11char_traitsIcEENS_9allocatorIcEEEENS_10shared_ptrIN6spdlog6loggerEEEEEPvEEEC2B7v160006Ev, symObjAddr: 0x268C, symBinAddr: 0x100005E0C, symSize: 0x18 }
  - { offsetInCU: 0x715E8, offset: 0x715E8, size: 0x8, addend: 0x0, symName: __ZNSt3__19allocatorINS_11__hash_nodeINS_17__hash_value_typeINS_12basic_stringIcNS_11char_traitsIcEENS0_IcEEEENS_10shared_ptrIN6spdlog6loggerEEEEEPvEEEC2B7v160006Ev, symObjAddr: 0x26A4, symBinAddr: 0x100005E24, symSize: 0x2C }
  - { offsetInCU: 0x71612, offset: 0x71612, size: 0x8, addend: 0x0, symName: __ZNSt3__116__non_trivial_ifILb1ENS_9allocatorINS_11__hash_nodeINS_17__hash_value_typeINS_12basic_stringIcNS_11char_traitsIcEENS1_IcEEEENS_10shared_ptrIN6spdlog6loggerEEEEEPvEEEEEC2B7v160006Ev, symObjAddr: 0x26D0, symBinAddr: 0x100005E50, symSize: 0x14 }
  - { offsetInCU: 0x7163C, offset: 0x7163C, size: 0x8, addend: 0x0, symName: __ZNSt3__117__compressed_pairImNS_22__unordered_map_hasherINS_12basic_stringIcNS_11char_traitsIcEENS_9allocatorIcEEEENS_17__hash_value_typeIS7_NS_10shared_ptrIN6spdlog6loggerEEEEENS_4hashIS7_EENS_8equal_toIS7_EELb1EEEEC2B7v160006IiNS_18__default_init_tagEEEOT_OT0_, symObjAddr: 0x26E4, symBinAddr: 0x100005E64, symSize: 0x40 }
  - { offsetInCU: 0x71694, offset: 0x71694, size: 0x8, addend: 0x0, symName: __ZNSt3__122__compressed_pair_elemINS_22__unordered_map_hasherINS_12basic_stringIcNS_11char_traitsIcEENS_9allocatorIcEEEENS_17__hash_value_typeIS7_NS_10shared_ptrIN6spdlog6loggerEEEEENS_4hashIS7_EENS_8equal_toIS7_EELb1EEELi1ELb1EEC2B7v160006ENS_18__default_init_tagE, symObjAddr: 0x2724, symBinAddr: 0x100005EA4, symSize: 0x2C }
  - { offsetInCU: 0x716C9, offset: 0x716C9, size: 0x8, addend: 0x0, symName: __ZNSt3__122__unordered_map_hasherINS_12basic_stringIcNS_11char_traitsIcEENS_9allocatorIcEEEENS_17__hash_value_typeIS6_NS_10shared_ptrIN6spdlog6loggerEEEEENS_4hashIS6_EENS_8equal_toIS6_EELb1EEC2B7v160006Ev, symObjAddr: 0x2750, symBinAddr: 0x100005ED0, symSize: 0x14 }
  - { offsetInCU: 0x716F3, offset: 0x716F3, size: 0x8, addend: 0x0, symName: __ZNSt3__117__compressed_pairIfNS_21__unordered_map_equalINS_12basic_stringIcNS_11char_traitsIcEENS_9allocatorIcEEEENS_17__hash_value_typeIS7_NS_10shared_ptrIN6spdlog6loggerEEEEENS_8equal_toIS7_EENS_4hashIS7_EELb1EEEEC2B7v160006IfNS_18__default_init_tagEEEOT_OT0_, symObjAddr: 0x2764, symBinAddr: 0x100005EE4, symSize: 0x40 }
  - { offsetInCU: 0x7174B, offset: 0x7174B, size: 0x8, addend: 0x0, symName: __ZNSt3__122__compressed_pair_elemIfLi0ELb0EEC2B7v160006IfvEEOT_, symObjAddr: 0x27A4, symBinAddr: 0x100005F24, symSize: 0x24 }
  - { offsetInCU: 0x7178D, offset: 0x7178D, size: 0x8, addend: 0x0, symName: __ZNSt3__122__compressed_pair_elemINS_21__unordered_map_equalINS_12basic_stringIcNS_11char_traitsIcEENS_9allocatorIcEEEENS_17__hash_value_typeIS7_NS_10shared_ptrIN6spdlog6loggerEEEEENS_8equal_toIS7_EENS_4hashIS7_EELb1EEELi1ELb1EEC2B7v160006ENS_18__default_init_tagE, symObjAddr: 0x27C8, symBinAddr: 0x100005F48, symSize: 0x2C }
  - { offsetInCU: 0x717C2, offset: 0x717C2, size: 0x8, addend: 0x0, symName: __ZNSt3__121__unordered_map_equalINS_12basic_stringIcNS_11char_traitsIcEENS_9allocatorIcEEEENS_17__hash_value_typeIS6_NS_10shared_ptrIN6spdlog6loggerEEEEENS_8equal_toIS6_EENS_4hashIS6_EELb1EEC2B7v160006Ev, symObjAddr: 0x27F4, symBinAddr: 0x100005F74, symSize: 0x14 }
  - { offsetInCU: 0x717EC, offset: 0x717EC, size: 0x8, addend: 0x0, symName: __ZNSt3__113unordered_mapINS_12basic_stringIcNS_11char_traitsIcEENS_9allocatorIcEEEEN6spdlog5level10level_enumENS_4hashIS6_EENS_8equal_toIS6_EENS4_INS_4pairIKS6_S9_EEEEEC2B7v160006Ev, symObjAddr: 0x2808, symBinAddr: 0x100005F88, symSize: 0x3C }
  - { offsetInCU: 0x71816, offset: 0x71816, size: 0x8, addend: 0x0, symName: __ZNSt3__112__hash_tableINS_17__hash_value_typeINS_12basic_stringIcNS_11char_traitsIcEENS_9allocatorIcEEEEN6spdlog5level10level_enumEEENS_22__unordered_map_hasherIS7_SB_NS_4hashIS7_EENS_8equal_toIS7_EELb1EEENS_21__unordered_map_equalIS7_SB_SG_SE_Lb1EEENS5_ISB_EEEC1Ev, symObjAddr: 0x2844, symBinAddr: 0x100005FC4, symSize: 0x2C }
  - { offsetInCU: 0x71842, offset: 0x71842, size: 0x8, addend: 0x0, symName: __ZNSt3__112__hash_tableINS_17__hash_value_typeINS_12basic_stringIcNS_11char_traitsIcEENS_9allocatorIcEEEEN6spdlog5level10level_enumEEENS_22__unordered_map_hasherIS7_SB_NS_4hashIS7_EENS_8equal_toIS7_EELb1EEENS_21__unordered_map_equalIS7_SB_SG_SE_Lb1EEENS5_ISB_EEEC2Ev, symObjAddr: 0x2880, symBinAddr: 0x100006000, symSize: 0x7C }
  - { offsetInCU: 0x7186E, offset: 0x7186E, size: 0x8, addend: 0x0, symName: __ZNSt3__110unique_ptrIA_PNS_16__hash_node_baseIPNS_11__hash_nodeINS_17__hash_value_typeINS_12basic_stringIcNS_11char_traitsIcEENS_9allocatorIcEEEEN6spdlog5level10level_enumEEEPvEEEENS_25__bucket_list_deallocatorINS7_ISI_EEEEEC1B7v160006ILb1EvEEv, symObjAddr: 0x28FC, symBinAddr: 0x10000607C, symSize: 0x2C }
  - { offsetInCU: 0x718A3, offset: 0x718A3, size: 0x8, addend: 0x0, symName: __ZNSt3__117__compressed_pairINS_16__hash_node_baseIPNS_11__hash_nodeINS_17__hash_value_typeINS_12basic_stringIcNS_11char_traitsIcEENS_9allocatorIcEEEEN6spdlog5level10level_enumEEEPvEEEENS7_ISF_EEEC1B7v160006ILb1EvEEv, symObjAddr: 0x2928, symBinAddr: 0x1000060A8, symSize: 0x2C }
  - { offsetInCU: 0x718D8, offset: 0x718D8, size: 0x8, addend: 0x0, symName: __ZNSt3__117__compressed_pairImNS_22__unordered_map_hasherINS_12basic_stringIcNS_11char_traitsIcEENS_9allocatorIcEEEENS_17__hash_value_typeIS7_N6spdlog5level10level_enumEEENS_4hashIS7_EENS_8equal_toIS7_EELb1EEEEC1B7v160006IiNS_18__default_init_tagEEEOT_OT0_, symObjAddr: 0x2954, symBinAddr: 0x1000060D4, symSize: 0x3C }
  - { offsetInCU: 0x71930, offset: 0x71930, size: 0x8, addend: 0x0, symName: __ZNSt3__117__compressed_pairIfNS_21__unordered_map_equalINS_12basic_stringIcNS_11char_traitsIcEENS_9allocatorIcEEEENS_17__hash_value_typeIS7_N6spdlog5level10level_enumEEENS_8equal_toIS7_EENS_4hashIS7_EELb1EEEEC1B7v160006IfNS_18__default_init_tagEEEOT_OT0_, symObjAddr: 0x2990, symBinAddr: 0x100006110, symSize: 0x3C }
  - { offsetInCU: 0x71988, offset: 0x71988, size: 0x8, addend: 0x0, symName: __ZNSt3__110unique_ptrIA_PNS_16__hash_node_baseIPNS_11__hash_nodeINS_17__hash_value_typeINS_12basic_stringIcNS_11char_traitsIcEENS_9allocatorIcEEEEN6spdlog5level10level_enumEEEPvEEEENS_25__bucket_list_deallocatorINS7_ISI_EEEEEC2B7v160006ILb1EvEEv, symObjAddr: 0x29CC, symBinAddr: 0x10000614C, symSize: 0x3C }
  - { offsetInCU: 0x719BD, offset: 0x719BD, size: 0x8, addend: 0x0, symName: __ZNSt3__117__compressed_pairIPPNS_16__hash_node_baseIPNS_11__hash_nodeINS_17__hash_value_typeINS_12basic_stringIcNS_11char_traitsIcEENS_9allocatorIcEEEEN6spdlog5level10level_enumEEEPvEEEENS_25__bucket_list_deallocatorINS7_ISI_EEEEEC1B7v160006INS_16__value_init_tagESP_EEOT_OT0_, symObjAddr: 0x2A08, symBinAddr: 0x100006188, symSize: 0x3C }
  - { offsetInCU: 0x71A15, offset: 0x71A15, size: 0x8, addend: 0x0, symName: __ZNSt3__117__compressed_pairIPPNS_16__hash_node_baseIPNS_11__hash_nodeINS_17__hash_value_typeINS_12basic_stringIcNS_11char_traitsIcEENS_9allocatorIcEEEEN6spdlog5level10level_enumEEEPvEEEENS_25__bucket_list_deallocatorINS7_ISI_EEEEEC2B7v160006INS_16__value_init_tagESP_EEOT_OT0_, symObjAddr: 0x2A44, symBinAddr: 0x1000061C4, symSize: 0x40 }
  - { offsetInCU: 0x71A6D, offset: 0x71A6D, size: 0x8, addend: 0x0, symName: __ZNSt3__122__compressed_pair_elemIPPNS_16__hash_node_baseIPNS_11__hash_nodeINS_17__hash_value_typeINS_12basic_stringIcNS_11char_traitsIcEENS_9allocatorIcEEEEN6spdlog5level10level_enumEEEPvEEEELi0ELb0EEC2B7v160006ENS_16__value_init_tagE, symObjAddr: 0x2A84, symBinAddr: 0x100006204, symSize: 0x18 }
  - { offsetInCU: 0x71AA2, offset: 0x71AA2, size: 0x8, addend: 0x0, symName: __ZNSt3__122__compressed_pair_elemINS_25__bucket_list_deallocatorINS_9allocatorIPNS_16__hash_node_baseIPNS_11__hash_nodeINS_17__hash_value_typeINS_12basic_stringIcNS_11char_traitsIcEENS2_IcEEEEN6spdlog5level10level_enumEEEPvEEEEEEEELi1ELb0EEC2B7v160006ENS_16__value_init_tagE, symObjAddr: 0x2A9C, symBinAddr: 0x10000621C, symSize: 0x2C }
  - { offsetInCU: 0x71AD7, offset: 0x71AD7, size: 0x8, addend: 0x0, symName: __ZNSt3__125__bucket_list_deallocatorINS_9allocatorIPNS_16__hash_node_baseIPNS_11__hash_nodeINS_17__hash_value_typeINS_12basic_stringIcNS_11char_traitsIcEENS1_IcEEEEN6spdlog5level10level_enumEEEPvEEEEEEEC1B7v160006Ev, symObjAddr: 0x2AC8, symBinAddr: 0x100006248, symSize: 0x2C }
  - { offsetInCU: 0x71B01, offset: 0x71B01, size: 0x8, addend: 0x0, symName: __ZNSt3__125__bucket_list_deallocatorINS_9allocatorIPNS_16__hash_node_baseIPNS_11__hash_nodeINS_17__hash_value_typeINS_12basic_stringIcNS_11char_traitsIcEENS1_IcEEEEN6spdlog5level10level_enumEEEPvEEEEEEEC2B7v160006Ev, symObjAddr: 0x2AF4, symBinAddr: 0x100006274, symSize: 0x40 }
  - { offsetInCU: 0x71B2B, offset: 0x71B2B, size: 0x8, addend: 0x0, symName: __ZNSt3__117__compressed_pairImNS_9allocatorIPNS_16__hash_node_baseIPNS_11__hash_nodeINS_17__hash_value_typeINS_12basic_stringIcNS_11char_traitsIcEENS1_IcEEEEN6spdlog5level10level_enumEEEPvEEEEEEEC1B7v160006IiNS_18__default_init_tagEEEOT_OT0_, symObjAddr: 0x2B34, symBinAddr: 0x1000062B4, symSize: 0x3C }
  - { offsetInCU: 0x71B83, offset: 0x71B83, size: 0x8, addend: 0x0, symName: __ZNSt3__117__compressed_pairImNS_9allocatorIPNS_16__hash_node_baseIPNS_11__hash_nodeINS_17__hash_value_typeINS_12basic_stringIcNS_11char_traitsIcEENS1_IcEEEEN6spdlog5level10level_enumEEEPvEEEEEEEC2B7v160006IiNS_18__default_init_tagEEEOT_OT0_, symObjAddr: 0x2B70, symBinAddr: 0x1000062F0, symSize: 0x40 }
  - { offsetInCU: 0x71BDB, offset: 0x71BDB, size: 0x8, addend: 0x0, symName: __ZNSt3__122__compressed_pair_elemINS_9allocatorIPNS_16__hash_node_baseIPNS_11__hash_nodeINS_17__hash_value_typeINS_12basic_stringIcNS_11char_traitsIcEENS1_IcEEEEN6spdlog5level10level_enumEEEPvEEEEEELi1ELb1EEC2B7v160006ENS_18__default_init_tagE, symObjAddr: 0x2BB0, symBinAddr: 0x100006330, symSize: 0x2C }
  - { offsetInCU: 0x71C10, offset: 0x71C10, size: 0x8, addend: 0x0, symName: __ZNSt3__19allocatorIPNS_16__hash_node_baseIPNS_11__hash_nodeINS_17__hash_value_typeINS_12basic_stringIcNS_11char_traitsIcEENS0_IcEEEEN6spdlog5level10level_enumEEEPvEEEEEC2B7v160006Ev, symObjAddr: 0x2BDC, symBinAddr: 0x10000635C, symSize: 0x2C }
  - { offsetInCU: 0x71C3A, offset: 0x71C3A, size: 0x8, addend: 0x0, symName: __ZNSt3__116__non_trivial_ifILb1ENS_9allocatorIPNS_16__hash_node_baseIPNS_11__hash_nodeINS_17__hash_value_typeINS_12basic_stringIcNS_11char_traitsIcEENS1_IcEEEEN6spdlog5level10level_enumEEEPvEEEEEEEC2B7v160006Ev, symObjAddr: 0x2C08, symBinAddr: 0x100006388, symSize: 0x14 }
  - { offsetInCU: 0x71C64, offset: 0x71C64, size: 0x8, addend: 0x0, symName: __ZNSt3__117__compressed_pairINS_16__hash_node_baseIPNS_11__hash_nodeINS_17__hash_value_typeINS_12basic_stringIcNS_11char_traitsIcEENS_9allocatorIcEEEEN6spdlog5level10level_enumEEEPvEEEENS7_ISF_EEEC2B7v160006ILb1EvEEv, symObjAddr: 0x2C1C, symBinAddr: 0x10000639C, symSize: 0x34 }
  - { offsetInCU: 0x71C99, offset: 0x71C99, size: 0x8, addend: 0x0, symName: __ZNSt3__122__compressed_pair_elemINS_16__hash_node_baseIPNS_11__hash_nodeINS_17__hash_value_typeINS_12basic_stringIcNS_11char_traitsIcEENS_9allocatorIcEEEEN6spdlog5level10level_enumEEEPvEEEELi0ELb0EEC2B7v160006ENS_16__value_init_tagE, symObjAddr: 0x2C50, symBinAddr: 0x1000063D0, symSize: 0x2C }
  - { offsetInCU: 0x71CCE, offset: 0x71CCE, size: 0x8, addend: 0x0, symName: __ZNSt3__122__compressed_pair_elemINS_9allocatorINS_11__hash_nodeINS_17__hash_value_typeINS_12basic_stringIcNS_11char_traitsIcEENS1_IcEEEEN6spdlog5level10level_enumEEEPvEEEELi1ELb1EEC2B7v160006ENS_16__value_init_tagE, symObjAddr: 0x2C7C, symBinAddr: 0x1000063FC, symSize: 0x2C }
  - { offsetInCU: 0x71D03, offset: 0x71D03, size: 0x8, addend: 0x0, symName: __ZNSt3__116__hash_node_baseIPNS_11__hash_nodeINS_17__hash_value_typeINS_12basic_stringIcNS_11char_traitsIcEENS_9allocatorIcEEEEN6spdlog5level10level_enumEEEPvEEEC1B7v160006Ev, symObjAddr: 0x2CA8, symBinAddr: 0x100006428, symSize: 0x2C }
  - { offsetInCU: 0x71D2D, offset: 0x71D2D, size: 0x8, addend: 0x0, symName: __ZNSt3__116__hash_node_baseIPNS_11__hash_nodeINS_17__hash_value_typeINS_12basic_stringIcNS_11char_traitsIcEENS_9allocatorIcEEEEN6spdlog5level10level_enumEEEPvEEEC2B7v160006Ev, symObjAddr: 0x2CD4, symBinAddr: 0x100006454, symSize: 0x18 }
  - { offsetInCU: 0x71D57, offset: 0x71D57, size: 0x8, addend: 0x0, symName: __ZNSt3__19allocatorINS_11__hash_nodeINS_17__hash_value_typeINS_12basic_stringIcNS_11char_traitsIcEENS0_IcEEEEN6spdlog5level10level_enumEEEPvEEEC2B7v160006Ev, symObjAddr: 0x2CEC, symBinAddr: 0x10000646C, symSize: 0x2C }
  - { offsetInCU: 0x71D81, offset: 0x71D81, size: 0x8, addend: 0x0, symName: __ZNSt3__116__non_trivial_ifILb1ENS_9allocatorINS_11__hash_nodeINS_17__hash_value_typeINS_12basic_stringIcNS_11char_traitsIcEENS1_IcEEEEN6spdlog5level10level_enumEEEPvEEEEEC2B7v160006Ev, symObjAddr: 0x2D18, symBinAddr: 0x100006498, symSize: 0x14 }
  - { offsetInCU: 0x71DAB, offset: 0x71DAB, size: 0x8, addend: 0x0, symName: __ZNSt3__117__compressed_pairImNS_22__unordered_map_hasherINS_12basic_stringIcNS_11char_traitsIcEENS_9allocatorIcEEEENS_17__hash_value_typeIS7_N6spdlog5level10level_enumEEENS_4hashIS7_EENS_8equal_toIS7_EELb1EEEEC2B7v160006IiNS_18__default_init_tagEEEOT_OT0_, symObjAddr: 0x2D2C, symBinAddr: 0x1000064AC, symSize: 0x40 }
  - { offsetInCU: 0x71E03, offset: 0x71E03, size: 0x8, addend: 0x0, symName: __ZNSt3__122__compressed_pair_elemINS_22__unordered_map_hasherINS_12basic_stringIcNS_11char_traitsIcEENS_9allocatorIcEEEENS_17__hash_value_typeIS7_N6spdlog5level10level_enumEEENS_4hashIS7_EENS_8equal_toIS7_EELb1EEELi1ELb1EEC2B7v160006ENS_18__default_init_tagE, symObjAddr: 0x2D6C, symBinAddr: 0x1000064EC, symSize: 0x2C }
  - { offsetInCU: 0x71E38, offset: 0x71E38, size: 0x8, addend: 0x0, symName: __ZNSt3__122__unordered_map_hasherINS_12basic_stringIcNS_11char_traitsIcEENS_9allocatorIcEEEENS_17__hash_value_typeIS6_N6spdlog5level10level_enumEEENS_4hashIS6_EENS_8equal_toIS6_EELb1EEC2B7v160006Ev, symObjAddr: 0x2D98, symBinAddr: 0x100006518, symSize: 0x14 }
  - { offsetInCU: 0x71E62, offset: 0x71E62, size: 0x8, addend: 0x0, symName: __ZNSt3__117__compressed_pairIfNS_21__unordered_map_equalINS_12basic_stringIcNS_11char_traitsIcEENS_9allocatorIcEEEENS_17__hash_value_typeIS7_N6spdlog5level10level_enumEEENS_8equal_toIS7_EENS_4hashIS7_EELb1EEEEC2B7v160006IfNS_18__default_init_tagEEEOT_OT0_, symObjAddr: 0x2DAC, symBinAddr: 0x10000652C, symSize: 0x40 }
  - { offsetInCU: 0x71EBA, offset: 0x71EBA, size: 0x8, addend: 0x0, symName: __ZNSt3__122__compressed_pair_elemINS_21__unordered_map_equalINS_12basic_stringIcNS_11char_traitsIcEENS_9allocatorIcEEEENS_17__hash_value_typeIS7_N6spdlog5level10level_enumEEENS_8equal_toIS7_EENS_4hashIS7_EELb1EEELi1ELb1EEC2B7v160006ENS_18__default_init_tagE, symObjAddr: 0x2DEC, symBinAddr: 0x10000656C, symSize: 0x2C }
  - { offsetInCU: 0x71EEF, offset: 0x71EEF, size: 0x8, addend: 0x0, symName: __ZNSt3__121__unordered_map_equalINS_12basic_stringIcNS_11char_traitsIcEENS_9allocatorIcEEEENS_17__hash_value_typeIS6_N6spdlog5level10level_enumEEENS_8equal_toIS6_EENS_4hashIS6_EELb1EEC2B7v160006Ev, symObjAddr: 0x2E18, symBinAddr: 0x100006598, symSize: 0x14 }
  - { offsetInCU: 0x71F19, offset: 0x71F19, size: 0x8, addend: 0x0, symName: __ZN6spdlog17pattern_formatterC2ENS_17pattern_time_typeENSt3__112basic_stringIcNS2_11char_traitsIcEENS2_9allocatorIcEEEE, symObjAddr: 0x2E2C, symBinAddr: 0x1000065AC, symSize: 0x1CC }
  - { offsetInCU: 0x71F65, offset: 0x71F65, size: 0x8, addend: 0x0, symName: __ZN6spdlog9formatterC2Ev, symObjAddr: 0x2FF8, symBinAddr: 0x100006778, symSize: 0x24 }
  - { offsetInCU: 0x71F97, offset: 0x71F97, size: 0x8, addend: 0x0, symName: __ZNSt3__16chrono8durationIxNS_5ratioILl1ELl1EEEEC1B7v160006IiEERKT_PNS_9enable_ifIXaasr14is_convertibleIS8_xEE5valueooL_ZNS_17integral_constantIbLb0EE5valueEEntsr23treat_as_floating_pointIS6_EE5valueEvE4typeE, symObjAddr: 0x301C, symBinAddr: 0x10000679C, symSize: 0x3C }
  - { offsetInCU: 0x71FE4, offset: 0x71FE4, size: 0x8, addend: 0x0, symName: __ZNSt3__16vectorINS_10unique_ptrIN6spdlog7details14flag_formatterENS_14default_deleteIS4_EEEENS_9allocatorIS7_EEEC1B7v160006Ev, symObjAddr: 0x3058, symBinAddr: 0x1000067D8, symSize: 0x2C }
  - { offsetInCU: 0x7200E, offset: 0x7200E, size: 0x8, addend: 0x0, symName: __ZNSt3__16vectorINS_10unique_ptrIN6spdlog7details14flag_formatterENS_14default_deleteIS4_EEEENS_9allocatorIS7_EEE9push_backB7v160006EOS7_, symObjAddr: 0x3084, symBinAddr: 0x100006804, symSize: 0x6C }
  - { offsetInCU: 0x72045, offset: 0x72045, size: 0x8, addend: 0x0, symName: __ZN6spdlog7details12padding_infoC1Ev, symObjAddr: 0x316C, symBinAddr: 0x1000068EC, symSize: 0x2C }
  - { offsetInCU: 0x7206F, offset: 0x7206F, size: 0x8, addend: 0x0, symName: __ZNSt3__110unique_ptrIN6spdlog7details14flag_formatterENS_14default_deleteIS3_EEEC1B7v160006INS2_14full_formatterENS4_IS8_EEvvEEONS0_IT_T0_EE, symObjAddr: 0x3198, symBinAddr: 0x100006918, symSize: 0x34 }
  - { offsetInCU: 0x720BB, offset: 0x720BB, size: 0x8, addend: 0x0, symName: __ZNSt3__110unique_ptrIN6spdlog7details14flag_formatterENS_14default_deleteIS3_EEED1B7v160006Ev, symObjAddr: 0x31CC, symBinAddr: 0x10000694C, symSize: 0x2C }
  - { offsetInCU: 0x720E5, offset: 0x720E5, size: 0x8, addend: 0x0, symName: __ZNSt3__110unique_ptrIN6spdlog7details14full_formatterENS_14default_deleteIS3_EEED1B7v160006Ev, symObjAddr: 0x31F8, symBinAddr: 0x100006978, symSize: 0x2C }
  - { offsetInCU: 0x7210F, offset: 0x7210F, size: 0x8, addend: 0x0, symName: __ZNSt3__16vectorINS_10unique_ptrIN6spdlog7details14flag_formatterENS_14default_deleteIS4_EEEENS_9allocatorIS7_EEED1B7v160006Ev, symObjAddr: 0x3224, symBinAddr: 0x1000069A4, symSize: 0x2C }
  - { offsetInCU: 0x72139, offset: 0x72139, size: 0x8, addend: 0x0, symName: __ZN6spdlog9formatterD2Ev, symObjAddr: 0x3250, symBinAddr: 0x1000069D0, symSize: 0x14 }
  - { offsetInCU: 0x72163, offset: 0x72163, size: 0x8, addend: 0x0, symName: __ZN6spdlog17pattern_formatterD1Ev, symObjAddr: 0x3264, symBinAddr: 0x1000069E4, symSize: 0x2C }
  - { offsetInCU: 0x7218F, offset: 0x7218F, size: 0x8, addend: 0x0, symName: __ZN6spdlog17pattern_formatterD0Ev, symObjAddr: 0x3290, symBinAddr: 0x100006A10, symSize: 0x30 }
  - { offsetInCU: 0x721BB, offset: 0x721BB, size: 0x8, addend: 0x0, symName: __ZN6spdlog17pattern_formatter6formatERKNS_7details7log_msgERN3fmt2v919basic_memory_bufferIcLm250ENSt3__19allocatorIcEEEE, symObjAddr: 0x32C0, symBinAddr: 0x100006A40, symSize: 0x14C }
  - { offsetInCU: 0x72271, offset: 0x72271, size: 0x8, addend: 0x0, symName: __ZNK6spdlog17pattern_formatter5cloneEv, symObjAddr: 0x340C, symBinAddr: 0x100006B8C, symSize: 0x1A4 }
  - { offsetInCU: 0x72305, offset: 0x72305, size: 0x8, addend: 0x0, symName: __ZN6spdlog9formatterD1Ev, symObjAddr: 0x35B0, symBinAddr: 0x100006D30, symSize: 0x14 }
  - { offsetInCU: 0x7232F, offset: 0x7232F, size: 0x8, addend: 0x0, symName: __ZN6spdlog9formatterD0Ev, symObjAddr: 0x35C4, symBinAddr: 0x100006D44, symSize: 0xC }
  - { offsetInCU: 0x72359, offset: 0x72359, size: 0x8, addend: 0x0, symName: __ZNSt3__16chrono8durationIxNS_5ratioILl1ELl1EEEEC2B7v160006IiEERKT_PNS_9enable_ifIXaasr14is_convertibleIS8_xEE5valueooL_ZNS_17integral_constantIbLb0EE5valueEEntsr23treat_as_floating_pointIS6_EE5valueEvE4typeE, symObjAddr: 0x35D0, symBinAddr: 0x100006D50, symSize: 0x28 }
  - { offsetInCU: 0x723A6, offset: 0x723A6, size: 0x8, addend: 0x0, symName: __ZNSt3__16vectorINS_10unique_ptrIN6spdlog7details14flag_formatterENS_14default_deleteIS4_EEEENS_9allocatorIS7_EEEC2B7v160006Ev, symObjAddr: 0x35F8, symBinAddr: 0x100006D78, symSize: 0x58 }
  - { offsetInCU: 0x723D6, offset: 0x723D6, size: 0x8, addend: 0x0, symName: __ZNSt3__117__compressed_pairIPNS_10unique_ptrIN6spdlog7details14flag_formatterENS_14default_deleteIS4_EEEENS_9allocatorIS7_EEEC1B7v160006IDnNS_18__default_init_tagEEEOT_OT0_, symObjAddr: 0x3650, symBinAddr: 0x100006DD0, symSize: 0x3C }
  - { offsetInCU: 0x7242E, offset: 0x7242E, size: 0x8, addend: 0x0, symName: __ZNSt3__117__compressed_pairIPNS_10unique_ptrIN6spdlog7details14flag_formatterENS_14default_deleteIS4_EEEENS_9allocatorIS7_EEEC2B7v160006IDnNS_18__default_init_tagEEEOT_OT0_, symObjAddr: 0x369C, symBinAddr: 0x100006E1C, symSize: 0x40 }
  - { offsetInCU: 0x72486, offset: 0x72486, size: 0x8, addend: 0x0, symName: __ZNSt3__122__compressed_pair_elemIPNS_10unique_ptrIN6spdlog7details14flag_formatterENS_14default_deleteIS4_EEEELi0ELb0EEC2B7v160006IDnvEEOT_, symObjAddr: 0x36DC, symBinAddr: 0x100006E5C, symSize: 0x1C }
  - { offsetInCU: 0x724C8, offset: 0x724C8, size: 0x8, addend: 0x0, symName: __ZNSt3__122__compressed_pair_elemINS_9allocatorINS_10unique_ptrIN6spdlog7details14flag_formatterENS_14default_deleteIS5_EEEEEELi1ELb1EEC2B7v160006ENS_18__default_init_tagE, symObjAddr: 0x36F8, symBinAddr: 0x100006E78, symSize: 0x2C }
  - { offsetInCU: 0x724FD, offset: 0x724FD, size: 0x8, addend: 0x0, symName: __ZNSt3__19allocatorINS_10unique_ptrIN6spdlog7details14flag_formatterENS_14default_deleteIS4_EEEEEC2B7v160006Ev, symObjAddr: 0x3724, symBinAddr: 0x100006EA4, symSize: 0x2C }
  - { offsetInCU: 0x72527, offset: 0x72527, size: 0x8, addend: 0x0, symName: __ZNSt3__116__non_trivial_ifILb1ENS_9allocatorINS_10unique_ptrIN6spdlog7details14flag_formatterENS_14default_deleteIS5_EEEEEEEC2B7v160006Ev, symObjAddr: 0x3750, symBinAddr: 0x100006ED0, symSize: 0x14 }
  - { offsetInCU: 0x72551, offset: 0x72551, size: 0x8, addend: 0x0, symName: __ZNSt3__16vectorINS_10unique_ptrIN6spdlog7details14flag_formatterENS_14default_deleteIS4_EEEENS_9allocatorIS7_EEE9__end_capB7v160006Ev, symObjAddr: 0x3764, symBinAddr: 0x100006EE4, symSize: 0x28 }
  - { offsetInCU: 0x72577, offset: 0x72577, size: 0x8, addend: 0x0, symName: __ZNSt3__16vectorINS_10unique_ptrIN6spdlog7details14flag_formatterENS_14default_deleteIS4_EEEENS_9allocatorIS7_EEE22__construct_one_at_endB7v160006IJS7_EEEvDpOT_, symObjAddr: 0x378C, symBinAddr: 0x100006F0C, symSize: 0x90 }
  - { offsetInCU: 0x725C6, offset: 0x725C6, size: 0x8, addend: 0x0, symName: __ZNSt3__16vectorINS_10unique_ptrIN6spdlog7details14flag_formatterENS_14default_deleteIS4_EEEENS_9allocatorIS7_EEE21__push_back_slow_pathIS7_EEvOT_, symObjAddr: 0x381C, symBinAddr: 0x100006F9C, symSize: 0xD8 }
  - { offsetInCU: 0x72624, offset: 0x72624, size: 0x8, addend: 0x0, symName: __ZNSt3__117__compressed_pairIPNS_10unique_ptrIN6spdlog7details14flag_formatterENS_14default_deleteIS4_EEEENS_9allocatorIS7_EEE5firstB7v160006Ev, symObjAddr: 0x38F4, symBinAddr: 0x100007074, symSize: 0x24 }
  - { offsetInCU: 0x7264A, offset: 0x7264A, size: 0x8, addend: 0x0, symName: __ZNSt3__122__compressed_pair_elemIPNS_10unique_ptrIN6spdlog7details14flag_formatterENS_14default_deleteIS4_EEEELi0ELb0EE5__getB7v160006Ev, symObjAddr: 0x3918, symBinAddr: 0x100007098, symSize: 0x14 }
  - { offsetInCU: 0x7268C, offset: 0x7268C, size: 0x8, addend: 0x0, symName: __ZNSt3__16vectorINS_10unique_ptrIN6spdlog7details14flag_formatterENS_14default_deleteIS4_EEEENS_9allocatorIS7_EEE21_ConstructTransactionC1B7v160006ERSA_m, symObjAddr: 0x392C, symBinAddr: 0x1000070AC, symSize: 0x3C }
  - { offsetInCU: 0x726D4, offset: 0x726D4, size: 0x8, addend: 0x0, symName: __ZNSt3__116allocator_traitsINS_9allocatorINS_10unique_ptrIN6spdlog7details14flag_formatterENS_14default_deleteIS5_EEEEEEE9constructB7v160006IS8_JS8_EvEEvRS9_PT_DpOT0_, symObjAddr: 0x3968, symBinAddr: 0x1000070E8, symSize: 0x34 }
  - { offsetInCU: 0x7272B, offset: 0x7272B, size: 0x8, addend: 0x0, symName: __ZNSt3__16vectorINS_10unique_ptrIN6spdlog7details14flag_formatterENS_14default_deleteIS4_EEEENS_9allocatorIS7_EEE7__allocB7v160006Ev, symObjAddr: 0x399C, symBinAddr: 0x10000711C, symSize: 0x28 }
  - { offsetInCU: 0x72751, offset: 0x72751, size: 0x8, addend: 0x0, symName: __ZNSt3__16vectorINS_10unique_ptrIN6spdlog7details14flag_formatterENS_14default_deleteIS4_EEEENS_9allocatorIS7_EEE21_ConstructTransactionD1B7v160006Ev, symObjAddr: 0x39D8, symBinAddr: 0x100007158, symSize: 0x2C }
  - { offsetInCU: 0x7277B, offset: 0x7277B, size: 0x8, addend: 0x0, symName: __ZNSt3__16vectorINS_10unique_ptrIN6spdlog7details14flag_formatterENS_14default_deleteIS4_EEEENS_9allocatorIS7_EEE21_ConstructTransactionC2B7v160006ERSA_m, symObjAddr: 0x3A04, symBinAddr: 0x100007184, symSize: 0x44 }
  - { offsetInCU: 0x727C3, offset: 0x727C3, size: 0x8, addend: 0x0, symName: __ZNSt3__19allocatorINS_10unique_ptrIN6spdlog7details14flag_formatterENS_14default_deleteIS4_EEEEE9constructB7v160006IS7_JS7_EEEvPT_DpOT0_, symObjAddr: 0x3A48, symBinAddr: 0x1000071C8, symSize: 0x30 }
  - { offsetInCU: 0x72819, offset: 0x72819, size: 0x8, addend: 0x0, symName: __ZNSt3__110unique_ptrIN6spdlog7details14flag_formatterENS_14default_deleteIS3_EEEC1B7v160006EOS6_, symObjAddr: 0x3A78, symBinAddr: 0x1000071F8, symSize: 0x34 }
  - { offsetInCU: 0x72851, offset: 0x72851, size: 0x8, addend: 0x0, symName: __ZNSt3__110unique_ptrIN6spdlog7details14flag_formatterENS_14default_deleteIS3_EEEC2B7v160006EOS6_, symObjAddr: 0x3AAC, symBinAddr: 0x10000722C, symSize: 0x60 }
  - { offsetInCU: 0x72889, offset: 0x72889, size: 0x8, addend: 0x0, symName: __ZNSt3__110unique_ptrIN6spdlog7details14flag_formatterENS_14default_deleteIS3_EEE7releaseB7v160006Ev, symObjAddr: 0x3B0C, symBinAddr: 0x10000728C, symSize: 0x44 }
  - { offsetInCU: 0x728BE, offset: 0x728BE, size: 0x8, addend: 0x0, symName: __ZNSt3__110unique_ptrIN6spdlog7details14flag_formatterENS_14default_deleteIS3_EEE11get_deleterB7v160006Ev, symObjAddr: 0x3B50, symBinAddr: 0x1000072D0, symSize: 0x24 }
  - { offsetInCU: 0x728F0, offset: 0x728F0, size: 0x8, addend: 0x0, symName: __ZNSt3__117__compressed_pairIPN6spdlog7details14flag_formatterENS_14default_deleteIS3_EEEC1B7v160006IS4_S6_EEOT_OT0_, symObjAddr: 0x3B74, symBinAddr: 0x1000072F4, symSize: 0x3C }
  - { offsetInCU: 0x72948, offset: 0x72948, size: 0x8, addend: 0x0, symName: __ZNSt3__117__compressed_pairIPN6spdlog7details14flag_formatterENS_14default_deleteIS3_EEE5firstB7v160006Ev, symObjAddr: 0x3BB0, symBinAddr: 0x100007330, symSize: 0x24 }
  - { offsetInCU: 0x7296E, offset: 0x7296E, size: 0x8, addend: 0x0, symName: __ZNSt3__122__compressed_pair_elemIPN6spdlog7details14flag_formatterELi0ELb0EE5__getB7v160006Ev, symObjAddr: 0x3BD4, symBinAddr: 0x100007354, symSize: 0x14 }
  - { offsetInCU: 0x72994, offset: 0x72994, size: 0x8, addend: 0x0, symName: __ZNSt3__117__compressed_pairIPN6spdlog7details14flag_formatterENS_14default_deleteIS3_EEE6secondB7v160006Ev, symObjAddr: 0x3BE8, symBinAddr: 0x100007368, symSize: 0x24 }
  - { offsetInCU: 0x729BA, offset: 0x729BA, size: 0x8, addend: 0x0, symName: __ZNSt3__122__compressed_pair_elemINS_14default_deleteIN6spdlog7details14flag_formatterEEELi1ELb1EE5__getB7v160006Ev, symObjAddr: 0x3C0C, symBinAddr: 0x10000738C, symSize: 0x14 }
  - { offsetInCU: 0x729E0, offset: 0x729E0, size: 0x8, addend: 0x0, symName: __ZNSt3__117__compressed_pairIPN6spdlog7details14flag_formatterENS_14default_deleteIS3_EEEC2B7v160006IS4_S6_EEOT_OT0_, symObjAddr: 0x3C20, symBinAddr: 0x1000073A0, symSize: 0x44 }
  - { offsetInCU: 0x72A38, offset: 0x72A38, size: 0x8, addend: 0x0, symName: __ZNSt3__122__compressed_pair_elemIPN6spdlog7details14flag_formatterELi0ELb0EEC2B7v160006IS4_vEEOT_, symObjAddr: 0x3C64, symBinAddr: 0x1000073E4, symSize: 0x24 }
  - { offsetInCU: 0x72A7A, offset: 0x72A7A, size: 0x8, addend: 0x0, symName: __ZNSt3__122__compressed_pair_elemINS_14default_deleteIN6spdlog7details14flag_formatterEEELi1ELb1EEC2B7v160006IS5_vEEOT_, symObjAddr: 0x3C88, symBinAddr: 0x100007408, symSize: 0x18 }
  - { offsetInCU: 0x72ABC, offset: 0x72ABC, size: 0x8, addend: 0x0, symName: __ZNSt3__117__compressed_pairIPNS_10unique_ptrIN6spdlog7details14flag_formatterENS_14default_deleteIS4_EEEENS_9allocatorIS7_EEE6secondB7v160006Ev, symObjAddr: 0x3CA0, symBinAddr: 0x100007420, symSize: 0x24 }
  - { offsetInCU: 0x72AE2, offset: 0x72AE2, size: 0x8, addend: 0x0, symName: __ZNSt3__122__compressed_pair_elemINS_9allocatorINS_10unique_ptrIN6spdlog7details14flag_formatterENS_14default_deleteIS5_EEEEEELi1ELb1EE5__getB7v160006Ev, symObjAddr: 0x3CC4, symBinAddr: 0x100007444, symSize: 0x14 }
  - { offsetInCU: 0x72B08, offset: 0x72B08, size: 0x8, addend: 0x0, symName: __ZNSt3__16vectorINS_10unique_ptrIN6spdlog7details14flag_formatterENS_14default_deleteIS4_EEEENS_9allocatorIS7_EEE21_ConstructTransactionD2B7v160006Ev, symObjAddr: 0x3CD8, symBinAddr: 0x100007458, symSize: 0x20 }
  - { offsetInCU: 0x72B32, offset: 0x72B32, size: 0x8, addend: 0x0, symName: __ZNKSt3__16vectorINS_10unique_ptrIN6spdlog7details14flag_formatterENS_14default_deleteIS4_EEEENS_9allocatorIS7_EEE11__recommendB7v160006Em, symObjAddr: 0x3CF8, symBinAddr: 0x100007478, symSize: 0xB4 }
  - { offsetInCU: 0x72B87, offset: 0x72B87, size: 0x8, addend: 0x0, symName: __ZNKSt3__16vectorINS_10unique_ptrIN6spdlog7details14flag_formatterENS_14default_deleteIS4_EEEENS_9allocatorIS7_EEE4sizeB7v160006Ev, symObjAddr: 0x3DAC, symBinAddr: 0x10000752C, symSize: 0x28 }
  - { offsetInCU: 0x72BAD, offset: 0x72BAD, size: 0x8, addend: 0x0, symName: __ZNSt3__114__split_bufferINS_10unique_ptrIN6spdlog7details14flag_formatterENS_14default_deleteIS4_EEEERNS_9allocatorIS7_EEEC1EmmSA_, symObjAddr: 0x3DD4, symBinAddr: 0x100007554, symSize: 0x44 }
  - { offsetInCU: 0x72C03, offset: 0x72C03, size: 0x8, addend: 0x0, symName: __ZNSt3__114__split_bufferINS_10unique_ptrIN6spdlog7details14flag_formatterENS_14default_deleteIS4_EEEERNS_9allocatorIS7_EEED1Ev, symObjAddr: 0x3F30, symBinAddr: 0x1000076B0, symSize: 0x2C }
  - { offsetInCU: 0x72C2F, offset: 0x72C2F, size: 0x8, addend: 0x0, symName: __ZNKSt3__16vectorINS_10unique_ptrIN6spdlog7details14flag_formatterENS_14default_deleteIS4_EEEENS_9allocatorIS7_EEE8max_sizeEv, symObjAddr: 0x3F5C, symBinAddr: 0x1000076DC, symSize: 0x60 }
  - { offsetInCU: 0x72C57, offset: 0x72C57, size: 0x8, addend: 0x0, symName: __ZNKSt3__16vectorINS_10unique_ptrIN6spdlog7details14flag_formatterENS_14default_deleteIS4_EEEENS_9allocatorIS7_EEE20__throw_length_errorB7v160006Ev, symObjAddr: 0x3FBC, symBinAddr: 0x10000773C, symSize: 0x1C }
  - { offsetInCU: 0x72C7D, offset: 0x72C7D, size: 0x8, addend: 0x0, symName: __ZNKSt3__16vectorINS_10unique_ptrIN6spdlog7details14flag_formatterENS_14default_deleteIS4_EEEENS_9allocatorIS7_EEE8capacityB7v160006Ev, symObjAddr: 0x3FD8, symBinAddr: 0x100007758, symSize: 0x40 }
  - { offsetInCU: 0x72CAE, offset: 0x72CAE, size: 0x8, addend: 0x0, symName: __ZNSt3__116allocator_traitsINS_9allocatorINS_10unique_ptrIN6spdlog7details14flag_formatterENS_14default_deleteIS5_EEEEEEE8max_sizeB7v160006IS9_vEEmRKS9_, symObjAddr: 0x4070, symBinAddr: 0x1000077F0, symSize: 0x24 }
  - { offsetInCU: 0x72CDC, offset: 0x72CDC, size: 0x8, addend: 0x0, symName: __ZNKSt3__16vectorINS_10unique_ptrIN6spdlog7details14flag_formatterENS_14default_deleteIS4_EEEENS_9allocatorIS7_EEE7__allocB7v160006Ev, symObjAddr: 0x4094, symBinAddr: 0x100007814, symSize: 0x28 }
  - { offsetInCU: 0x72D02, offset: 0x72D02, size: 0x8, addend: 0x0, symName: __ZNSt3__114numeric_limitsIlE3maxB7v160006Ev, symObjAddr: 0x40BC, symBinAddr: 0x10000783C, symSize: 0x14 }
  - { offsetInCU: 0x72D21, offset: 0x72D21, size: 0x8, addend: 0x0, symName: __ZNKSt3__16__lessImmEclB7v160006ERKmS3_, symObjAddr: 0x4124, symBinAddr: 0x1000078A4, symSize: 0x34 }
  - { offsetInCU: 0x72D63, offset: 0x72D63, size: 0x8, addend: 0x0, symName: __ZNKSt3__19allocatorINS_10unique_ptrIN6spdlog7details14flag_formatterENS_14default_deleteIS4_EEEEE8max_sizeB7v160006Ev, symObjAddr: 0x4158, symBinAddr: 0x1000078D8, symSize: 0x14 }
  - { offsetInCU: 0x72D89, offset: 0x72D89, size: 0x8, addend: 0x0, symName: __ZNKSt3__117__compressed_pairIPNS_10unique_ptrIN6spdlog7details14flag_formatterENS_14default_deleteIS4_EEEENS_9allocatorIS7_EEE6secondB7v160006Ev, symObjAddr: 0x416C, symBinAddr: 0x1000078EC, symSize: 0x24 }
  - { offsetInCU: 0x72DAF, offset: 0x72DAF, size: 0x8, addend: 0x0, symName: __ZNKSt3__122__compressed_pair_elemINS_9allocatorINS_10unique_ptrIN6spdlog7details14flag_formatterENS_14default_deleteIS5_EEEEEELi1ELb1EE5__getB7v160006Ev, symObjAddr: 0x4190, symBinAddr: 0x100007910, symSize: 0x14 }
  - { offsetInCU: 0x72DD5, offset: 0x72DD5, size: 0x8, addend: 0x0, symName: __ZNSt3__123__libcpp_numeric_limitsIlLb1EE3maxB7v160006Ev, symObjAddr: 0x41A4, symBinAddr: 0x100007924, symSize: 0x8 }
  - { offsetInCU: 0x72DE9, offset: 0x72DE9, size: 0x8, addend: 0x0, symName: __ZNSt12length_errorC1B7v160006EPKc, symObjAddr: 0x4210, symBinAddr: 0x100007990, symSize: 0x34 }
  - { offsetInCU: 0x72E21, offset: 0x72E21, size: 0x8, addend: 0x0, symName: __ZNSt12length_errorC2B7v160006EPKc, symObjAddr: 0x4244, symBinAddr: 0x1000079C4, symSize: 0x4C }
  - { offsetInCU: 0x72E59, offset: 0x72E59, size: 0x8, addend: 0x0, symName: __ZNKSt3__16vectorINS_10unique_ptrIN6spdlog7details14flag_formatterENS_14default_deleteIS4_EEEENS_9allocatorIS7_EEE9__end_capB7v160006Ev, symObjAddr: 0x4290, symBinAddr: 0x100007A10, symSize: 0x28 }
  - { offsetInCU: 0x72E7F, offset: 0x72E7F, size: 0x8, addend: 0x0, symName: __ZNKSt3__117__compressed_pairIPNS_10unique_ptrIN6spdlog7details14flag_formatterENS_14default_deleteIS4_EEEENS_9allocatorIS7_EEE5firstB7v160006Ev, symObjAddr: 0x42B8, symBinAddr: 0x100007A38, symSize: 0x24 }
  - { offsetInCU: 0x72EA5, offset: 0x72EA5, size: 0x8, addend: 0x0, symName: __ZNKSt3__122__compressed_pair_elemIPNS_10unique_ptrIN6spdlog7details14flag_formatterENS_14default_deleteIS4_EEEELi0ELb0EE5__getB7v160006Ev, symObjAddr: 0x42DC, symBinAddr: 0x100007A5C, symSize: 0x14 }
  - { offsetInCU: 0x72ECB, offset: 0x72ECB, size: 0x8, addend: 0x0, symName: __ZNSt3__114__split_bufferINS_10unique_ptrIN6spdlog7details14flag_formatterENS_14default_deleteIS4_EEEERNS_9allocatorIS7_EEEC2EmmSA_, symObjAddr: 0x4344, symBinAddr: 0x100007AC4, symSize: 0xD4 }
  - { offsetInCU: 0x72F3E, offset: 0x72F3E, size: 0x8, addend: 0x0, symName: __ZNSt3__117__compressed_pairIPNS_10unique_ptrIN6spdlog7details14flag_formatterENS_14default_deleteIS4_EEEERNS_9allocatorIS7_EEEC1B7v160006IDnSB_EEOT_OT0_, symObjAddr: 0x4418, symBinAddr: 0x100007B98, symSize: 0x3C }
  - { offsetInCU: 0x72F96, offset: 0x72F96, size: 0x8, addend: 0x0, symName: __ZNSt3__114__split_bufferINS_10unique_ptrIN6spdlog7details14flag_formatterENS_14default_deleteIS4_EEEERNS_9allocatorIS7_EEE7__allocB7v160006Ev, symObjAddr: 0x4494, symBinAddr: 0x100007C14, symSize: 0x28 }
  - { offsetInCU: 0x72FBC, offset: 0x72FBC, size: 0x8, addend: 0x0, symName: __ZNSt3__114__split_bufferINS_10unique_ptrIN6spdlog7details14flag_formatterENS_14default_deleteIS4_EEEERNS_9allocatorIS7_EEE9__end_capB7v160006Ev, symObjAddr: 0x44BC, symBinAddr: 0x100007C3C, symSize: 0x28 }
  - { offsetInCU: 0x72FE2, offset: 0x72FE2, size: 0x8, addend: 0x0, symName: __ZNSt3__117__compressed_pairIPNS_10unique_ptrIN6spdlog7details14flag_formatterENS_14default_deleteIS4_EEEERNS_9allocatorIS7_EEEC2B7v160006IDnSB_EEOT_OT0_, symObjAddr: 0x44E4, symBinAddr: 0x100007C64, symSize: 0x48 }
  - { offsetInCU: 0x7303A, offset: 0x7303A, size: 0x8, addend: 0x0, symName: __ZNSt3__122__compressed_pair_elemIRNS_9allocatorINS_10unique_ptrIN6spdlog7details14flag_formatterENS_14default_deleteIS5_EEEEEELi1ELb0EEC2B7v160006ISA_vEEOT_, symObjAddr: 0x452C, symBinAddr: 0x100007CAC, symSize: 0x20 }
  - { offsetInCU: 0x7307C, offset: 0x7307C, size: 0x8, addend: 0x0, symName: __ZNSt3__19allocatorINS_10unique_ptrIN6spdlog7details14flag_formatterENS_14default_deleteIS4_EEEEE8allocateB7v160006Em, symObjAddr: 0x454C, symBinAddr: 0x100007CCC, symSize: 0x58 }
  - { offsetInCU: 0x730B0, offset: 0x730B0, size: 0x8, addend: 0x0, symName: __ZNSt3__117__compressed_pairIPNS_10unique_ptrIN6spdlog7details14flag_formatterENS_14default_deleteIS4_EEEERNS_9allocatorIS7_EEE6secondB7v160006Ev, symObjAddr: 0x4624, symBinAddr: 0x100007DA4, symSize: 0x28 }
  - { offsetInCU: 0x730D6, offset: 0x730D6, size: 0x8, addend: 0x0, symName: __ZNSt3__122__compressed_pair_elemIRNS_9allocatorINS_10unique_ptrIN6spdlog7details14flag_formatterENS_14default_deleteIS5_EEEEEELi1ELb0EE5__getB7v160006Ev, symObjAddr: 0x464C, symBinAddr: 0x100007DCC, symSize: 0x18 }
  - { offsetInCU: 0x730FC, offset: 0x730FC, size: 0x8, addend: 0x0, symName: __ZNSt3__117__compressed_pairIPNS_10unique_ptrIN6spdlog7details14flag_formatterENS_14default_deleteIS4_EEEERNS_9allocatorIS7_EEE5firstB7v160006Ev, symObjAddr: 0x4664, symBinAddr: 0x100007DE4, symSize: 0x24 }
  - { offsetInCU: 0x73122, offset: 0x73122, size: 0x8, addend: 0x0, symName: __ZNKSt3__16vectorINS_10unique_ptrIN6spdlog7details14flag_formatterENS_14default_deleteIS4_EEEENS_9allocatorIS7_EEE17__annotate_deleteB7v160006Ev, symObjAddr: 0x4688, symBinAddr: 0x100007E08, symSize: 0xB8 }
  - { offsetInCU: 0x73148, offset: 0x73148, size: 0x8, addend: 0x0, symName: __ZNSt3__116reverse_iteratorIPNS_10unique_ptrIN6spdlog7details14flag_formatterENS_14default_deleteIS4_EEEEEC1B7v160006ES8_, symObjAddr: 0x486C, symBinAddr: 0x100007FEC, symSize: 0x34 }
  - { offsetInCU: 0x73180, offset: 0x73180, size: 0x8, addend: 0x0, symName: __ZNKSt3__116reverse_iteratorIPNS_10unique_ptrIN6spdlog7details14flag_formatterENS_14default_deleteIS4_EEEEE4baseB7v160006Ev, symObjAddr: 0x48A0, symBinAddr: 0x100008020, symSize: 0x18 }
  - { offsetInCU: 0x731A6, offset: 0x731A6, size: 0x8, addend: 0x0, symName: __ZNKSt3__16vectorINS_10unique_ptrIN6spdlog7details14flag_formatterENS_14default_deleteIS4_EEEENS_9allocatorIS7_EEE14__annotate_newB7v160006Em, symObjAddr: 0x48F4, symBinAddr: 0x100008074, symSize: 0xAC }
  - { offsetInCU: 0x731DB, offset: 0x731DB, size: 0x8, addend: 0x0, symName: __ZNKSt3__16vectorINS_10unique_ptrIN6spdlog7details14flag_formatterENS_14default_deleteIS4_EEEENS_9allocatorIS7_EEE31__annotate_contiguous_containerB7v160006EPKvSC_SC_SC_, symObjAddr: 0x49B0, symBinAddr: 0x100008130, symSize: 0x20 }
  - { offsetInCU: 0x73231, offset: 0x73231, size: 0x8, addend: 0x0, symName: __ZNKSt3__16vectorINS_10unique_ptrIN6spdlog7details14flag_formatterENS_14default_deleteIS4_EEEENS_9allocatorIS7_EEE4dataB7v160006Ev, symObjAddr: 0x49D0, symBinAddr: 0x100008150, symSize: 0x28 }
  - { offsetInCU: 0x73257, offset: 0x73257, size: 0x8, addend: 0x0, symName: __ZNSt3__129_AllocatorDestroyRangeReverseINS_9allocatorINS_10unique_ptrIN6spdlog7details14flag_formatterENS_14default_deleteIS5_EEEEEENS_16reverse_iteratorIPS8_EEEC1B7v160006ERS9_RSC_SF_, symObjAddr: 0x4A44, symBinAddr: 0x1000081C4, symSize: 0x44 }
  - { offsetInCU: 0x732AE, offset: 0x732AE, size: 0x8, addend: 0x0, symName: __ZNKSt3__116reverse_iteratorIPNS_10unique_ptrIN6spdlog7details14flag_formatterENS_14default_deleteIS4_EEEEEdeB7v160006Ev, symObjAddr: 0x4AF4, symBinAddr: 0x100008274, symSize: 0x28 }
  - { offsetInCU: 0x732E2, offset: 0x732E2, size: 0x8, addend: 0x0, symName: __ZNSt3__116reverse_iteratorIPNS_10unique_ptrIN6spdlog7details14flag_formatterENS_14default_deleteIS4_EEEEEppB7v160006Ev, symObjAddr: 0x4B1C, symBinAddr: 0x10000829C, symSize: 0x20 }
  - { offsetInCU: 0x73308, offset: 0x73308, size: 0x8, addend: 0x0, symName: __ZNSt3__128__exception_guard_exceptionsINS_29_AllocatorDestroyRangeReverseINS_9allocatorINS_10unique_ptrIN6spdlog7details14flag_formatterENS_14default_deleteIS6_EEEEEENS_16reverse_iteratorIPS9_EEEEE10__completeB7v160006Ev, symObjAddr: 0x4B3C, symBinAddr: 0x1000082BC, symSize: 0x1C }
  - { offsetInCU: 0x7332E, offset: 0x7332E, size: 0x8, addend: 0x0, symName: __ZNSt3__128__exception_guard_exceptionsINS_29_AllocatorDestroyRangeReverseINS_9allocatorINS_10unique_ptrIN6spdlog7details14flag_formatterENS_14default_deleteIS6_EEEEEENS_16reverse_iteratorIPS9_EEEEED1B7v160006Ev, symObjAddr: 0x4B58, symBinAddr: 0x1000082D8, symSize: 0x2C }
  - { offsetInCU: 0x73358, offset: 0x73358, size: 0x8, addend: 0x0, symName: __ZNSt3__128__exception_guard_exceptionsINS_29_AllocatorDestroyRangeReverseINS_9allocatorINS_10unique_ptrIN6spdlog7details14flag_formatterENS_14default_deleteIS6_EEEEEENS_16reverse_iteratorIPS9_EEEEEC1B7v160006ESE_, symObjAddr: 0x4B84, symBinAddr: 0x100008304, symSize: 0x34 }
  - { offsetInCU: 0x73391, offset: 0x73391, size: 0x8, addend: 0x0, symName: __ZNSt3__128__exception_guard_exceptionsINS_29_AllocatorDestroyRangeReverseINS_9allocatorINS_10unique_ptrIN6spdlog7details14flag_formatterENS_14default_deleteIS6_EEEEEENS_16reverse_iteratorIPS9_EEEEEC2B7v160006ESE_, symObjAddr: 0x4BB8, symBinAddr: 0x100008338, symSize: 0x30 }
  - { offsetInCU: 0x733CA, offset: 0x733CA, size: 0x8, addend: 0x0, symName: __ZNSt3__129_AllocatorDestroyRangeReverseINS_9allocatorINS_10unique_ptrIN6spdlog7details14flag_formatterENS_14default_deleteIS5_EEEEEENS_16reverse_iteratorIPS8_EEEC2B7v160006ERS9_RSC_SF_, symObjAddr: 0x4BE8, symBinAddr: 0x100008368, symSize: 0x38 }
  - { offsetInCU: 0x73427, offset: 0x73427, size: 0x8, addend: 0x0, symName: __ZNSt3__119__to_address_helperINS_16reverse_iteratorIPNS_10unique_ptrIN6spdlog7details14flag_formatterENS_14default_deleteIS5_EEEEEEvE6__callB7v160006ERKSA_, symObjAddr: 0x4C20, symBinAddr: 0x1000083A0, symSize: 0x38 }
  - { offsetInCU: 0x7344A, offset: 0x7344A, size: 0x8, addend: 0x0, symName: __ZNKSt3__116reverse_iteratorIPNS_10unique_ptrIN6spdlog7details14flag_formatterENS_14default_deleteIS4_EEEEEptB7v160006Ev, symObjAddr: 0x4C58, symBinAddr: 0x1000083D8, symSize: 0x24 }
  - { offsetInCU: 0x73470, offset: 0x73470, size: 0x8, addend: 0x0, symName: __ZNSt3__128__exception_guard_exceptionsINS_29_AllocatorDestroyRangeReverseINS_9allocatorINS_10unique_ptrIN6spdlog7details14flag_formatterENS_14default_deleteIS6_EEEEEENS_16reverse_iteratorIPS9_EEEEED2B7v160006Ev, symObjAddr: 0x4C7C, symBinAddr: 0x1000083FC, symSize: 0x50 }
  - { offsetInCU: 0x7349A, offset: 0x7349A, size: 0x8, addend: 0x0, symName: __ZNKSt3__129_AllocatorDestroyRangeReverseINS_9allocatorINS_10unique_ptrIN6spdlog7details14flag_formatterENS_14default_deleteIS5_EEEEEENS_16reverse_iteratorIPS8_EEEclB7v160006Ev, symObjAddr: 0x4CCC, symBinAddr: 0x10000844C, symSize: 0xB4 }
  - { offsetInCU: 0x734C1, offset: 0x734C1, size: 0x8, addend: 0x0, symName: __ZNSt3__116reverse_iteratorINS0_IPNS_10unique_ptrIN6spdlog7details14flag_formatterENS_14default_deleteIS4_EEEEEEEC1B7v160006ES9_, symObjAddr: 0x4DF0, symBinAddr: 0x100008570, symSize: 0x3C }
  - { offsetInCU: 0x734F9, offset: 0x734F9, size: 0x8, addend: 0x0, symName: __ZNSt3__116allocator_traitsINS_9allocatorINS_10unique_ptrIN6spdlog7details14flag_formatterENS_14default_deleteIS5_EEEEEEE7destroyB7v160006IS8_vEEvRS9_PT_, symObjAddr: 0x4E8C, symBinAddr: 0x10000860C, symSize: 0x2C }
  - { offsetInCU: 0x73536, offset: 0x73536, size: 0x8, addend: 0x0, symName: __ZNSt3__116reverse_iteratorINS0_IPNS_10unique_ptrIN6spdlog7details14flag_formatterENS_14default_deleteIS4_EEEEEEEppB7v160006Ev, symObjAddr: 0x4EDC, symBinAddr: 0x10000865C, symSize: 0x30 }
  - { offsetInCU: 0x7355C, offset: 0x7355C, size: 0x8, addend: 0x0, symName: __ZNKSt3__116reverse_iteratorINS0_IPNS_10unique_ptrIN6spdlog7details14flag_formatterENS_14default_deleteIS4_EEEEEEE4baseB7v160006Ev, symObjAddr: 0x4F0C, symBinAddr: 0x10000868C, symSize: 0x24 }
  - { offsetInCU: 0x73582, offset: 0x73582, size: 0x8, addend: 0x0, symName: __ZNSt3__19allocatorINS_10unique_ptrIN6spdlog7details14flag_formatterENS_14default_deleteIS4_EEEEE7destroyB7v160006EPS7_, symObjAddr: 0x4F30, symBinAddr: 0x1000086B0, symSize: 0x28 }
  - { offsetInCU: 0x735BC, offset: 0x735BC, size: 0x8, addend: 0x0, symName: __ZNSt3__119__to_address_helperINS_16reverse_iteratorINS1_IPNS_10unique_ptrIN6spdlog7details14flag_formatterENS_14default_deleteIS5_EEEEEEEEvE6__callB7v160006ERKSB_, symObjAddr: 0x4F58, symBinAddr: 0x1000086D8, symSize: 0x38 }
  - { offsetInCU: 0x735DF, offset: 0x735DF, size: 0x8, addend: 0x0, symName: __ZNKSt3__116reverse_iteratorINS0_IPNS_10unique_ptrIN6spdlog7details14flag_formatterENS_14default_deleteIS4_EEEEEEEptB7v160006Ev, symObjAddr: 0x4F90, symBinAddr: 0x100008710, symSize: 0x24 }
  - { offsetInCU: 0x73605, offset: 0x73605, size: 0x8, addend: 0x0, symName: __ZNKSt3__116reverse_iteratorINS0_IPNS_10unique_ptrIN6spdlog7details14flag_formatterENS_14default_deleteIS4_EEEEEEEdeB7v160006Ev, symObjAddr: 0x4FB4, symBinAddr: 0x100008734, symSize: 0x34 }
  - { offsetInCU: 0x73639, offset: 0x73639, size: 0x8, addend: 0x0, symName: __ZNSt3__116reverse_iteratorIPNS_10unique_ptrIN6spdlog7details14flag_formatterENS_14default_deleteIS4_EEEEEmmB7v160006Ev, symObjAddr: 0x4FE8, symBinAddr: 0x100008768, symSize: 0x20 }
  - { offsetInCU: 0x7365F, offset: 0x7365F, size: 0x8, addend: 0x0, symName: __ZNSt3__116reverse_iteratorINS0_IPNS_10unique_ptrIN6spdlog7details14flag_formatterENS_14default_deleteIS4_EEEEEEEC2B7v160006ES9_, symObjAddr: 0x5008, symBinAddr: 0x100008788, symSize: 0x2C }
  - { offsetInCU: 0x73697, offset: 0x73697, size: 0x8, addend: 0x0, symName: __ZNSt3__116reverse_iteratorIPNS_10unique_ptrIN6spdlog7details14flag_formatterENS_14default_deleteIS4_EEEEEC2B7v160006ES8_, symObjAddr: 0x5034, symBinAddr: 0x1000087B4, symSize: 0x28 }
  - { offsetInCU: 0x736CF, offset: 0x736CF, size: 0x8, addend: 0x0, symName: __ZNSt3__114__split_bufferINS_10unique_ptrIN6spdlog7details14flag_formatterENS_14default_deleteIS4_EEEERNS_9allocatorIS7_EEED2Ev, symObjAddr: 0x505C, symBinAddr: 0x1000087DC, symSize: 0x8C }
  - { offsetInCU: 0x736FB, offset: 0x736FB, size: 0x8, addend: 0x0, symName: __ZNSt3__114__split_bufferINS_10unique_ptrIN6spdlog7details14flag_formatterENS_14default_deleteIS4_EEEERNS_9allocatorIS7_EEE5clearB7v160006Ev, symObjAddr: 0x50E8, symBinAddr: 0x100008868, symSize: 0x28 }
  - { offsetInCU: 0x73721, offset: 0x73721, size: 0x8, addend: 0x0, symName: __ZNSt3__116allocator_traitsINS_9allocatorINS_10unique_ptrIN6spdlog7details14flag_formatterENS_14default_deleteIS5_EEEEEEE10deallocateB7v160006ERS9_PS8_m, symObjAddr: 0x5110, symBinAddr: 0x100008890, symSize: 0x34 }
  - { offsetInCU: 0x73763, offset: 0x73763, size: 0x8, addend: 0x0, symName: __ZNKSt3__114__split_bufferINS_10unique_ptrIN6spdlog7details14flag_formatterENS_14default_deleteIS4_EEEERNS_9allocatorIS7_EEE8capacityB7v160006Ev, symObjAddr: 0x5144, symBinAddr: 0x1000088C4, symSize: 0x40 }
  - { offsetInCU: 0x73789, offset: 0x73789, size: 0x8, addend: 0x0, symName: __ZNSt3__114__split_bufferINS_10unique_ptrIN6spdlog7details14flag_formatterENS_14default_deleteIS4_EEEERNS_9allocatorIS7_EEE17__destruct_at_endB7v160006EPS7_, symObjAddr: 0x5184, symBinAddr: 0x100008904, symSize: 0x2C }
  - { offsetInCU: 0x737BD, offset: 0x737BD, size: 0x8, addend: 0x0, symName: __ZNSt3__114__split_bufferINS_10unique_ptrIN6spdlog7details14flag_formatterENS_14default_deleteIS4_EEEERNS_9allocatorIS7_EEE17__destruct_at_endB7v160006EPS7_NS_17integral_constantIbLb0EEE, symObjAddr: 0x51B0, symBinAddr: 0x100008930, symSize: 0x80 }
  - { offsetInCU: 0x737FE, offset: 0x737FE, size: 0x8, addend: 0x0, symName: __ZNSt3__19allocatorINS_10unique_ptrIN6spdlog7details14flag_formatterENS_14default_deleteIS4_EEEEE10deallocateB7v160006EPS7_m, symObjAddr: 0x5230, symBinAddr: 0x1000089B0, symSize: 0x40 }
  - { offsetInCU: 0x73840, offset: 0x73840, size: 0x8, addend: 0x0, symName: __ZNKSt3__114__split_bufferINS_10unique_ptrIN6spdlog7details14flag_formatterENS_14default_deleteIS4_EEEERNS_9allocatorIS7_EEE9__end_capB7v160006Ev, symObjAddr: 0x52EC, symBinAddr: 0x100008A6C, symSize: 0x28 }
  - { offsetInCU: 0x73866, offset: 0x73866, size: 0x8, addend: 0x0, symName: __ZNKSt3__117__compressed_pairIPNS_10unique_ptrIN6spdlog7details14flag_formatterENS_14default_deleteIS4_EEEERNS_9allocatorIS7_EEE5firstB7v160006Ev, symObjAddr: 0x5314, symBinAddr: 0x100008A94, symSize: 0x24 }
  - { offsetInCU: 0x7388C, offset: 0x7388C, size: 0x8, addend: 0x0, symName: __ZN6spdlog7details14full_formatterC1ENS0_12padding_infoE, symObjAddr: 0x5338, symBinAddr: 0x100008AB8, symSize: 0x3C }
  - { offsetInCU: 0x738C5, offset: 0x738C5, size: 0x8, addend: 0x0, symName: __ZNSt3__110unique_ptrIN6spdlog7details14full_formatterENS_14default_deleteIS3_EEEC1B7v160006ILb1EvEEPS3_, symObjAddr: 0x5374, symBinAddr: 0x100008AF4, symSize: 0x34 }
  - { offsetInCU: 0x73908, offset: 0x73908, size: 0x8, addend: 0x0, symName: __ZN6spdlog7details14full_formatterC2ENS0_12padding_infoE, symObjAddr: 0x53A8, symBinAddr: 0x100008B28, symSize: 0xC4 }
  - { offsetInCU: 0x73941, offset: 0x73941, size: 0x8, addend: 0x0, symName: __ZN6spdlog7details14flag_formatterC2ENS0_12padding_infoE, symObjAddr: 0x546C, symBinAddr: 0x100008BEC, symSize: 0x34 }
  - { offsetInCU: 0x73979, offset: 0x73979, size: 0x8, addend: 0x0, symName: __ZNSt3__19allocatorIcEC1B7v160006Ev, symObjAddr: 0x54A0, symBinAddr: 0x100008C20, symSize: 0x2C }
  - { offsetInCU: 0x739A3, offset: 0x739A3, size: 0x8, addend: 0x0, symName: __ZN3fmt2v919basic_memory_bufferIcLm250ENSt3__19allocatorIcEEEC1ERKS4_, symObjAddr: 0x54CC, symBinAddr: 0x100008C4C, symSize: 0x34 }
  - { offsetInCU: 0x739DC, offset: 0x739DC, size: 0x8, addend: 0x0, symName: __ZN6spdlog7details14flag_formatterD2Ev, symObjAddr: 0x5500, symBinAddr: 0x100008C80, symSize: 0x14 }
  - { offsetInCU: 0x73A06, offset: 0x73A06, size: 0x8, addend: 0x0, symName: __ZN6spdlog7details14full_formatterD1Ev, symObjAddr: 0x5514, symBinAddr: 0x100008C94, symSize: 0x2C }
  - { offsetInCU: 0x73A33, offset: 0x73A33, size: 0x8, addend: 0x0, symName: __ZN6spdlog7details14full_formatterD0Ev, symObjAddr: 0x5540, symBinAddr: 0x100008CC0, symSize: 0x30 }
  - { offsetInCU: 0x73A60, offset: 0x73A60, size: 0x8, addend: 0x0, symName: __ZN6spdlog7details14full_formatter6formatERKNS0_7log_msgERK2tmRN3fmt2v919basic_memory_bufferIcLm250ENSt3__19allocatorIcEEEE, symObjAddr: 0x5570, symBinAddr: 0x100008CF0, symSize: 0x448 }
  - { offsetInCU: 0x73B61, offset: 0x73B61, size: 0x8, addend: 0x0, symName: __ZN6spdlog7details14flag_formatterD1Ev, symObjAddr: 0x59B8, symBinAddr: 0x100009138, symSize: 0x14 }
  - { offsetInCU: 0x73B8B, offset: 0x73B8B, size: 0x8, addend: 0x0, symName: __ZN6spdlog7details14flag_formatterD0Ev, symObjAddr: 0x59CC, symBinAddr: 0x10000914C, symSize: 0xC }
  - { offsetInCU: 0x73BB5, offset: 0x73BB5, size: 0x8, addend: 0x0, symName: __ZNSt3__19allocatorIcEC2B7v160006Ev, symObjAddr: 0x59D8, symBinAddr: 0x100009158, symSize: 0x2C }
  - { offsetInCU: 0x73BDF, offset: 0x73BDF, size: 0x8, addend: 0x0, symName: __ZNSt3__116__non_trivial_ifILb1ENS_9allocatorIcEEEC2B7v160006Ev, symObjAddr: 0x5A04, symBinAddr: 0x100009184, symSize: 0x14 }
  - { offsetInCU: 0x73C09, offset: 0x73C09, size: 0x8, addend: 0x0, symName: __ZN3fmt2v919basic_memory_bufferIcLm250ENSt3__19allocatorIcEEEC2ERKS4_, symObjAddr: 0x5A18, symBinAddr: 0x100009198, symSize: 0x68 }
  - { offsetInCU: 0x73C42, offset: 0x73C42, size: 0x8, addend: 0x0, symName: __ZN3fmt2v96detail6bufferIcEC2EPcmm, symObjAddr: 0x5A80, symBinAddr: 0x100009200, symSize: 0x48 }
  - { offsetInCU: 0x73C99, offset: 0x73C99, size: 0x8, addend: 0x0, symName: __ZN3fmt2v96detail6bufferIcE3setEPcm, symObjAddr: 0x5AC8, symBinAddr: 0x100009248, symSize: 0x2C }
  - { offsetInCU: 0x73CDD, offset: 0x73CDD, size: 0x8, addend: 0x0, symName: __ZN3fmt2v919basic_memory_bufferIcLm250ENSt3__19allocatorIcEEE4growEm, symObjAddr: 0x5AF4, symBinAddr: 0x100009274, symSize: 0x19C }
  - { offsetInCU: 0x73D6A, offset: 0x73D6A, size: 0x8, addend: 0x0, symName: __ZNSt3__116allocator_traitsINS_9allocatorIcEEE8max_sizeB7v160006IS2_vEEmRKS2_, symObjAddr: 0x5CB8, symBinAddr: 0x100009438, symSize: 0x24 }
  - { offsetInCU: 0x73D98, offset: 0x73D98, size: 0x8, addend: 0x0, symName: __ZNK3fmt2v96detail6bufferIcE8capacityEv, symObjAddr: 0x5CDC, symBinAddr: 0x10000945C, symSize: 0x18 }
  - { offsetInCU: 0x73DBE, offset: 0x73DBE, size: 0x8, addend: 0x0, symName: __ZN3fmt2v96detail6bufferIcE4dataEv, symObjAddr: 0x5CF4, symBinAddr: 0x100009474, symSize: 0x18 }
  - { offsetInCU: 0x73DE4, offset: 0x73DE4, size: 0x8, addend: 0x0, symName: __ZNSt3__116allocator_traitsINS_9allocatorIcEEE8allocateB7v160006ERS2_m, symObjAddr: 0x5D0C, symBinAddr: 0x10000948C, symSize: 0x2C }
  - { offsetInCU: 0x73E17, offset: 0x73E17, size: 0x8, addend: 0x0, symName: __ZNK3fmt2v96detail6bufferIcE4sizeEv, symObjAddr: 0x5D78, symBinAddr: 0x1000094F8, symSize: 0x18 }
  - { offsetInCU: 0x73E3D, offset: 0x73E3D, size: 0x8, addend: 0x0, symName: __ZNSt3__19allocatorIcE10deallocateB7v160006EPcm, symObjAddr: 0x5DA8, symBinAddr: 0x100009528, symSize: 0x40 }
  - { offsetInCU: 0x73E7F, offset: 0x73E7F, size: 0x8, addend: 0x0, symName: __ZNKSt3__19allocatorIcE8max_sizeB7v160006Ev, symObjAddr: 0x5DF8, symBinAddr: 0x100009578, symSize: 0x14 }
  - { offsetInCU: 0x73EA5, offset: 0x73EA5, size: 0x8, addend: 0x0, symName: __ZNSt3__19allocatorIcE8allocateB7v160006Em, symObjAddr: 0x5E0C, symBinAddr: 0x10000958C, symSize: 0x58 }
  - { offsetInCU: 0x73EFC, offset: 0x73EFC, size: 0x8, addend: 0x0, symName: __ZNSt3__14pairIPcS1_EC1B7v160006IS1_S1_LPv0EEEOT_OT0_, symObjAddr: 0x5FA4, symBinAddr: 0x100009724, symSize: 0x3C }
  - { offsetInCU: 0x73F5A, offset: 0x73F5A, size: 0x8, addend: 0x0, symName: __ZNSt3__14pairIPcS1_EC2B7v160006IS1_S1_LPv0EEEOT_OT0_, symObjAddr: 0x5FF0, symBinAddr: 0x100009770, symSize: 0x34 }
  - { offsetInCU: 0x73FB8, offset: 0x73FB8, size: 0x8, addend: 0x0, symName: __ZN6spdlog7details14full_formatterD2Ev, symObjAddr: 0x6024, symBinAddr: 0x1000097A4, symSize: 0x38 }
  - { offsetInCU: 0x73FE5, offset: 0x73FE5, size: 0x8, addend: 0x0, symName: __ZN3fmt2v919basic_memory_bufferIcLm250ENSt3__19allocatorIcEEED1Ev, symObjAddr: 0x605C, symBinAddr: 0x1000097DC, symSize: 0x2C }
  - { offsetInCU: 0x7400F, offset: 0x7400F, size: 0x8, addend: 0x0, symName: __ZN3fmt2v919basic_memory_bufferIcLm250ENSt3__19allocatorIcEEED2Ev, symObjAddr: 0x6088, symBinAddr: 0x100009808, symSize: 0x34 }
  - { offsetInCU: 0x74039, offset: 0x74039, size: 0x8, addend: 0x0, symName: __ZN3fmt2v919basic_memory_bufferIcLm250ENSt3__19allocatorIcEEE10deallocateEv, symObjAddr: 0x60BC, symBinAddr: 0x10000983C, symSize: 0x78 }
  - { offsetInCU: 0x7406E, offset: 0x7406E, size: 0x8, addend: 0x0, symName: __ZNKSt3__16chrono10time_pointINS0_12system_clockENS0_8durationIxNS_5ratioILl1ELl1000000EEEEEE16time_since_epochB7v160006Ev, symObjAddr: 0x6134, symBinAddr: 0x1000098B4, symSize: 0x20 }
  - { offsetInCU: 0x74094, offset: 0x74094, size: 0x8, addend: 0x0, symName: __ZN3fmt2v96detail6bufferIcE5clearEv, symObjAddr: 0x61B8, symBinAddr: 0x100009938, symSize: 0x18 }
  - { offsetInCU: 0x740BA, offset: 0x740BA, size: 0x8, addend: 0x0, symName: __ZN3fmt2v96detail6bufferIcE9push_backERKc, symObjAddr: 0x61D0, symBinAddr: 0x100009950, symSize: 0x58 }
  - { offsetInCU: 0x74255, offset: 0x74255, size: 0x8, addend: 0x0, symName: __ZN3fmt2v96detail6bufferIcE6appendIcEEvPKT_S7_, symObjAddr: 0x64AC, symBinAddr: 0x100009C2C, symSize: 0x10C }
  - { offsetInCU: 0x742D1, offset: 0x742D1, size: 0x8, addend: 0x0, symName: __ZN3fmt2v96detail6bufferIcE5beginEv, symObjAddr: 0x65B8, symBinAddr: 0x100009D38, symSize: 0x18 }
  - { offsetInCU: 0x742F7, offset: 0x742F7, size: 0x8, addend: 0x0, symName: __ZN3fmt2v96detail6bufferIcE3endEv, symObjAddr: 0x65D0, symBinAddr: 0x100009D50, symSize: 0x20 }
  - { offsetInCU: 0x7431D, offset: 0x7431D, size: 0x8, addend: 0x0, symName: __ZNKSt3__16chrono8durationIxNS_5ratioILl1ELl1000EEEE5countB7v160006Ev, symObjAddr: 0x6748, symBinAddr: 0x100009EC8, symSize: 0x18 }
  - { offsetInCU: 0x74343, offset: 0x74343, size: 0x8, addend: 0x0, symName: __ZNK3fmt2v917basic_string_viewIcE4sizeEv, symObjAddr: 0x6760, symBinAddr: 0x100009EE0, symSize: 0x18 }
  - { offsetInCU: 0x74369, offset: 0x74369, size: 0x8, addend: 0x0, symName: __ZNK6spdlog10source_loc5emptyEv, symObjAddr: 0x680C, symBinAddr: 0x100009F8C, symSize: 0x24 }
  - { offsetInCU: 0x7438F, offset: 0x7438F, size: 0x8, addend: 0x0, symName: __ZN6spdlog7details24short_filename_formatterINS0_18null_scoped_padderEE8basenameEPKc, symObjAddr: 0x6830, symBinAddr: 0x100009FB0, symSize: 0x64 }
  - { offsetInCU: 0x743D0, offset: 0x743D0, size: 0x8, addend: 0x0, symName: __ZNKSt3__16chrono8durationIxNS_5ratioILl1ELl1000000EEEE5countB7v160006Ev, symObjAddr: 0x68E0, symBinAddr: 0x10000A060, symSize: 0x18 }
  - { offsetInCU: 0x74401, offset: 0x74401, size: 0x8, addend: 0x0, symName: __ZNSt3__16chrono8durationIxNS_5ratioILl1ELl1EEEEC1B7v160006IxEERKT_PNS_9enable_ifIXaasr14is_convertibleIS8_xEE5valueooL_ZNS_17integral_constantIbLb0EE5valueEEntsr23treat_as_floating_pointIS6_EE5valueEvE4typeE, symObjAddr: 0x68F8, symBinAddr: 0x10000A078, symSize: 0x3C }
  - { offsetInCU: 0x7444E, offset: 0x7444E, size: 0x8, addend: 0x0, symName: __ZNSt3__16chrono8durationIxNS_5ratioILl1ELl1EEEEC2B7v160006IxEERKT_PNS_9enable_ifIXaasr14is_convertibleIS8_xEE5valueooL_ZNS_17integral_constantIbLb0EE5valueEEntsr23treat_as_floating_pointIS6_EE5valueEvE4typeE, symObjAddr: 0x6934, symBinAddr: 0x10000A0B4, symSize: 0x28 }
  - { offsetInCU: 0x744A6, offset: 0x744A6, size: 0x8, addend: 0x0, symName: __ZNKSt3__16chrono13__duration_eqINS0_8durationIxNS_5ratioILl1ELl1EEEEES5_EclB7v160006ERKS5_S8_, symObjAddr: 0x6990, symBinAddr: 0x10000A110, symSize: 0x4C }
  - { offsetInCU: 0x744EA, offset: 0x744EA, size: 0x8, addend: 0x0, symName: __ZNKSt3__16chrono8durationIxNS_5ratioILl1ELl1EEEE5countB7v160006Ev, symObjAddr: 0x69DC, symBinAddr: 0x10000A15C, symSize: 0x18 }
  - { offsetInCU: 0x74510, offset: 0x74510, size: 0x8, addend: 0x0, symName: __ZN3fmt2v96detail6bufferIcE11try_reserveEm, symObjAddr: 0x69F4, symBinAddr: 0x10000A174, symSize: 0x58 }
  - { offsetInCU: 0x74545, offset: 0x74545, size: 0x8, addend: 0x0, symName: __ZN3fmt2v910format_intC1Ei, symObjAddr: 0x6A4C, symBinAddr: 0x10000A1CC, symSize: 0x34 }
  - { offsetInCU: 0x7457E, offset: 0x7457E, size: 0x8, addend: 0x0, symName: __ZNK3fmt2v910format_int4dataEv, symObjAddr: 0x6A80, symBinAddr: 0x10000A200, symSize: 0x18 }
  - { offsetInCU: 0x745A4, offset: 0x745A4, size: 0x8, addend: 0x0, symName: __ZNK3fmt2v910format_int4sizeEv, symObjAddr: 0x6A98, symBinAddr: 0x10000A218, symSize: 0x34 }
  - { offsetInCU: 0x745CA, offset: 0x745CA, size: 0x8, addend: 0x0, symName: __ZN3fmt2v910format_intC2Ei, symObjAddr: 0x6ACC, symBinAddr: 0x10000A24C, symSize: 0x3C }
  - { offsetInCU: 0x74603, offset: 0x74603, size: 0x8, addend: 0x0, symName: __ZN3fmt2v910format_int13format_signedIiEEPcT_, symObjAddr: 0x6B08, symBinAddr: 0x10000A288, symSize: 0xA4 }
  - { offsetInCU: 0x7466E, offset: 0x7466E, size: 0x8, addend: 0x0, symName: __ZN3fmt2v910format_int15format_unsignedIjEEPcT_, symObjAddr: 0x6BAC, symBinAddr: 0x10000A32C, symSize: 0x44 }
  - { offsetInCU: 0x746C6, offset: 0x746C6, size: 0x8, addend: 0x0, symName: __ZZN6spdlog7details10fmt_helper4pad2EiRN3fmt2v919basic_memory_bufferIcLm250ENSt3__19allocatorIcEEEEENKUlvE_clEv, symObjAddr: 0x6EBC, symBinAddr: 0x10000A63C, symSize: 0x10 }
  - { offsetInCU: 0x74882, offset: 0x74882, size: 0x8, addend: 0x0, symName: __ZN3fmt2v96detail10locale_refC1Ev, symObjAddr: 0x76FC, symBinAddr: 0x10000AE7C, symSize: 0x2C }
  - { offsetInCU: 0x748AC, offset: 0x748AC, size: 0x8, addend: 0x0, symName: __ZN3fmt2v96detail15iterator_bufferINSt3__120back_insert_iteratorINS0_19basic_memory_bufferIcLm250ENS3_9allocatorIcEEEEEEcNS1_13buffer_traitsEEC1ES9_m, symObjAddr: 0x7754, symBinAddr: 0x10000AED4, symSize: 0x4C }
  - { offsetInCU: 0x748F1, offset: 0x748F1, size: 0x8, addend: 0x0, symName: __ZN3fmt2v96detail15iterator_bufferINSt3__120back_insert_iteratorINS0_19basic_memory_bufferIcLm250ENS3_9allocatorIcEEEEEEcNS1_13buffer_traitsEEC1ERS8_, symObjAddr: 0x77D4, symBinAddr: 0x10000AF54, symSize: 0x34 }
  - { offsetInCU: 0x7492A, offset: 0x7492A, size: 0x8, addend: 0x0, symName: __ZZN3fmt2v96detail13get_containerINS0_19basic_memory_bufferIcLm250ENSt3__19allocatorIcEEEEEERT_NS4_20back_insert_iteratorIS8_EEEN8accessorC1ENSA_IS7_EE, symObjAddr: 0x7808, symBinAddr: 0x10000AF88, symSize: 0x34 }
  - { offsetInCU: 0x74963, offset: 0x74963, size: 0x8, addend: 0x0, symName: __ZZN3fmt2v96detail13get_containerINS0_19basic_memory_bufferIcLm250ENSt3__19allocatorIcEEEEEERT_NS4_20back_insert_iteratorIS8_EEEN8accessorC2ENSA_IS7_EE, symObjAddr: 0x783C, symBinAddr: 0x10000AFBC, symSize: 0x20 }
  - { offsetInCU: 0x7499C, offset: 0x7499C, size: 0x8, addend: 0x0, symName: __ZN3fmt2v96detail15iterator_bufferINSt3__120back_insert_iteratorINS0_19basic_memory_bufferIcLm250ENS3_9allocatorIcEEEEEEcNS1_13buffer_traitsEEC2ERS8_, symObjAddr: 0x785C, symBinAddr: 0x10000AFDC, symSize: 0x60 }
  - { offsetInCU: 0x749D5, offset: 0x749D5, size: 0x8, addend: 0x0, symName: __ZN3fmt2v96detail6bufferIcEC2Em, symObjAddr: 0x78BC, symBinAddr: 0x10000B03C, symSize: 0x38 }
  - { offsetInCU: 0x74A0E, offset: 0x74A0E, size: 0x8, addend: 0x0, symName: __ZN3fmt2v96detail15iterator_bufferINSt3__120back_insert_iteratorINS0_19basic_memory_bufferIcLm250ENS3_9allocatorIcEEEEEEcNS1_13buffer_traitsEE4growEm, symObjAddr: 0x78F4, symBinAddr: 0x10000B074, symSize: 0x54 }
  - { offsetInCU: 0x74A43, offset: 0x74A43, size: 0x8, addend: 0x0, symName: __ZN3fmt2v919basic_memory_bufferIcLm250ENSt3__19allocatorIcEEE6resizeEm, symObjAddr: 0x7948, symBinAddr: 0x10000B0C8, symSize: 0x2C }
  - { offsetInCU: 0x74A78, offset: 0x74A78, size: 0x8, addend: 0x0, symName: __ZN3fmt2v96detail6bufferIcEixIiEERcT_, symObjAddr: 0x7974, symBinAddr: 0x10000B0F4, symSize: 0x24 }
  - { offsetInCU: 0x74AB6, offset: 0x74AB6, size: 0x8, addend: 0x0, symName: __ZN3fmt2v96detail6bufferIcE10try_resizeEm, symObjAddr: 0x7998, symBinAddr: 0x10000B118, symSize: 0x74 }
  - { offsetInCU: 0x74AEB, offset: 0x74AEB, size: 0x8, addend: 0x0, symName: __ZN3fmt2v98appenderCI1NSt3__120back_insert_iteratorINS0_6detail6bufferIcEEEEERS6_, symObjAddr: 0x7A0C, symBinAddr: 0x10000B18C, symSize: 0x34 }
  - { offsetInCU: 0x74B21, offset: 0x74B21, size: 0x8, addend: 0x0, symName: __ZNK3fmt2v917basic_string_viewIcE4dataEv, symObjAddr: 0x7A7C, symBinAddr: 0x10000B1FC, symSize: 0x18 }
  - { offsetInCU: 0x74B47, offset: 0x74B47, size: 0x8, addend: 0x0, symName: __ZNK3fmt2v917basic_format_argsINS0_20basic_format_contextINS0_8appenderEcEEE3getEi, symObjAddr: 0x7A94, symBinAddr: 0x10000B214, symSize: 0xF8 }
  - { offsetInCU: 0x74B8D, offset: 0x74B8D, size: 0x8, addend: 0x0, symName: __ZNK3fmt2v916basic_format_argINS0_20basic_format_contextINS0_8appenderEcEEEcvbEv, symObjAddr: 0x7B8C, symBinAddr: 0x10000B30C, symSize: 0x24 }
  - { offsetInCU: 0x74BB3, offset: 0x74BB3, size: 0x8, addend: 0x0, symName: __ZN3fmt2v96detail13error_handler8on_errorEPKc, symObjAddr: 0x7BB0, symBinAddr: 0x10000B330, symSize: 0x1C }
  - { offsetInCU: 0x74BE8, offset: 0x74BE8, size: 0x8, addend: 0x0, symName: __ZZN3fmt2v96detail10vformat_toIcEEvRNS1_6bufferIT_EENS0_17basic_string_viewIS4_EENS0_17basic_format_argsINS0_20basic_format_contextINSt3__111conditionalIXsr3std7is_sameINS0_13type_identityIS4_E4typeEcEE5valueENS0_8appenderENSB_20back_insert_iteratorINS3_ISF_EEEEE4typeESF_EEEENS1_10locale_refEEN14format_handlerC1ESG_NS7_IcEENS9_INSA_ISG_cEEEESO_, symObjAddr: 0x7BCC, symBinAddr: 0x10000B34C, symSize: 0x5C }
  - { offsetInCU: 0x74C4E, offset: 0x74C4E, size: 0x8, addend: 0x0, symName: __ZN3fmt2v98appenderCI2NSt3__120back_insert_iteratorINS0_6detail6bufferIcEEEEERS6_, symObjAddr: 0x7C28, symBinAddr: 0x10000B3A8, symSize: 0x34 }
  - { offsetInCU: 0x74C84, offset: 0x74C84, size: 0x8, addend: 0x0, symName: __ZNSt3__120back_insert_iteratorIN3fmt2v96detail6bufferIcEEEC2B7v160006ERS5_, symObjAddr: 0x7C5C, symBinAddr: 0x10000B3DC, symSize: 0x20 }
  - { offsetInCU: 0x74CBC, offset: 0x74CBC, size: 0x8, addend: 0x0, symName: __ZN3fmt2v916basic_format_argINS0_20basic_format_contextINS0_8appenderEcEEEC1Ev, symObjAddr: 0x7C7C, symBinAddr: 0x10000B3FC, symSize: 0x2C }
  - { offsetInCU: 0x74CE6, offset: 0x74CE6, size: 0x8, addend: 0x0, symName: __ZNK3fmt2v917basic_format_argsINS0_20basic_format_contextINS0_8appenderEcEEE9is_packedEv, symObjAddr: 0x7CA8, symBinAddr: 0x10000B428, symSize: 0x24 }
  - { offsetInCU: 0x74D0C, offset: 0x74D0C, size: 0x8, addend: 0x0, symName: __ZNK3fmt2v917basic_format_argsINS0_20basic_format_contextINS0_8appenderEcEEE8max_sizeEv, symObjAddr: 0x7CCC, symBinAddr: 0x10000B44C, symSize: 0x60 }
  - { offsetInCU: 0x74D41, offset: 0x74D41, size: 0x8, addend: 0x0, symName: __ZNK3fmt2v917basic_format_argsINS0_20basic_format_contextINS0_8appenderEcEEE4typeEi, symObjAddr: 0x7D2C, symBinAddr: 0x10000B4AC, symSize: 0x44 }
  - { offsetInCU: 0x74DC8, offset: 0x74DC8, size: 0x8, addend: 0x0, symName: __ZN3fmt2v916basic_format_argINS0_20basic_format_contextINS0_8appenderEcEEEC2Ev, symObjAddr: 0x7D70, symBinAddr: 0x10000B4F0, symSize: 0x40 }
  - { offsetInCU: 0x74E2E, offset: 0x74E2E, size: 0x8, addend: 0x0, symName: __ZN3fmt2v99monostateC1Ev, symObjAddr: 0x7DB0, symBinAddr: 0x10000B530, symSize: 0x2C }
  - { offsetInCU: 0x74E58, offset: 0x74E58, size: 0x8, addend: 0x0, symName: __ZN3fmt2v99monostateC2Ev, symObjAddr: 0x7DDC, symBinAddr: 0x10000B55C, symSize: 0x14 }
  - { offsetInCU: 0x74E82, offset: 0x74E82, size: 0x8, addend: 0x0, symName: __ZN3fmt2v912format_errorC1EPKc, symObjAddr: 0x7E54, symBinAddr: 0x10000B5D4, symSize: 0x34 }
  - { offsetInCU: 0x74EBB, offset: 0x74EBB, size: 0x8, addend: 0x0, symName: __ZN3fmt2v912format_errorD1Ev, symObjAddr: 0x7E88, symBinAddr: 0x10000B608, symSize: 0x2C }
  - { offsetInCU: 0x74EE7, offset: 0x74EE7, size: 0x8, addend: 0x0, symName: __ZN3fmt2v912format_errorC2EPKc, symObjAddr: 0x7EB4, symBinAddr: 0x10000B634, symSize: 0x4C }
  - { offsetInCU: 0x74F20, offset: 0x74F20, size: 0x8, addend: 0x0, symName: __ZN3fmt2v912format_errorD0Ev, symObjAddr: 0x7F00, symBinAddr: 0x10000B680, symSize: 0x30 }
  - { offsetInCU: 0x74F4C, offset: 0x74F4C, size: 0x8, addend: 0x0, symName: __ZN3fmt2v912format_errorD2Ev, symObjAddr: 0x7F30, symBinAddr: 0x10000B6B0, symSize: 0x2C }
  - { offsetInCU: 0x74F78, offset: 0x74F78, size: 0x8, addend: 0x0, symName: __ZN3fmt2v96detail21default_arg_formatterIcEclIiEENS0_8appenderET_, symObjAddr: 0x7F5C, symBinAddr: 0x10000B6DC, symSize: 0x40 }
  - { offsetInCU: 0x74FB6, offset: 0x74FB6, size: 0x8, addend: 0x0, symName: __ZN3fmt2v96detail21default_arg_formatterIcEclIjEENS0_8appenderET_, symObjAddr: 0x7F9C, symBinAddr: 0x10000B71C, symSize: 0x40 }
  - { offsetInCU: 0x74FF4, offset: 0x74FF4, size: 0x8, addend: 0x0, symName: __ZN3fmt2v96detail21default_arg_formatterIcEclIxEENS0_8appenderET_, symObjAddr: 0x7FDC, symBinAddr: 0x10000B75C, symSize: 0x40 }
  - { offsetInCU: 0x75032, offset: 0x75032, size: 0x8, addend: 0x0, symName: __ZN3fmt2v96detail21default_arg_formatterIcEclIyEENS0_8appenderET_, symObjAddr: 0x801C, symBinAddr: 0x10000B79C, symSize: 0x40 }
  - { offsetInCU: 0x75070, offset: 0x75070, size: 0x8, addend: 0x0, symName: __ZN3fmt2v96detail21default_arg_formatterIcEclInEENS0_8appenderET_, symObjAddr: 0x805C, symBinAddr: 0x10000B7DC, symSize: 0x58 }
  - { offsetInCU: 0x750AE, offset: 0x750AE, size: 0x8, addend: 0x0, symName: __ZN3fmt2v96detail21default_arg_formatterIcEclIoEENS0_8appenderET_, symObjAddr: 0x80E0, symBinAddr: 0x10000B860, symSize: 0x58 }
  - { offsetInCU: 0x750EC, offset: 0x750EC, size: 0x8, addend: 0x0, symName: __ZN3fmt2v96detail21default_arg_formatterIcEclIbEENS0_8appenderET_, symObjAddr: 0x8164, symBinAddr: 0x10000B8E4, symSize: 0x70 }
  - { offsetInCU: 0x7512A, offset: 0x7512A, size: 0x8, addend: 0x0, symName: __ZN3fmt2v96detail21default_arg_formatterIcEclIcEENS0_8appenderET_, symObjAddr: 0x81D4, symBinAddr: 0x10000B954, symSize: 0x40 }
  - { offsetInCU: 0x75168, offset: 0x75168, size: 0x8, addend: 0x0, symName: __ZN3fmt2v96detail21default_arg_formatterIcEclIfEENS0_8appenderET_, symObjAddr: 0x8214, symBinAddr: 0x10000B994, symSize: 0x40 }
  - { offsetInCU: 0x751A6, offset: 0x751A6, size: 0x8, addend: 0x0, symName: __ZN3fmt2v96detail21default_arg_formatterIcEclIdEENS0_8appenderET_, symObjAddr: 0x8254, symBinAddr: 0x10000B9D4, symSize: 0x40 }
  - { offsetInCU: 0x751E4, offset: 0x751E4, size: 0x8, addend: 0x0, symName: __ZN3fmt2v96detail21default_arg_formatterIcEclIeEENS0_8appenderET_, symObjAddr: 0x8294, symBinAddr: 0x10000BA14, symSize: 0x40 }
  - { offsetInCU: 0x75222, offset: 0x75222, size: 0x8, addend: 0x0, symName: __ZN3fmt2v96detail21default_arg_formatterIcEclIPKcEENS0_8appenderET_, symObjAddr: 0x82D4, symBinAddr: 0x10000BA54, symSize: 0x40 }
  - { offsetInCU: 0x75260, offset: 0x75260, size: 0x8, addend: 0x0, symName: __ZN3fmt2v96detail21default_arg_formatterIcEclINS0_17basic_string_viewIcEEEENS0_8appenderET_, symObjAddr: 0x8314, symBinAddr: 0x10000BA94, symSize: 0x50 }
  - { offsetInCU: 0x7529E, offset: 0x7529E, size: 0x8, addend: 0x0, symName: __ZN3fmt2v917basic_string_viewIcEC1EPKcm, symObjAddr: 0x8364, symBinAddr: 0x10000BAE4, symSize: 0x3C }
  - { offsetInCU: 0x752E6, offset: 0x752E6, size: 0x8, addend: 0x0, symName: __ZN3fmt2v96detail21default_arg_formatterIcEclIPKvEENS0_8appenderET_, symObjAddr: 0x83A0, symBinAddr: 0x10000BB20, symSize: 0x64 }
  - { offsetInCU: 0x75324, offset: 0x75324, size: 0x8, addend: 0x0, symName: __ZN3fmt2v96detail21default_arg_formatterIcEclENS0_16basic_format_argINS0_20basic_format_contextINS0_8appenderEcEEE6handleE, symObjAddr: 0x8404, symBinAddr: 0x10000BB84, symSize: 0xAC }
  - { offsetInCU: 0x75378, offset: 0x75378, size: 0x8, addend: 0x0, symName: __ZN3fmt2v916basic_format_argINS0_20basic_format_contextINS0_8appenderEcEEE6handleC1ENS0_6detail12custom_valueIS4_EE, symObjAddr: 0x84B0, symBinAddr: 0x10000BC30, symSize: 0x3C }
  - { offsetInCU: 0x753B1, offset: 0x753B1, size: 0x8, addend: 0x0, symName: __ZN3fmt2v96detail21default_arg_formatterIcEclINS0_9monostateEEENS0_8appenderET_, symObjAddr: 0x84EC, symBinAddr: 0x10000BC6C, symSize: 0x54 }
  - { offsetInCU: 0x753EF, offset: 0x753EF, size: 0x8, addend: 0x0, symName: __ZN3fmt2v98appenderppEi, symObjAddr: 0x87B8, symBinAddr: 0x10000BF38, symSize: 0x24 }
  - { offsetInCU: 0x75421, offset: 0x75421, size: 0x8, addend: 0x0, symName: __ZNSt3__120back_insert_iteratorIN3fmt2v96detail6bufferIcEEEdeB7v160006Ev, symObjAddr: 0x87DC, symBinAddr: 0x10000BF5C, symSize: 0x14 }
  - { offsetInCU: 0x75447, offset: 0x75447, size: 0x8, addend: 0x0, symName: __ZNSt3__120back_insert_iteratorIN3fmt2v96detail6bufferIcEEEaSB7v160006EOc, symObjAddr: 0x87F0, symBinAddr: 0x10000BF70, symSize: 0x38 }
  - { offsetInCU: 0x7547B, offset: 0x7547B, size: 0x8, addend: 0x0, symName: __ZZN3fmt2v96detail13get_containerINS1_6bufferIcEEEERT_NSt3__120back_insert_iteratorIS5_EEEN8accessorC1ENS8_IS4_EE, symObjAddr: 0x8938, symBinAddr: 0x10000C0B8, symSize: 0x34 }
  - { offsetInCU: 0x754B4, offset: 0x754B4, size: 0x8, addend: 0x0, symName: __ZZN3fmt2v96detail13get_containerINS1_6bufferIcEEEERT_NSt3__120back_insert_iteratorIS5_EEEN8accessorC2ENS8_IS4_EE, symObjAddr: 0x896C, symBinAddr: 0x10000C0EC, symSize: 0x20 }
  - { offsetInCU: 0x754ED, offset: 0x754ED, size: 0x8, addend: 0x0, symName: __ZN3fmt2v918basic_format_specsIcEC1Ev, symObjAddr: 0x9BFC, symBinAddr: 0x10000D37C, symSize: 0x2C }
  - { offsetInCU: 0x75549, offset: 0x75549, size: 0x8, addend: 0x0, symName: __ZN3fmt2v96detail14digit_groupingIcEC1ENS1_10locale_refEb, symObjAddr: 0xA954, symBinAddr: 0x10000E0D4, symSize: 0x48 }
  - { offsetInCU: 0x75591, offset: 0x75591, size: 0x8, addend: 0x0, symName: __ZN3fmt2v96detail14digit_groupingIcED1Ev, symObjAddr: 0xAAD0, symBinAddr: 0x10000E250, symSize: 0x2C }
  - { offsetInCU: 0x755BE, offset: 0x755BE, size: 0x8, addend: 0x0, symName: __ZN3fmt2v96detail14digit_groupingIcEC2ENS1_10locale_refEb, symObjAddr: 0xAAFC, symBinAddr: 0x10000E27C, symSize: 0xB4 }
  - { offsetInCU: 0x7560C, offset: 0x7560C, size: 0x8, addend: 0x0, symName: __ZN3fmt2v96detail20thousands_sep_resultIcEC1Ev, symObjAddr: 0xABB0, symBinAddr: 0x10000E330, symSize: 0x2C }
  - { offsetInCU: 0x75645, offset: 0x75645, size: 0x8, addend: 0x0, symName: __ZN3fmt2v96detail20thousands_sep_resultIcEaSEOS3_, symObjAddr: 0xAC5C, symBinAddr: 0x10000E3DC, symSize: 0x40 }
  - { offsetInCU: 0x75677, offset: 0x75677, size: 0x8, addend: 0x0, symName: __ZN3fmt2v96detail20thousands_sep_resultIcED1Ev, symObjAddr: 0xAC9C, symBinAddr: 0x10000E41C, symSize: 0x2C }
  - { offsetInCU: 0x756A4, offset: 0x756A4, size: 0x8, addend: 0x0, symName: __ZN3fmt2v96detail20thousands_sep_resultIcEC2Ev, symObjAddr: 0xACC8, symBinAddr: 0x10000E448, symSize: 0x2C }
  - { offsetInCU: 0x756D1, offset: 0x756D1, size: 0x8, addend: 0x0, symName: __ZNSt3__112basic_stringIcNS_11char_traitsIcEENS_9allocatorIcEEEC1B7v160006Ev, symObjAddr: 0xACF4, symBinAddr: 0x10000E474, symSize: 0x2C }
  - { offsetInCU: 0x756FB, offset: 0x756FB, size: 0x8, addend: 0x0, symName: __ZNSt3__112basic_stringIcNS_11char_traitsIcEENS_9allocatorIcEEEC2B7v160006Ev, symObjAddr: 0xAD20, symBinAddr: 0x10000E4A0, symSize: 0x54 }
  - { offsetInCU: 0x75725, offset: 0x75725, size: 0x8, addend: 0x0, symName: __ZNSt3__117__compressed_pairINS_12basic_stringIcNS_11char_traitsIcEENS_9allocatorIcEEE5__repES5_EC1B7v160006INS_18__default_init_tagESA_EEOT_OT0_, symObjAddr: 0xAD74, symBinAddr: 0x10000E4F4, symSize: 0x3C }
  - { offsetInCU: 0x7577D, offset: 0x7577D, size: 0x8, addend: 0x0, symName: __ZNSt3__112basic_stringIcNS_11char_traitsIcEENS_9allocatorIcEEE14__default_initB7v160006Ev, symObjAddr: 0xADC0, symBinAddr: 0x10000E540, symSize: 0x40 }
  - { offsetInCU: 0x757A3, offset: 0x757A3, size: 0x8, addend: 0x0, symName: __ZNSt3__117__compressed_pairINS_12basic_stringIcNS_11char_traitsIcEENS_9allocatorIcEEE5__repES5_EC2B7v160006INS_18__default_init_tagESA_EEOT_OT0_, symObjAddr: 0xAE00, symBinAddr: 0x10000E580, symSize: 0x3C }
  - { offsetInCU: 0x757FB, offset: 0x757FB, size: 0x8, addend: 0x0, symName: __ZNSt3__122__compressed_pair_elemINS_12basic_stringIcNS_11char_traitsIcEENS_9allocatorIcEEE5__repELi0ELb0EEC2B7v160006ENS_18__default_init_tagE, symObjAddr: 0xAE3C, symBinAddr: 0x10000E5BC, symSize: 0x14 }
  - { offsetInCU: 0x75830, offset: 0x75830, size: 0x8, addend: 0x0, symName: __ZNSt3__122__compressed_pair_elemINS_9allocatorIcEELi1ELb1EEC2B7v160006ENS_18__default_init_tagE, symObjAddr: 0xAE50, symBinAddr: 0x10000E5D0, symSize: 0x2C }
  - { offsetInCU: 0x75865, offset: 0x75865, size: 0x8, addend: 0x0, symName: __ZNSt3__117__compressed_pairINS_12basic_stringIcNS_11char_traitsIcEENS_9allocatorIcEEE5__repES5_E5firstB7v160006Ev, symObjAddr: 0xAE7C, symBinAddr: 0x10000E5FC, symSize: 0x24 }
  - { offsetInCU: 0x7588B, offset: 0x7588B, size: 0x8, addend: 0x0, symName: __ZNSt3__122__compressed_pair_elemINS_12basic_stringIcNS_11char_traitsIcEENS_9allocatorIcEEE5__repELi0ELb0EE5__getB7v160006Ev, symObjAddr: 0xAEA0, symBinAddr: 0x10000E620, symSize: 0x14 }
  - { offsetInCU: 0x758B1, offset: 0x758B1, size: 0x8, addend: 0x0, symName: __ZNK3fmt2v96detail10locale_ref3getINSt3__16localeEEET_v, symObjAddr: 0xAFE8, symBinAddr: 0x10000E768, symSize: 0x60 }
  - { offsetInCU: 0x758F1, offset: 0x758F1, size: 0x8, addend: 0x0, symName: __ZNKSt3__18numpunctIcE8groupingB7v160006Ev, symObjAddr: 0xB048, symBinAddr: 0x10000E7C8, symSize: 0x34 }
  - { offsetInCU: 0x75917, offset: 0x75917, size: 0x8, addend: 0x0, symName: __ZNKSt3__112basic_stringIcNS_11char_traitsIcEENS_9allocatorIcEEE5emptyB7v160006Ev, symObjAddr: 0xB07C, symBinAddr: 0x10000E7FC, symSize: 0x30 }
  - { offsetInCU: 0x7593D, offset: 0x7593D, size: 0x8, addend: 0x0, symName: __ZNKSt3__18numpunctIcE13thousands_sepB7v160006Ev, symObjAddr: 0xB0AC, symBinAddr: 0x10000E82C, symSize: 0x30 }
  - { offsetInCU: 0x75963, offset: 0x75963, size: 0x8, addend: 0x0, symName: __ZNKSt3__112basic_stringIcNS_11char_traitsIcEENS_9allocatorIcEEE4sizeB7v160006Ev, symObjAddr: 0xB0DC, symBinAddr: 0x10000E85C, symSize: 0x54 }
  - { offsetInCU: 0x75989, offset: 0x75989, size: 0x8, addend: 0x0, symName: __ZNKSt3__112basic_stringIcNS_11char_traitsIcEENS_9allocatorIcEEE9__is_longB7v160006Ev, symObjAddr: 0xB130, symBinAddr: 0x10000E8B0, symSize: 0x38 }
  - { offsetInCU: 0x759AF, offset: 0x759AF, size: 0x8, addend: 0x0, symName: __ZNKSt3__112basic_stringIcNS_11char_traitsIcEENS_9allocatorIcEEE15__get_long_sizeB7v160006Ev, symObjAddr: 0xB168, symBinAddr: 0x10000E8E8, symSize: 0x28 }
  - { offsetInCU: 0x759D5, offset: 0x759D5, size: 0x8, addend: 0x0, symName: __ZNKSt3__112basic_stringIcNS_11char_traitsIcEENS_9allocatorIcEEE16__get_short_sizeB7v160006Ev, symObjAddr: 0xB190, symBinAddr: 0x10000E910, symSize: 0x34 }
  - { offsetInCU: 0x759FB, offset: 0x759FB, size: 0x8, addend: 0x0, symName: __ZNKSt3__117__compressed_pairINS_12basic_stringIcNS_11char_traitsIcEENS_9allocatorIcEEE5__repES5_E5firstB7v160006Ev, symObjAddr: 0xB1C4, symBinAddr: 0x10000E944, symSize: 0x24 }
  - { offsetInCU: 0x75A21, offset: 0x75A21, size: 0x8, addend: 0x0, symName: __ZNKSt3__122__compressed_pair_elemINS_12basic_stringIcNS_11char_traitsIcEENS_9allocatorIcEEE5__repELi0ELb0EE5__getB7v160006Ev, symObjAddr: 0xB1E8, symBinAddr: 0x10000E968, symSize: 0x14 }
  - { offsetInCU: 0x75A47, offset: 0x75A47, size: 0x8, addend: 0x0, symName: __ZNSt3__112basic_stringIcNS_11char_traitsIcEENS_9allocatorIcEEEaSB7v160006EOS5_, symObjAddr: 0xB1FC, symBinAddr: 0x10000E97C, symSize: 0x34 }
  - { offsetInCU: 0x75A7C, offset: 0x75A7C, size: 0x8, addend: 0x0, symName: __ZNSt3__112basic_stringIcNS_11char_traitsIcEENS_9allocatorIcEEE13__move_assignB7v160006ERS5_NS_17integral_constantIbLb1EEE, symObjAddr: 0xB230, symBinAddr: 0x10000E9B0, symSize: 0xC8 }
  - { offsetInCU: 0x75ABF, offset: 0x75ABF, size: 0x8, addend: 0x0, symName: __ZNSt3__116allocator_traitsINS_9allocatorIcEEE10deallocateB7v160006ERS2_Pcm, symObjAddr: 0xB2F8, symBinAddr: 0x10000EA78, symSize: 0x34 }
  - { offsetInCU: 0x75B01, offset: 0x75B01, size: 0x8, addend: 0x0, symName: __ZNSt3__112basic_stringIcNS_11char_traitsIcEENS_9allocatorIcEEE7__allocB7v160006Ev, symObjAddr: 0xB32C, symBinAddr: 0x10000EAAC, symSize: 0x24 }
  - { offsetInCU: 0x75B27, offset: 0x75B27, size: 0x8, addend: 0x0, symName: __ZNSt3__112basic_stringIcNS_11char_traitsIcEENS_9allocatorIcEEE18__get_long_pointerB7v160006Ev, symObjAddr: 0xB350, symBinAddr: 0x10000EAD0, symSize: 0x28 }
  - { offsetInCU: 0x75B4D, offset: 0x75B4D, size: 0x8, addend: 0x0, symName: __ZNKSt3__112basic_stringIcNS_11char_traitsIcEENS_9allocatorIcEEE14__get_long_capB7v160006Ev, symObjAddr: 0xB378, symBinAddr: 0x10000EAF8, symSize: 0x30 }
  - { offsetInCU: 0x75B73, offset: 0x75B73, size: 0x8, addend: 0x0, symName: __ZNSt3__112basic_stringIcNS_11char_traitsIcEENS_9allocatorIcEEE19__move_assign_allocB7v160006ERS5_, symObjAddr: 0xB3A8, symBinAddr: 0x10000EB28, symSize: 0x2C }
  - { offsetInCU: 0x75BA8, offset: 0x75BA8, size: 0x8, addend: 0x0, symName: __ZNSt3__112basic_stringIcNS_11char_traitsIcEENS_9allocatorIcEEE16__set_short_sizeB7v160006Em, symObjAddr: 0xB3D4, symBinAddr: 0x10000EB54, symSize: 0x78 }
  - { offsetInCU: 0x75BDD, offset: 0x75BDD, size: 0x8, addend: 0x0, symName: __ZNSt3__111char_traitsIcE6assignERcRKc, symObjAddr: 0xB44C, symBinAddr: 0x10000EBCC, symSize: 0x24 }
  - { offsetInCU: 0x75C0E, offset: 0x75C0E, size: 0x8, addend: 0x0, symName: __ZNSt3__112basic_stringIcNS_11char_traitsIcEENS_9allocatorIcEEE19__get_short_pointerB7v160006Ev, symObjAddr: 0xB470, symBinAddr: 0x10000EBF0, symSize: 0x28 }
  - { offsetInCU: 0x75C34, offset: 0x75C34, size: 0x8, addend: 0x0, symName: __ZNSt3__117__compressed_pairINS_12basic_stringIcNS_11char_traitsIcEENS_9allocatorIcEEE5__repES5_E6secondB7v160006Ev, symObjAddr: 0xB498, symBinAddr: 0x10000EC18, symSize: 0x24 }
  - { offsetInCU: 0x75C5A, offset: 0x75C5A, size: 0x8, addend: 0x0, symName: __ZNSt3__122__compressed_pair_elemINS_9allocatorIcEELi1ELb1EE5__getB7v160006Ev, symObjAddr: 0xB4BC, symBinAddr: 0x10000EC3C, symSize: 0x14 }
  - { offsetInCU: 0x75C80, offset: 0x75C80, size: 0x8, addend: 0x0, symName: __ZNSt3__112basic_stringIcNS_11char_traitsIcEENS_9allocatorIcEEE19__move_assign_allocB7v160006ERS5_NS_17integral_constantIbLb1EEE, symObjAddr: 0xB4D0, symBinAddr: 0x10000EC50, symSize: 0x38 }
  - { offsetInCU: 0x75CC1, offset: 0x75CC1, size: 0x8, addend: 0x0, symName: __ZNSt3__114pointer_traitsIPcE10pointer_toB7v160006ERc, symObjAddr: 0xB508, symBinAddr: 0x10000EC88, symSize: 0x14 }
  - { offsetInCU: 0x75CE4, offset: 0x75CE4, size: 0x8, addend: 0x0, symName: __ZN3fmt2v96detail20thousands_sep_resultIcED2Ev, symObjAddr: 0xB51C, symBinAddr: 0x10000EC9C, symSize: 0x2C }
  - { offsetInCU: 0x75D11, offset: 0x75D11, size: 0x8, addend: 0x0, symName: __ZNK3fmt2v96detail14digit_groupingIcE16count_separatorsEi, symObjAddr: 0xB598, symBinAddr: 0x10000ED18, symSize: 0x78 }
  - { offsetInCU: 0x75D64, offset: 0x75D64, size: 0x8, addend: 0x0, symName: __ZNK3fmt2v96detail14digit_groupingIcE13initial_stateEv, symObjAddr: 0xB7D4, symBinAddr: 0x10000EF54, symSize: 0x34 }
  - { offsetInCU: 0x75D8A, offset: 0x75D8A, size: 0x8, addend: 0x0, symName: __ZNK3fmt2v96detail14digit_groupingIcE4nextERNS3_10next_stateE, symObjAddr: 0xB808, symBinAddr: 0x10000EF88, symSize: 0x12C }
  - { offsetInCU: 0x75DBF, offset: 0x75DBF, size: 0x8, addend: 0x0, symName: __ZNKSt3__112basic_stringIcNS_11char_traitsIcEENS_9allocatorIcEEE5beginB7v160006Ev, symObjAddr: 0xB934, symBinAddr: 0x10000F0B4, symSize: 0x4C }
  - { offsetInCU: 0x75DE5, offset: 0x75DE5, size: 0x8, addend: 0x0, symName: __ZNKSt3__112basic_stringIcNS_11char_traitsIcEENS_9allocatorIcEEE21__make_const_iteratorB7v160006EPKc, symObjAddr: 0xB980, symBinAddr: 0x10000F100, symSize: 0x34 }
  - { offsetInCU: 0x75E1A, offset: 0x75E1A, size: 0x8, addend: 0x0, symName: __ZNKSt3__112basic_stringIcNS_11char_traitsIcEENS_9allocatorIcEEE13__get_pointerB7v160006Ev, symObjAddr: 0xB9B4, symBinAddr: 0x10000F134, symSize: 0x54 }
  - { offsetInCU: 0x75E40, offset: 0x75E40, size: 0x8, addend: 0x0, symName: __ZNSt3__111__wrap_iterIPKcEC1B7v160006EPKvS2_, symObjAddr: 0xBA08, symBinAddr: 0x10000F188, symSize: 0x3C }
  - { offsetInCU: 0x75E86, offset: 0x75E86, size: 0x8, addend: 0x0, symName: __ZNSt3__111__wrap_iterIPKcEC2B7v160006EPKvS2_, symObjAddr: 0xBA44, symBinAddr: 0x10000F1C4, symSize: 0x24 }
  - { offsetInCU: 0x75ECC, offset: 0x75ECC, size: 0x8, addend: 0x0, symName: __ZNKSt3__112basic_stringIcNS_11char_traitsIcEENS_9allocatorIcEEE18__get_long_pointerB7v160006Ev, symObjAddr: 0xBA68, symBinAddr: 0x10000F1E8, symSize: 0x28 }
  - { offsetInCU: 0x75EF2, offset: 0x75EF2, size: 0x8, addend: 0x0, symName: __ZNKSt3__112basic_stringIcNS_11char_traitsIcEENS_9allocatorIcEEE19__get_short_pointerB7v160006Ev, symObjAddr: 0xBA90, symBinAddr: 0x10000F210, symSize: 0x28 }
  - { offsetInCU: 0x75F18, offset: 0x75F18, size: 0x8, addend: 0x0, symName: __ZNSt3__114pointer_traitsIPKcE10pointer_toB7v160006ERS1_, symObjAddr: 0xBAB8, symBinAddr: 0x10000F238, symSize: 0x14 }
  - { offsetInCU: 0x75F3B, offset: 0x75F3B, size: 0x8, addend: 0x0, symName: __ZNKSt3__112basic_stringIcNS_11char_traitsIcEENS_9allocatorIcEEE3endB7v160006Ev, symObjAddr: 0xBB28, symBinAddr: 0x10000F2A8, symSize: 0x54 }
  - { offsetInCU: 0x75F61, offset: 0x75F61, size: 0x8, addend: 0x0, symName: __ZNKSt3__112basic_stringIcNS_11char_traitsIcEENS_9allocatorIcEEE4backB7v160006Ev, symObjAddr: 0xBB7C, symBinAddr: 0x10000F2FC, symSize: 0x48 }
  - { offsetInCU: 0x75F87, offset: 0x75F87, size: 0x8, addend: 0x0, symName: __ZNKSt3__111__wrap_iterIPKcEdeB7v160006Ev, symObjAddr: 0xBBC4, symBinAddr: 0x10000F344, symSize: 0x18 }
  - { offsetInCU: 0x75FAD, offset: 0x75FAD, size: 0x8, addend: 0x0, symName: __ZNSt3__111__wrap_iterIPKcEppB7v160006Ei, symObjAddr: 0xBBF4, symBinAddr: 0x10000F374, symSize: 0x34 }
  - { offsetInCU: 0x75FEC, offset: 0x75FEC, size: 0x8, addend: 0x0, symName: __ZNSt3__114numeric_limitsIiE3maxB7v160006Ev, symObjAddr: 0xBC28, symBinAddr: 0x10000F3A8, symSize: 0x14 }
  - { offsetInCU: 0x76000, offset: 0x76000, size: 0x8, addend: 0x0, symName: __ZNSt3__123__libcpp_numeric_limitsIiLb1EE3maxB7v160006Ev, symObjAddr: 0xBC3C, symBinAddr: 0x10000F3BC, symSize: 0x8 }
  - { offsetInCU: 0x76014, offset: 0x76014, size: 0x8, addend: 0x0, symName: __ZNKSt3__111__wrap_iterIPKcE4baseB7v160006Ev, symObjAddr: 0xBC44, symBinAddr: 0x10000F3C4, symSize: 0x18 }
  - { offsetInCU: 0x7603A, offset: 0x7603A, size: 0x8, addend: 0x0, symName: __ZNKSt3__112basic_stringIcNS_11char_traitsIcEENS_9allocatorIcEEE4dataB7v160006Ev, symObjAddr: 0xBC5C, symBinAddr: 0x10000F3DC, symSize: 0x28 }
  - { offsetInCU: 0x76060, offset: 0x76060, size: 0x8, addend: 0x0, symName: __ZNSt3__114numeric_limitsIcE3maxB7v160006Ev, symObjAddr: 0xBC98, symBinAddr: 0x10000F418, symSize: 0x18 }
  - { offsetInCU: 0x76074, offset: 0x76074, size: 0x8, addend: 0x0, symName: __ZNSt3__123__libcpp_numeric_limitsIcLb1EE3maxB7v160006Ev, symObjAddr: 0xBCB0, symBinAddr: 0x10000F430, symSize: 0x8 }
  - { offsetInCU: 0x76088, offset: 0x76088, size: 0x8, addend: 0x0, symName: __ZNSt3__111__wrap_iterIPKcEppB7v160006Ev, symObjAddr: 0xBCB8, symBinAddr: 0x10000F438, symSize: 0x20 }
  - { offsetInCU: 0x760AE, offset: 0x760AE, size: 0x8, addend: 0x0, symName: __ZNK3fmt2v96detail6fill_tIcE4sizeEv, symObjAddr: 0xBCD8, symBinAddr: 0x10000F458, symSize: 0x1C }
  - { offsetInCU: 0x760EB, offset: 0x760EB, size: 0x8, addend: 0x0, symName: __ZZN3fmt2v96detail19write_int_localizedINS0_8appenderEycEET_S4_T0_jRKNS0_18basic_format_specsIT1_EERKNS1_14digit_groupingIS7_EEENKUlS3_E_clES3_, symObjAddr: 0xBDE8, symBinAddr: 0x10000F568, symSize: 0xE0 }
  - { offsetInCU: 0x76141, offset: 0x76141, size: 0x8, addend: 0x0, symName: __ZNK3fmt2v96detail6fill_tIcEixEm, symObjAddr: 0xBF58, symBinAddr: 0x10000F6D8, symSize: 0x20 }
  - { offsetInCU: 0x76176, offset: 0x76176, size: 0x8, addend: 0x0, symName: __ZNK3fmt2v96detail6fill_tIcE4dataEv, symObjAddr: 0xBF78, symBinAddr: 0x10000F6F8, symSize: 0x14 }
  - { offsetInCU: 0x7619C, offset: 0x7619C, size: 0x8, addend: 0x0, symName: __ZNSt3__120back_insert_iteratorIN3fmt2v96detail6bufferIcEEEaSB7v160006ERKc, symObjAddr: 0xBFD8, symBinAddr: 0x10000F758, symSize: 0x38 }
  - { offsetInCU: 0x761D0, offset: 0x761D0, size: 0x8, addend: 0x0, symName: __ZNK3fmt2v96detail14digit_groupingIcE5applyINS0_8appenderEcEET_S6_NS0_17basic_string_viewIT0_EE, symObjAddr: 0xC010, symBinAddr: 0x10000F790, symSize: 0x25C }
  - { offsetInCU: 0x762B0, offset: 0x762B0, size: 0x8, addend: 0x0, symName: __ZNSt3__19allocatorIiEC1B7v160006Ev, symObjAddr: 0xC26C, symBinAddr: 0x10000F9EC, symSize: 0x2C }
  - { offsetInCU: 0x76328, offset: 0x76328, size: 0x8, addend: 0x0, symName: __ZN3fmt2v919basic_memory_bufferIiLm500ENSt3__19allocatorIiEEEC1ERKS4_, symObjAddr: 0xC298, symBinAddr: 0x10000FA18, symSize: 0x34 }
  - { offsetInCU: 0x76361, offset: 0x76361, size: 0x8, addend: 0x0, symName: __ZN3fmt2v96detail6bufferIiE9push_backERKi, symObjAddr: 0xC2CC, symBinAddr: 0x10000FA4C, symSize: 0x54 }
  - { offsetInCU: 0x76396, offset: 0x76396, size: 0x8, addend: 0x0, symName: __ZNK3fmt2v96detail6bufferIiE4sizeEv, symObjAddr: 0xC320, symBinAddr: 0x10000FAA0, symSize: 0x18 }
  - { offsetInCU: 0x763BC, offset: 0x763BC, size: 0x8, addend: 0x0, symName: __ZN3fmt2v96detail6bufferIiEixIiEERiT_, symObjAddr: 0xC338, symBinAddr: 0x10000FAB8, symSize: 0x24 }
  - { offsetInCU: 0x763FA, offset: 0x763FA, size: 0x8, addend: 0x0, symName: __ZNK3fmt2v96detail14digit_groupingIcE9separatorEv, symObjAddr: 0xC35C, symBinAddr: 0x10000FADC, symSize: 0x18 }
  - { offsetInCU: 0x76420, offset: 0x76420, size: 0x8, addend: 0x0, symName: __ZNK3fmt2v917basic_string_viewIcEixEm, symObjAddr: 0xC374, symBinAddr: 0x10000FAF4, symSize: 0x24 }
  - { offsetInCU: 0x76455, offset: 0x76455, size: 0x8, addend: 0x0, symName: __ZN3fmt2v919basic_memory_bufferIiLm500ENSt3__19allocatorIiEEED1Ev, symObjAddr: 0xC398, symBinAddr: 0x10000FB18, symSize: 0x2C }
  - { offsetInCU: 0x7647F, offset: 0x7647F, size: 0x8, addend: 0x0, symName: __ZNSt3__19allocatorIiEC2B7v160006Ev, symObjAddr: 0xC3C4, symBinAddr: 0x10000FB44, symSize: 0x2C }
  - { offsetInCU: 0x764A9, offset: 0x764A9, size: 0x8, addend: 0x0, symName: __ZNSt3__116__non_trivial_ifILb1ENS_9allocatorIiEEEC2B7v160006Ev, symObjAddr: 0xC3F0, symBinAddr: 0x10000FB70, symSize: 0x14 }
  - { offsetInCU: 0x764D3, offset: 0x764D3, size: 0x8, addend: 0x0, symName: __ZN3fmt2v919basic_memory_bufferIiLm500ENSt3__19allocatorIiEEEC2ERKS4_, symObjAddr: 0xC404, symBinAddr: 0x10000FB84, symSize: 0x68 }
  - { offsetInCU: 0x7650C, offset: 0x7650C, size: 0x8, addend: 0x0, symName: __ZN3fmt2v96detail6bufferIiEC2EPimm, symObjAddr: 0xC46C, symBinAddr: 0x10000FBEC, symSize: 0x48 }
  - { offsetInCU: 0x76563, offset: 0x76563, size: 0x8, addend: 0x0, symName: __ZN3fmt2v96detail6bufferIiE3setEPim, symObjAddr: 0xC4B4, symBinAddr: 0x10000FC34, symSize: 0x2C }
  - { offsetInCU: 0x765A7, offset: 0x765A7, size: 0x8, addend: 0x0, symName: __ZN3fmt2v919basic_memory_bufferIiLm500ENSt3__19allocatorIiEEE4growEm, symObjAddr: 0xC4E0, symBinAddr: 0x10000FC60, symSize: 0x19C }
  - { offsetInCU: 0x7663A, offset: 0x7663A, size: 0x8, addend: 0x0, symName: __ZNSt3__116allocator_traitsINS_9allocatorIiEEE8max_sizeB7v160006IS2_vEEmRKS2_, symObjAddr: 0xC67C, symBinAddr: 0x10000FDFC, symSize: 0x24 }
  - { offsetInCU: 0x76668, offset: 0x76668, size: 0x8, addend: 0x0, symName: __ZNK3fmt2v96detail6bufferIiE8capacityEv, symObjAddr: 0xC6A0, symBinAddr: 0x10000FE20, symSize: 0x18 }
  - { offsetInCU: 0x7668E, offset: 0x7668E, size: 0x8, addend: 0x0, symName: __ZN3fmt2v96detail6bufferIiE4dataEv, symObjAddr: 0xC6B8, symBinAddr: 0x10000FE38, symSize: 0x18 }
  - { offsetInCU: 0x766B4, offset: 0x766B4, size: 0x8, addend: 0x0, symName: __ZNSt3__116allocator_traitsINS_9allocatorIiEEE8allocateB7v160006ERS2_m, symObjAddr: 0xC6D0, symBinAddr: 0x10000FE50, symSize: 0x2C }
  - { offsetInCU: 0x766E7, offset: 0x766E7, size: 0x8, addend: 0x0, symName: __ZNSt3__19allocatorIiE10deallocateB7v160006EPim, symObjAddr: 0xC754, symBinAddr: 0x10000FED4, symSize: 0x40 }
  - { offsetInCU: 0x76729, offset: 0x76729, size: 0x8, addend: 0x0, symName: __ZNKSt3__19allocatorIiE8max_sizeB7v160006Ev, symObjAddr: 0xC794, symBinAddr: 0x10000FF14, symSize: 0x14 }
  - { offsetInCU: 0x7674F, offset: 0x7674F, size: 0x8, addend: 0x0, symName: __ZNSt3__19allocatorIiE8allocateB7v160006Em, symObjAddr: 0xC7A8, symBinAddr: 0x10000FF28, symSize: 0x58 }
  - { offsetInCU: 0x767A6, offset: 0x767A6, size: 0x8, addend: 0x0, symName: __ZNSt3__14pairIPiS1_EC1B7v160006IS1_S1_LPv0EEEOT_OT0_, symObjAddr: 0xC940, symBinAddr: 0x1000100C0, symSize: 0x3C }
  - { offsetInCU: 0x76804, offset: 0x76804, size: 0x8, addend: 0x0, symName: __ZNSt3__14pairIPiS1_EC2B7v160006IS1_S1_LPv0EEEOT_OT0_, symObjAddr: 0xC98C, symBinAddr: 0x10001010C, symSize: 0x34 }
  - { offsetInCU: 0x76862, offset: 0x76862, size: 0x8, addend: 0x0, symName: __ZN3fmt2v96detail6bufferIiE11try_reserveEm, symObjAddr: 0xC9C0, symBinAddr: 0x100010140, symSize: 0x58 }
  - { offsetInCU: 0x76897, offset: 0x76897, size: 0x8, addend: 0x0, symName: __ZN3fmt2v919basic_memory_bufferIiLm500ENSt3__19allocatorIiEEED2Ev, symObjAddr: 0xCA18, symBinAddr: 0x100010198, symSize: 0x34 }
  - { offsetInCU: 0x768C1, offset: 0x768C1, size: 0x8, addend: 0x0, symName: __ZN3fmt2v919basic_memory_bufferIiLm500ENSt3__19allocatorIiEEE10deallocateEv, symObjAddr: 0xCA4C, symBinAddr: 0x1000101CC, symSize: 0x78 }
  - { offsetInCU: 0x768F6, offset: 0x768F6, size: 0x8, addend: 0x0, symName: __ZN3fmt2v96detail14digit_groupingIcED2Ev, symObjAddr: 0xCAC4, symBinAddr: 0x100010244, symSize: 0x2C }
  - { offsetInCU: 0x76923, offset: 0x76923, size: 0x8, addend: 0x0, symName: __ZZN3fmt2v96detail9write_intIcNS0_8appenderEjEET0_S4_NS1_13write_int_argIT1_EERKNS0_18basic_format_specsIT_EENS1_10locale_refEENKUlS3_E_clES3_, symObjAddr: 0xCAF0, symBinAddr: 0x100010270, symSize: 0x50 }
  - { offsetInCU: 0x7695C, offset: 0x7695C, size: 0x8, addend: 0x0, symName: __ZN3fmt2v96detail14write_int_dataIcEC1EijRKNS0_18basic_format_specsIcEE, symObjAddr: 0xCB40, symBinAddr: 0x1000102C0, symSize: 0x44 }
  - { offsetInCU: 0x769B3, offset: 0x769B3, size: 0x8, addend: 0x0, symName: __ZN3fmt2v96detail14write_int_dataIcEC2EijRKNS0_18basic_format_specsIcEE, symObjAddr: 0xCBD4, symBinAddr: 0x100010354, symSize: 0x138 }
  - { offsetInCU: 0x76A32, offset: 0x76A32, size: 0x8, addend: 0x0, symName: __ZZN3fmt2v96detail9write_intINS0_8appenderEcZNS1_9write_intIcS3_jEET0_S5_NS1_13write_int_argIT1_EERKNS0_18basic_format_specsIT_EENS1_10locale_refEEUlS3_E_EESA_SA_ijRKNS9_IS5_EES7_ENKUlS3_E_clES3_, symObjAddr: 0xCED0, symBinAddr: 0x100010650, symSize: 0xE4 }
  - { offsetInCU: 0x76A88, offset: 0x76A88, size: 0x8, addend: 0x0, symName: __ZZN3fmt2v96detail9write_intIcNS0_8appenderEjEET0_S4_NS1_13write_int_argIT1_EERKNS0_18basic_format_specsIT_EENS1_10locale_refEENKUlS3_E0_clES3_, symObjAddr: 0xCFB4, symBinAddr: 0x100010734, symSize: 0x4C }
  - { offsetInCU: 0x76ACC, offset: 0x76ACC, size: 0x8, addend: 0x0, symName: __ZZN3fmt2v96detail9write_intINS0_8appenderEcZNS1_9write_intIcS3_jEET0_S5_NS1_13write_int_argIT1_EERKNS0_18basic_format_specsIT_EENS1_10locale_refEEUlS3_E0_EESA_SA_ijRKNS9_IS5_EES7_ENKUlS3_E_clES3_, symObjAddr: 0xD3E8, symBinAddr: 0x100010B68, symSize: 0xE4 }
  - { offsetInCU: 0x76B22, offset: 0x76B22, size: 0x8, addend: 0x0, symName: __ZZN3fmt2v96detail9write_intIcNS0_8appenderEjEET0_S4_NS1_13write_int_argIT1_EERKNS0_18basic_format_specsIT_EENS1_10locale_refEENKUlS3_E1_clES3_, symObjAddr: 0xD4CC, symBinAddr: 0x100010C4C, symSize: 0x4C }
  - { offsetInCU: 0x76B66, offset: 0x76B66, size: 0x8, addend: 0x0, symName: __ZZN3fmt2v96detail9write_intINS0_8appenderEcZNS1_9write_intIcS3_jEET0_S5_NS1_13write_int_argIT1_EERKNS0_18basic_format_specsIT_EENS1_10locale_refEEUlS3_E1_EESA_SA_ijRKNS9_IS5_EES7_ENKUlS3_E_clES3_, symObjAddr: 0xD8F8, symBinAddr: 0x100011078, symSize: 0xE4 }
  - { offsetInCU: 0x76BBC, offset: 0x76BBC, size: 0x8, addend: 0x0, symName: __ZZN3fmt2v96detail9write_intIcNS0_8appenderEjEET0_S4_NS1_13write_int_argIT1_EERKNS0_18basic_format_specsIT_EENS1_10locale_refEENKUlS3_E2_clES3_, symObjAddr: 0xD9DC, symBinAddr: 0x10001115C, symSize: 0x4C }
  - { offsetInCU: 0x76C00, offset: 0x76C00, size: 0x8, addend: 0x0, symName: __ZZN3fmt2v96detail9write_intINS0_8appenderEcZNS1_9write_intIcS3_jEET0_S5_NS1_13write_int_argIT1_EERKNS0_18basic_format_specsIT_EENS1_10locale_refEEUlS3_E2_EESA_SA_ijRKNS9_IS5_EES7_ENKUlS3_E_clES3_, symObjAddr: 0xDE04, symBinAddr: 0x100011584, symSize: 0xE4 }
  - { offsetInCU: 0x76C61, offset: 0x76C61, size: 0x8, addend: 0x0, symName: __ZZN3fmt2v96detail10write_charIcNS0_8appenderEEET0_S4_T_RKNS0_18basic_format_specsIS5_EEENKUlS3_E_clES3_, symObjAddr: 0xE0FC, symBinAddr: 0x10001187C, symSize: 0x94 }
  - { offsetInCU: 0x76C9A, offset: 0x76C9A, size: 0x8, addend: 0x0, symName: __ZNK3fmt2v917basic_string_viewIcE5beginEv, symObjAddr: 0xEF28, symBinAddr: 0x1000126A8, symSize: 0x18 }
  - { offsetInCU: 0x76CC0, offset: 0x76CC0, size: 0x8, addend: 0x0, symName: __ZNK3fmt2v917basic_string_viewIcE3endEv, symObjAddr: 0xEF40, symBinAddr: 0x1000126C0, symSize: 0x20 }
  - { offsetInCU: 0x76CF1, offset: 0x76CF1, size: 0x8, addend: 0x0, symName: __ZZN3fmt2v96detail11write_bytesILNS0_5align4typeE1EcNS0_8appenderEEET1_S6_NS0_17basic_string_viewIcEERKNS0_18basic_format_specsIT0_EEENKUlS5_E_clES5_, symObjAddr: 0xF1E0, symBinAddr: 0x100012960, symSize: 0x74 }
  - { offsetInCU: 0x76D39, offset: 0x76D39, size: 0x8, addend: 0x0, symName: __ZN3fmt2v918basic_format_specsIcEC2Ev, symObjAddr: 0xF254, symBinAddr: 0x1000129D4, symSize: 0x94 }
  - { offsetInCU: 0x76D63, offset: 0x76D63, size: 0x8, addend: 0x0, symName: __ZN3fmt2v96detail6fill_tIcEC1Ev, symObjAddr: 0xF2E8, symBinAddr: 0x100012A68, symSize: 0x2C }
  - { offsetInCU: 0x76D90, offset: 0x76D90, size: 0x8, addend: 0x0, symName: __ZN3fmt2v96detail6fill_tIcEC2Ev, symObjAddr: 0xF314, symBinAddr: 0x100012A94, symSize: 0x30 }
  - { offsetInCU: 0x76DBC, offset: 0x76DBC, size: 0x8, addend: 0x0, symName: __Z5isnanB7v160006f, symObjAddr: 0xF734, symBinAddr: 0x100012EB4, symSize: 0x20 }
  - { offsetInCU: 0x76DF5, offset: 0x76DF5, size: 0x8, addend: 0x0, symName: __Z7signbitB7v160006IdLi0EEbT_, symObjAddr: 0x10048, symBinAddr: 0x1000137C8, symSize: 0x24 }
  - { offsetInCU: 0x76E33, offset: 0x76E33, size: 0x8, addend: 0x0, symName: __ZN3fmt2v96detail6fill_tIcEixEm, symObjAddr: 0x10074, symBinAddr: 0x1000137F4, symSize: 0x20 }
  - { offsetInCU: 0x76E73, offset: 0x76E73, size: 0x8, addend: 0x0, symName: __ZZN3fmt2v96detail15write_nonfiniteIcNS0_8appenderEEET0_S4_bNS0_18basic_format_specsIT_EERKNS1_11float_specsEENKUlS3_E_clES3_, symObjAddr: 0x102A8, symBinAddr: 0x100013A28, symSize: 0xA4 }
  - { offsetInCU: 0x76EAC, offset: 0x76EAC, size: 0x8, addend: 0x0, symName: __ZN3fmt2v96detail9dragonbox14cache_accessorIfE13compute_deltaERKyi, symObjAddr: 0x104F8, symBinAddr: 0x100013C78, symSize: 0x30 }
  - { offsetInCU: 0x76EDF, offset: 0x76EDF, size: 0x8, addend: 0x0, symName: __ZN3fmt2v96detail9dragonbox14cache_accessorIfE11compute_mulEjRKy, symObjAddr: 0x10528, symBinAddr: 0x100013CA8, symSize: 0x58 }
  - { offsetInCU: 0x76F21, offset: 0x76F21, size: 0x8, addend: 0x0, symName: __ZN3fmt2v96detail9dragonbox14cache_accessorIfE18compute_mul_parityEjRKyi, symObjAddr: 0x105A8, symBinAddr: 0x100013D28, symSize: 0xFC }
  - { offsetInCU: 0x76F72, offset: 0x76F72, size: 0x8, addend: 0x0, symName: __ZN3fmt2v96detail9dragonbox14cache_accessorIfE47compute_left_endpoint_for_shorter_interval_caseERKyi, symObjAddr: 0x107F0, symBinAddr: 0x100013F70, symSize: 0x78 }
  - { offsetInCU: 0x76FA5, offset: 0x76FA5, size: 0x8, addend: 0x0, symName: __ZN3fmt2v96detail9dragonbox14cache_accessorIfE48compute_right_endpoint_for_shorter_interval_caseERKyi, symObjAddr: 0x10868, symBinAddr: 0x100013FE8, symSize: 0x78 }
  - { offsetInCU: 0x76FD8, offset: 0x76FD8, size: 0x8, addend: 0x0, symName: __ZN3fmt2v96detail9dragonbox14cache_accessorIfE42compute_round_up_for_shorter_interval_caseERKyi, symObjAddr: 0x10938, symBinAddr: 0x1000140B8, symSize: 0x58 }
  - { offsetInCU: 0x7700B, offset: 0x7700B, size: 0x8, addend: 0x0, symName: __ZNSt3__114numeric_limitsIjE3maxB7v160006Ev, symObjAddr: 0x10A88, symBinAddr: 0x100014208, symSize: 0x14 }
  - { offsetInCU: 0x7701F, offset: 0x7701F, size: 0x8, addend: 0x0, symName: __ZNSt3__123__libcpp_numeric_limitsIjLb1EE3maxB7v160006Ev, symObjAddr: 0x10A9C, symBinAddr: 0x10001421C, symSize: 0x8 }
  - { offsetInCU: 0x7703E, offset: 0x7703E, size: 0x8, addend: 0x0, symName: __ZZN3fmt2v96detail14do_write_floatINS0_8appenderENS1_9dragonbox10decimal_fpIfEEcNS1_14digit_groupingIcEEEET_S9_RKT0_RKNS0_18basic_format_specsIT1_EENS1_11float_specsENS1_10locale_refEENKUlvE_clEv, symObjAddr: 0x112D8, symBinAddr: 0x100014A58, symSize: 0x110 }
  - { offsetInCU: 0x77091, offset: 0x77091, size: 0x8, addend: 0x0, symName: __ZZN3fmt2v96detail14do_write_floatINS0_8appenderENS1_9dragonbox10decimal_fpIfEEcNS1_14digit_groupingIcEEEET_S9_RKT0_RKNS0_18basic_format_specsIT1_EENS1_11float_specsENS1_10locale_refEENKUlS3_E_clES3_, symObjAddr: 0x11438, symBinAddr: 0x100014BB8, symSize: 0x148 }
  - { offsetInCU: 0x770CA, offset: 0x770CA, size: 0x8, addend: 0x0, symName: __ZNKSt3__18numpunctIcE13decimal_pointB7v160006Ev, symObjAddr: 0x116F0, symBinAddr: 0x100014E70, symSize: 0x30 }
  - { offsetInCU: 0x7711E, offset: 0x7711E, size: 0x8, addend: 0x0, symName: __ZZN3fmt2v96detail14do_write_floatINS0_8appenderENS1_9dragonbox10decimal_fpIfEEcNS1_14digit_groupingIcEEEET_S9_RKT0_RKNS0_18basic_format_specsIT1_EENS1_11float_specsENS1_10locale_refEENKUlS3_E0_clES3_, symObjAddr: 0x1202C, symBinAddr: 0x1000157AC, symSize: 0x168 }
  - { offsetInCU: 0x77182, offset: 0x77182, size: 0x8, addend: 0x0, symName: __ZN3fmt2v919basic_memory_bufferIcLm500ENSt3__19allocatorIcEEEC1ERKS4_, symObjAddr: 0x123CC, symBinAddr: 0x100015B4C, symSize: 0x34 }
  - { offsetInCU: 0x771BB, offset: 0x771BB, size: 0x8, addend: 0x0, symName: __ZN3fmt2v919basic_memory_bufferIcLm500ENSt3__19allocatorIcEEED1Ev, symObjAddr: 0x12400, symBinAddr: 0x100015B80, symSize: 0x2C }
  - { offsetInCU: 0x771E5, offset: 0x771E5, size: 0x8, addend: 0x0, symName: __ZN3fmt2v919basic_memory_bufferIcLm500ENSt3__19allocatorIcEEEC2ERKS4_, symObjAddr: 0x1242C, symBinAddr: 0x100015BAC, symSize: 0x68 }
  - { offsetInCU: 0x7721E, offset: 0x7721E, size: 0x8, addend: 0x0, symName: __ZN3fmt2v919basic_memory_bufferIcLm500ENSt3__19allocatorIcEEE4growEm, symObjAddr: 0x12494, symBinAddr: 0x100015C14, symSize: 0x19C }
  - { offsetInCU: 0x772A0, offset: 0x772A0, size: 0x8, addend: 0x0, symName: __ZN3fmt2v919basic_memory_bufferIcLm500ENSt3__19allocatorIcEEED2Ev, symObjAddr: 0x12630, symBinAddr: 0x100015DB0, symSize: 0x34 }
  - { offsetInCU: 0x772CA, offset: 0x772CA, size: 0x8, addend: 0x0, symName: __ZN3fmt2v919basic_memory_bufferIcLm500ENSt3__19allocatorIcEEE10deallocateEv, symObjAddr: 0x12664, symBinAddr: 0x100015DE4, symSize: 0x78 }
  - { offsetInCU: 0x7730A, offset: 0x7730A, size: 0x8, addend: 0x0, symName: __ZZN3fmt2v96detail14do_write_floatINS0_8appenderENS1_9dragonbox10decimal_fpIfEEcNS1_14digit_groupingIcEEEET_S9_RKT0_RKNS0_18basic_format_specsIT1_EENS1_11float_specsENS1_10locale_refEENKUlS3_E1_clES3_, symObjAddr: 0x128A0, symBinAddr: 0x100016020, symSize: 0x11C }
  - { offsetInCU: 0x7734E, offset: 0x7734E, size: 0x8, addend: 0x0, symName: __ZZN3fmt2v96detail14do_write_floatINS0_8appenderENS1_9dragonbox10decimal_fpIfEEcNS1_14digit_groupingIcEEEET_S9_RKT0_RKNS0_18basic_format_specsIT1_EENS1_11float_specsENS1_10locale_refEENKUlS3_E2_clES3_, symObjAddr: 0x12D6C, symBinAddr: 0x1000164EC, symSize: 0x160 }
  - { offsetInCU: 0x77386, offset: 0x77386, size: 0x8, addend: 0x0, symName: __Z5isnanB7v160006Ua9enable_ifIXLb1EEEd, symObjAddr: 0x13080, symBinAddr: 0x100016800, symSize: 0x20 }
  - { offsetInCU: 0x773C0, offset: 0x773C0, size: 0x8, addend: 0x0, symName: __ZN3fmt2v96detail9dragonbox14cache_accessorIdE13compute_deltaERKNS1_16uint128_fallbackEi, symObjAddr: 0x13F44, symBinAddr: 0x1000176C4, symSize: 0x3C }
  - { offsetInCU: 0x773F3, offset: 0x773F3, size: 0x8, addend: 0x0, symName: __ZN3fmt2v96detail9dragonbox14cache_accessorIdE11compute_mulEyRKNS1_16uint128_fallbackE, symObjAddr: 0x13F80, symBinAddr: 0x100017700, symSize: 0x7C }
  - { offsetInCU: 0x77435, offset: 0x77435, size: 0x8, addend: 0x0, symName: __ZN3fmt2v96detail9dragonbox14cache_accessorIdE18compute_mul_parityEyRKNS1_16uint128_fallbackEi, symObjAddr: 0x14034, symBinAddr: 0x1000177B4, symSize: 0x144 }
  - { offsetInCU: 0x77486, offset: 0x77486, size: 0x8, addend: 0x0, symName: __ZN3fmt2v96detail9dragonbox14cache_accessorIdE47compute_left_endpoint_for_shorter_interval_caseERKNS1_16uint128_fallbackEi, symObjAddr: 0x14238, symBinAddr: 0x1000179B8, symSize: 0x78 }
  - { offsetInCU: 0x774B9, offset: 0x774B9, size: 0x8, addend: 0x0, symName: __ZN3fmt2v96detail9dragonbox14cache_accessorIdE48compute_right_endpoint_for_shorter_interval_caseERKNS1_16uint128_fallbackEi, symObjAddr: 0x142B0, symBinAddr: 0x100017A30, symSize: 0x78 }
  - { offsetInCU: 0x774EC, offset: 0x774EC, size: 0x8, addend: 0x0, symName: __ZN3fmt2v96detail9dragonbox14cache_accessorIdE42compute_round_up_for_shorter_interval_caseERKNS1_16uint128_fallbackEi, symObjAddr: 0x14380, symBinAddr: 0x100017B00, symSize: 0x5C }
  - { offsetInCU: 0x7751F, offset: 0x7751F, size: 0x8, addend: 0x0, symName: __ZNK3fmt2v96detail16uint128_fallback4highEv, symObjAddr: 0x143DC, symBinAddr: 0x100017B5C, symSize: 0x18 }
  - { offsetInCU: 0x77545, offset: 0x77545, size: 0x8, addend: 0x0, symName: __ZNK3fmt2v96detail16uint128_fallback3lowEv, symObjAddr: 0x14470, symBinAddr: 0x100017BF0, symSize: 0x18 }
  - { offsetInCU: 0x7756B, offset: 0x7756B, size: 0x8, addend: 0x0, symName: __ZN3fmt2v96detail16uint128_fallbackpLEy, symObjAddr: 0x14488, symBinAddr: 0x100017C08, symSize: 0x54 }
  - { offsetInCU: 0x775AF, offset: 0x775AF, size: 0x8, addend: 0x0, symName: __ZN3fmt2v96detail16uint128_fallbackC1Eyy, symObjAddr: 0x144DC, symBinAddr: 0x100017C5C, symSize: 0x3C }
  - { offsetInCU: 0x775F7, offset: 0x775F7, size: 0x8, addend: 0x0, symName: __ZN3fmt2v96detail16uint128_fallbackC2Eyy, symObjAddr: 0x14518, symBinAddr: 0x100017C98, symSize: 0x2C }
  - { offsetInCU: 0x7763F, offset: 0x7763F, size: 0x8, addend: 0x0, symName: __ZNSt3__114numeric_limitsIyE3maxB7v160006Ev, symObjAddr: 0x146E8, symBinAddr: 0x100017E68, symSize: 0x14 }
  - { offsetInCU: 0x77653, offset: 0x77653, size: 0x8, addend: 0x0, symName: __ZNSt3__123__libcpp_numeric_limitsIyLb1EE3maxB7v160006Ev, symObjAddr: 0x146FC, symBinAddr: 0x100017E7C, symSize: 0x8 }
  - { offsetInCU: 0x77672, offset: 0x77672, size: 0x8, addend: 0x0, symName: __ZZN3fmt2v96detail14do_write_floatINS0_8appenderENS1_9dragonbox10decimal_fpIdEEcNS1_14digit_groupingIcEEEET_S9_RKT0_RKNS0_18basic_format_specsIT1_EENS1_11float_specsENS1_10locale_refEENKUlvE_clEv, symObjAddr: 0x14F08, symBinAddr: 0x100018688, symSize: 0x110 }
  - { offsetInCU: 0x776C5, offset: 0x776C5, size: 0x8, addend: 0x0, symName: __ZZN3fmt2v96detail14do_write_floatINS0_8appenderENS1_9dragonbox10decimal_fpIdEEcNS1_14digit_groupingIcEEEET_S9_RKT0_RKNS0_18basic_format_specsIT1_EENS1_11float_specsENS1_10locale_refEENKUlS3_E_clES3_, symObjAddr: 0x15068, symBinAddr: 0x1000187E8, symSize: 0x148 }
  - { offsetInCU: 0x7771A, offset: 0x7771A, size: 0x8, addend: 0x0, symName: __ZZN3fmt2v96detail14do_write_floatINS0_8appenderENS1_9dragonbox10decimal_fpIdEEcNS1_14digit_groupingIcEEEET_S9_RKT0_RKNS0_18basic_format_specsIT1_EENS1_11float_specsENS1_10locale_refEENKUlS3_E0_clES3_, symObjAddr: 0x158A0, symBinAddr: 0x100019020, symSize: 0x168 }
  - { offsetInCU: 0x7775E, offset: 0x7775E, size: 0x8, addend: 0x0, symName: __ZZN3fmt2v96detail14do_write_floatINS0_8appenderENS1_9dragonbox10decimal_fpIdEEcNS1_14digit_groupingIcEEEET_S9_RKT0_RKNS0_18basic_format_specsIT1_EENS1_11float_specsENS1_10locale_refEENKUlS3_E1_clES3_, symObjAddr: 0x15E04, symBinAddr: 0x100019584, symSize: 0x11C }
  - { offsetInCU: 0x777A2, offset: 0x777A2, size: 0x8, addend: 0x0, symName: __ZZN3fmt2v96detail14do_write_floatINS0_8appenderENS1_9dragonbox10decimal_fpIdEEcNS1_14digit_groupingIcEEEET_S9_RKT0_RKNS0_18basic_format_specsIT1_EENS1_11float_specsENS1_10locale_refEENKUlS3_E2_clES3_, symObjAddr: 0x162D0, symBinAddr: 0x100019A50, symSize: 0x160 }
  - { offsetInCU: 0x777DB, offset: 0x777DB, size: 0x8, addend: 0x0, symName: __ZN3fmt2v917basic_string_viewIcEC2EPKcm, symObjAddr: 0x1678C, symBinAddr: 0x100019F0C, symSize: 0x2C }
  - { offsetInCU: 0x7782E, offset: 0x7782E, size: 0x8, addend: 0x0, symName: __ZZN3fmt2v96detail9write_ptrIcNS0_8appenderEmEET0_S4_T1_PKNS0_18basic_format_specsIT_EEENKUlS3_E_clES3_, symObjAddr: 0x169E4, symBinAddr: 0x10001A164, symSize: 0xC8 }
  - { offsetInCU: 0x77872, offset: 0x77872, size: 0x8, addend: 0x0, symName: __ZZN3fmt2v96detail12count_digitsILi4EmEEiT0_ENKUlmE_clEm, symObjAddr: 0x16AAC, symBinAddr: 0x10001A22C, symSize: 0x4C }
  - { offsetInCU: 0x778BA, offset: 0x778BA, size: 0x8, addend: 0x0, symName: __ZN3fmt2v917basic_string_viewIcEC1Ev, symObjAddr: 0x16E90, symBinAddr: 0x10001A610, symSize: 0x2C }
  - { offsetInCU: 0x778E4, offset: 0x778E4, size: 0x8, addend: 0x0, symName: __ZN3fmt2v926basic_format_parse_contextIcNS0_6detail13error_handlerEEC1ENS0_17basic_string_viewIcEES3_i, symObjAddr: 0x16EBC, symBinAddr: 0x10001A63C, symSize: 0x44 }
  - { offsetInCU: 0x7793B, offset: 0x7793B, size: 0x8, addend: 0x0, symName: __ZN3fmt2v920basic_format_contextINS0_8appenderEcEC1ES2_NS0_17basic_format_argsIS3_EENS0_6detail10locale_refE, symObjAddr: 0x16F00, symBinAddr: 0x10001A680, symSize: 0x4C }
  - { offsetInCU: 0x77992, offset: 0x77992, size: 0x8, addend: 0x0, symName: __ZNK3fmt2v916basic_format_argINS0_20basic_format_contextINS0_8appenderEcEEE6handle6formatERNS0_26basic_format_parse_contextIcNS0_6detail13error_handlerEEERS4_, symObjAddr: 0x16F4C, symBinAddr: 0x10001A6CC, symSize: 0x3C }
  - { offsetInCU: 0x779D6, offset: 0x779D6, size: 0x8, addend: 0x0, symName: __ZN3fmt2v920basic_format_contextINS0_8appenderEcE3outEv, symObjAddr: 0x16F88, symBinAddr: 0x10001A708, symSize: 0x20 }
  - { offsetInCU: 0x779FC, offset: 0x779FC, size: 0x8, addend: 0x0, symName: __ZN3fmt2v917basic_string_viewIcEC2Ev, symObjAddr: 0x16FA8, symBinAddr: 0x10001A728, symSize: 0x1C }
  - { offsetInCU: 0x77A26, offset: 0x77A26, size: 0x8, addend: 0x0, symName: __ZN3fmt2v926basic_format_parse_contextIcNS0_6detail13error_handlerEEC2ENS0_17basic_string_viewIcEES3_i, symObjAddr: 0x16FC4, symBinAddr: 0x10001A744, symSize: 0x30 }
  - { offsetInCU: 0x77A7D, offset: 0x77A7D, size: 0x8, addend: 0x0, symName: __ZN3fmt2v920basic_format_contextINS0_8appenderEcEC2ES2_NS0_17basic_format_argsIS3_EENS0_6detail10locale_refE, symObjAddr: 0x16FF4, symBinAddr: 0x10001A774, symSize: 0x3C }
  - { offsetInCU: 0x77AD4, offset: 0x77AD4, size: 0x8, addend: 0x0, symName: __ZN3fmt2v916basic_format_argINS0_20basic_format_contextINS0_8appenderEcEEE6handleC2ENS0_6detail12custom_valueIS4_EE, symObjAddr: 0x17030, symBinAddr: 0x10001A7B0, symSize: 0x24 }
  - { offsetInCU: 0x77B0D, offset: 0x77B0D, size: 0x8, addend: 0x0, symName: __ZZN3fmt2v96detail10vformat_toIcEEvRNS1_6bufferIT_EENS0_17basic_string_viewIS4_EENS0_17basic_format_argsINS0_20basic_format_contextINSt3__111conditionalIXsr3std7is_sameINS0_13type_identityIS4_E4typeEcEE5valueENS0_8appenderENSB_20back_insert_iteratorINS3_ISF_EEEEE4typeESF_EEEENS1_10locale_refEEN14format_handler7on_textEPKcSR_, symObjAddr: 0x17088, symBinAddr: 0x10001A808, symSize: 0x90 }
  - { offsetInCU: 0x77BAD, offset: 0x77BAD, size: 0x8, addend: 0x0, symName: __ZZN3fmt2v96detail19parse_format_stringILb0EcZNS1_10vformat_toIcEEvRNS1_6bufferIT_EENS0_17basic_string_viewIS5_EENS0_17basic_format_argsINS0_20basic_format_contextINSt3__111conditionalIXsr3std7is_sameINS0_13type_identityIS5_E4typeEcEE5valueENS0_8appenderENSC_20back_insert_iteratorINS4_ISG_EEEEE4typeESG_EEEENS1_10locale_refEE14format_handlerEEvNS8_IT0_EEOT1_EN6writerclEPKcSX_, symObjAddr: 0x17BDC, symBinAddr: 0x10001B35C, symSize: 0xF8 }
  - { offsetInCU: 0x77C12, offset: 0x77C12, size: 0x8, addend: 0x0, symName: __ZN3fmt2v920basic_format_contextINS0_8appenderEcE10advance_toES2_, symObjAddr: 0x17CD4, symBinAddr: 0x10001B454, symSize: 0x20 }
  - { offsetInCU: 0x77C47, offset: 0x77C47, size: 0x8, addend: 0x0, symName: __ZZN3fmt2v96detail10vformat_toIcEEvRNS1_6bufferIT_EENS0_17basic_string_viewIS4_EENS0_17basic_format_argsINS0_20basic_format_contextINSt3__111conditionalIXsr3std7is_sameINS0_13type_identityIS4_E4typeEcEE5valueENS0_8appenderENSB_20back_insert_iteratorINS3_ISF_EEEEE4typeESF_EEEENS1_10locale_refEEN14format_handler9on_arg_idEv, symObjAddr: 0x17CF4, symBinAddr: 0x10001B474, symSize: 0x28 }
  - { offsetInCU: 0x77F3E, offset: 0x77F3E, size: 0x8, addend: 0x0, symName: __ZZN3fmt2v96detail10vformat_toIcEEvRNS1_6bufferIT_EENS0_17basic_string_viewIS4_EENS0_17basic_format_argsINS0_20basic_format_contextINSt3__111conditionalIXsr3std7is_sameINS0_13type_identityIS4_E4typeEcEE5valueENS0_8appenderENSB_20back_insert_iteratorINS3_ISF_EEEEE4typeESF_EEEENS1_10locale_refEEN14format_handler15on_format_specsEiPKcSR_, symObjAddr: 0x17D1C, symBinAddr: 0x10001B49C, symSize: 0x1074 }
  - { offsetInCU: 0x78434, offset: 0x78434, size: 0x8, addend: 0x0, symName: __ZNK3fmt2v920basic_format_contextINS0_8appenderEcE4argsEv, symObjAddr: 0x18E64, symBinAddr: 0x10001C5E4, symSize: 0x18 }
  - { offsetInCU: 0x7845A, offset: 0x7845A, size: 0x8, addend: 0x0, symName: __ZN3fmt2v920basic_format_contextINS0_8appenderEcE6localeEv, symObjAddr: 0x18E7C, symBinAddr: 0x10001C5FC, symSize: 0x20 }
  - { offsetInCU: 0x78480, offset: 0x78480, size: 0x8, addend: 0x0, symName: __ZNK3fmt2v920basic_format_contextINS0_8appenderEcE3argEi, symObjAddr: 0x18E9C, symBinAddr: 0x10001C61C, symSize: 0x30 }
  - { offsetInCU: 0x784B5, offset: 0x784B5, size: 0x8, addend: 0x0, symName: __ZN3fmt2v920basic_format_contextINS0_8appenderEcE8on_errorEPKc, symObjAddr: 0x18ECC, symBinAddr: 0x10001C64C, symSize: 0x28 }
  - { offsetInCU: 0x784EA, offset: 0x784EA, size: 0x8, addend: 0x0, symName: __ZN3fmt2v920basic_format_contextINS0_8appenderEcE13error_handlerEv, symObjAddr: 0x18EF4, symBinAddr: 0x10001C674, symSize: 0x10 }
  - { offsetInCU: 0x78510, offset: 0x78510, size: 0x8, addend: 0x0, symName: __ZN3fmt2v926basic_format_parse_contextIcNS0_6detail13error_handlerEE11next_arg_idEv, symObjAddr: 0x18F04, symBinAddr: 0x10001C684, symSize: 0x7C }
  - { offsetInCU: 0x78545, offset: 0x78545, size: 0x8, addend: 0x0, symName: __ZN3fmt2v926basic_format_parse_contextIcNS0_6detail13error_handlerEE8on_errorEPKc, symObjAddr: 0x18F80, symBinAddr: 0x10001C700, symSize: 0x20 }
  - { offsetInCU: 0x7857A, offset: 0x7857A, size: 0x8, addend: 0x0, symName: __ZN3fmt2v926basic_format_parse_contextIcNS0_6detail13error_handlerEE15do_check_arg_idEi, symObjAddr: 0x18FA0, symBinAddr: 0x10001C720, symSize: 0x14 }
  - { offsetInCU: 0x785B1, offset: 0x785B1, size: 0x8, addend: 0x0, symName: __ZZN3fmt2v96detail23parse_replacement_fieldIcRZNS1_10vformat_toIcEEvRNS1_6bufferIT_EENS0_17basic_string_viewIS5_EENS0_17basic_format_argsINS0_20basic_format_contextINSt3__111conditionalIXsr3std7is_sameINS0_13type_identityIS5_E4typeEcEE5valueENS0_8appenderENSC_20back_insert_iteratorINS4_ISG_EEEEE4typeESG_EEEENS1_10locale_refEE14format_handlerEEPKS5_ST_ST_OT0_EN10id_adapterclEv, symObjAddr: 0x19234, symBinAddr: 0x10001C9B4, symSize: 0x34 }
  - { offsetInCU: 0x785DB, offset: 0x785DB, size: 0x8, addend: 0x0, symName: __ZZN3fmt2v96detail23parse_replacement_fieldIcRZNS1_10vformat_toIcEEvRNS1_6bufferIT_EENS0_17basic_string_viewIS5_EENS0_17basic_format_argsINS0_20basic_format_contextINSt3__111conditionalIXsr3std7is_sameINS0_13type_identityIS5_E4typeEcEE5valueENS0_8appenderENSC_20back_insert_iteratorINS4_ISG_EEEEE4typeESG_EEEENS1_10locale_refEE14format_handlerEEPKS5_ST_ST_OT0_EN10id_adapter8on_errorEPKc, symObjAddr: 0x19488, symBinAddr: 0x10001CC08, symSize: 0x4C }
  - { offsetInCU: 0x78614, offset: 0x78614, size: 0x8, addend: 0x0, symName: __ZZN3fmt2v96detail23parse_replacement_fieldIcRZNS1_10vformat_toIcEEvRNS1_6bufferIT_EENS0_17basic_string_viewIS5_EENS0_17basic_format_argsINS0_20basic_format_contextINSt3__111conditionalIXsr3std7is_sameINS0_13type_identityIS5_E4typeEcEE5valueENS0_8appenderENSC_20back_insert_iteratorINS4_ISG_EEEEE4typeESG_EEEENS1_10locale_refEE14format_handlerEEPKS5_ST_ST_OT0_EN10id_adapterclEi, symObjAddr: 0x194D4, symBinAddr: 0x10001CC54, symSize: 0x3C }
  - { offsetInCU: 0x7864D, offset: 0x7864D, size: 0x8, addend: 0x0, symName: __ZZN3fmt2v96detail23parse_replacement_fieldIcRZNS1_10vformat_toIcEEvRNS1_6bufferIT_EENS0_17basic_string_viewIS5_EENS0_17basic_format_argsINS0_20basic_format_contextINSt3__111conditionalIXsr3std7is_sameINS0_13type_identityIS5_E4typeEcEE5valueENS0_8appenderENSC_20back_insert_iteratorINS4_ISG_EEEEE4typeESG_EEEENS1_10locale_refEE14format_handlerEEPKS5_ST_ST_OT0_EN10id_adapterclENS8_IcEE, symObjAddr: 0x195A8, symBinAddr: 0x10001CD28, symSize: 0x4C }
  - { offsetInCU: 0x78686, offset: 0x78686, size: 0x8, addend: 0x0, symName: __ZZN3fmt2v96detail10vformat_toIcEEvRNS1_6bufferIT_EENS0_17basic_string_viewIS4_EENS0_17basic_format_argsINS0_20basic_format_contextINSt3__111conditionalIXsr3std7is_sameINS0_13type_identityIS4_E4typeEcEE5valueENS0_8appenderENSB_20back_insert_iteratorINS3_ISF_EEEEE4typeESF_EEEENS1_10locale_refEEN14format_handler9on_arg_idEi, symObjAddr: 0x195F4, symBinAddr: 0x10001CD74, symSize: 0x34 }
  - { offsetInCU: 0x786BF, offset: 0x786BF, size: 0x8, addend: 0x0, symName: __ZN3fmt2v926basic_format_parse_contextIcNS0_6detail13error_handlerEE12check_arg_idEi, symObjAddr: 0x19628, symBinAddr: 0x10001CDA8, symSize: 0x68 }
  - { offsetInCU: 0x786F4, offset: 0x786F4, size: 0x8, addend: 0x0, symName: __ZZN3fmt2v96detail10vformat_toIcEEvRNS1_6bufferIT_EENS0_17basic_string_viewIS4_EENS0_17basic_format_argsINS0_20basic_format_contextINSt3__111conditionalIXsr3std7is_sameINS0_13type_identityIS4_E4typeEcEE5valueENS0_8appenderENSB_20back_insert_iteratorINS3_ISF_EEEEE4typeESF_EEEENS1_10locale_refEEN14format_handler9on_arg_idENS7_IcEE, symObjAddr: 0x19690, symBinAddr: 0x10001CE10, symSize: 0x70 }
  - { offsetInCU: 0x7873C, offset: 0x7873C, size: 0x8, addend: 0x0, symName: __ZN3fmt2v920basic_format_contextINS0_8appenderEcE6arg_idENS0_17basic_string_viewIcEE, symObjAddr: 0x19700, symBinAddr: 0x10001CE80, symSize: 0x40 }
  - { offsetInCU: 0x78771, offset: 0x78771, size: 0x8, addend: 0x0, symName: __ZNK3fmt2v917basic_format_argsINS0_20basic_format_contextINS0_8appenderEcEEE6get_idIcEEiNS0_17basic_string_viewIT_EE, symObjAddr: 0x19740, symBinAddr: 0x10001CEC0, symSize: 0x15C }
  - { offsetInCU: 0x78829, offset: 0x78829, size: 0x8, addend: 0x0, symName: __ZNK3fmt2v917basic_format_argsINS0_20basic_format_contextINS0_8appenderEcEEE14has_named_argsEv, symObjAddr: 0x1989C, symBinAddr: 0x10001D01C, symSize: 0x24 }
  - { offsetInCU: 0x7884F, offset: 0x7884F, size: 0x8, addend: 0x0, symName: __ZNK3fmt2v917basic_string_viewIcE7compareES2_, symObjAddr: 0x19910, symBinAddr: 0x10001D090, symSize: 0xF8 }
  - { offsetInCU: 0x788A2, offset: 0x788A2, size: 0x8, addend: 0x0, symName: __ZNSt3__111char_traitsIcE7compareEPKcS3_m, symObjAddr: 0x19A08, symBinAddr: 0x10001D188, symSize: 0x6C }
  - { offsetInCU: 0x788E1, offset: 0x788E1, size: 0x8, addend: 0x0, symName: __ZNK3fmt2v916basic_format_argINS0_20basic_format_contextINS0_8appenderEcEEE4typeEv, symObjAddr: 0x19AA8, symBinAddr: 0x10001D228, symSize: 0x18 }
  - { offsetInCU: 0x78907, offset: 0x78907, size: 0x8, addend: 0x0, symName: __ZN3fmt2v926basic_format_parse_contextIcNS0_6detail13error_handlerEE10advance_toEPKc, symObjAddr: 0x19AC0, symBinAddr: 0x10001D240, symSize: 0x4C }
  - { offsetInCU: 0x7893C, offset: 0x7893C, size: 0x8, addend: 0x0, symName: __ZNK3fmt2v926basic_format_parse_contextIcNS0_6detail13error_handlerEE5beginEv, symObjAddr: 0x19B0C, symBinAddr: 0x10001D28C, symSize: 0x24 }
  - { offsetInCU: 0x78962, offset: 0x78962, size: 0x8, addend: 0x0, symName: __ZN3fmt2v96detail13specs_handlerIcEC1ERNS0_18basic_format_specsIcEERNS0_26basic_format_parse_contextIcNS1_13error_handlerEEERNS0_20basic_format_contextINS0_8appenderEcEE, symObjAddr: 0x19B30, symBinAddr: 0x10001D2B0, symSize: 0x44 }
  - { offsetInCU: 0x789B9, offset: 0x789B9, size: 0x8, addend: 0x0, symName: __ZN3fmt2v96detail13specs_checkerINS1_13specs_handlerIcEEEC1ERKS4_NS1_4typeE, symObjAddr: 0x19B74, symBinAddr: 0x10001D2F4, symSize: 0x3C }
  - { offsetInCU: 0x78A01, offset: 0x78A01, size: 0x8, addend: 0x0, symName: __ZN3fmt2v917basic_string_viewIcE13remove_prefixEm, symObjAddr: 0x19BB0, symBinAddr: 0x10001D330, symSize: 0x38 }
  - { offsetInCU: 0x78A36, offset: 0x78A36, size: 0x8, addend: 0x0, symName: __ZNK3fmt2v96detail16custom_formatterIcEclIiEEvT_, symObjAddr: 0x19BE8, symBinAddr: 0x10001D368, symSize: 0x14 }
  - { offsetInCU: 0x78A71, offset: 0x78A71, size: 0x8, addend: 0x0, symName: __ZNK3fmt2v96detail16custom_formatterIcEclIjEEvT_, symObjAddr: 0x19BFC, symBinAddr: 0x10001D37C, symSize: 0x14 }
  - { offsetInCU: 0x78AAC, offset: 0x78AAC, size: 0x8, addend: 0x0, symName: __ZNK3fmt2v96detail16custom_formatterIcEclIxEEvT_, symObjAddr: 0x19C10, symBinAddr: 0x10001D390, symSize: 0x14 }
  - { offsetInCU: 0x78AE7, offset: 0x78AE7, size: 0x8, addend: 0x0, symName: __ZNK3fmt2v96detail16custom_formatterIcEclIyEEvT_, symObjAddr: 0x19C24, symBinAddr: 0x10001D3A4, symSize: 0x14 }
  - { offsetInCU: 0x78B22, offset: 0x78B22, size: 0x8, addend: 0x0, symName: __ZNK3fmt2v96detail16custom_formatterIcEclInEEvT_, symObjAddr: 0x19C38, symBinAddr: 0x10001D3B8, symSize: 0x1C }
  - { offsetInCU: 0x78B5D, offset: 0x78B5D, size: 0x8, addend: 0x0, symName: __ZNK3fmt2v96detail16custom_formatterIcEclIoEEvT_, symObjAddr: 0x19C54, symBinAddr: 0x10001D3D4, symSize: 0x1C }
  - { offsetInCU: 0x78B98, offset: 0x78B98, size: 0x8, addend: 0x0, symName: __ZNK3fmt2v96detail16custom_formatterIcEclIbEEvT_, symObjAddr: 0x19C70, symBinAddr: 0x10001D3F0, symSize: 0x18 }
  - { offsetInCU: 0x78BD3, offset: 0x78BD3, size: 0x8, addend: 0x0, symName: __ZNK3fmt2v96detail16custom_formatterIcEclIcEEvT_, symObjAddr: 0x19C88, symBinAddr: 0x10001D408, symSize: 0x14 }
  - { offsetInCU: 0x78C0E, offset: 0x78C0E, size: 0x8, addend: 0x0, symName: __ZNK3fmt2v96detail16custom_formatterIcEclIfEEvT_, symObjAddr: 0x19C9C, symBinAddr: 0x10001D41C, symSize: 0x14 }
  - { offsetInCU: 0x78C49, offset: 0x78C49, size: 0x8, addend: 0x0, symName: __ZNK3fmt2v96detail16custom_formatterIcEclIdEEvT_, symObjAddr: 0x19CB0, symBinAddr: 0x10001D430, symSize: 0x14 }
  - { offsetInCU: 0x78C84, offset: 0x78C84, size: 0x8, addend: 0x0, symName: __ZNK3fmt2v96detail16custom_formatterIcEclIeEEvT_, symObjAddr: 0x19CC4, symBinAddr: 0x10001D444, symSize: 0x14 }
  - { offsetInCU: 0x78CBF, offset: 0x78CBF, size: 0x8, addend: 0x0, symName: __ZNK3fmt2v96detail16custom_formatterIcEclIPKcEEvT_, symObjAddr: 0x19CD8, symBinAddr: 0x10001D458, symSize: 0x14 }
  - { offsetInCU: 0x78CFA, offset: 0x78CFA, size: 0x8, addend: 0x0, symName: __ZNK3fmt2v96detail16custom_formatterIcEclINS0_17basic_string_viewIcEEEEvT_, symObjAddr: 0x19CEC, symBinAddr: 0x10001D46C, symSize: 0x18 }
  - { offsetInCU: 0x78D35, offset: 0x78D35, size: 0x8, addend: 0x0, symName: __ZNK3fmt2v96detail16custom_formatterIcEclIPKvEEvT_, symObjAddr: 0x19D04, symBinAddr: 0x10001D484, symSize: 0x14 }
  - { offsetInCU: 0x78D70, offset: 0x78D70, size: 0x8, addend: 0x0, symName: __ZNK3fmt2v96detail16custom_formatterIcEclENS0_16basic_format_argINS0_20basic_format_contextINS0_8appenderEcEEE6handleE, symObjAddr: 0x19D18, symBinAddr: 0x10001D498, symSize: 0x3C }
  - { offsetInCU: 0x78DA5, offset: 0x78DA5, size: 0x8, addend: 0x0, symName: __ZNK3fmt2v96detail16custom_formatterIcEclINS0_9monostateEEEvT_, symObjAddr: 0x19D54, symBinAddr: 0x10001D4D4, symSize: 0x10 }
  - { offsetInCU: 0x78DE0, offset: 0x78DE0, size: 0x8, addend: 0x0, symName: __ZN3fmt2v96detail13specs_handlerIcEC2ERNS0_18basic_format_specsIcEERNS0_26basic_format_parse_contextIcNS1_13error_handlerEEERNS0_20basic_format_contextINS0_8appenderEcEE, symObjAddr: 0x19D64, symBinAddr: 0x10001D4E4, symSize: 0x4C }
  - { offsetInCU: 0x78E37, offset: 0x78E37, size: 0x8, addend: 0x0, symName: __ZN3fmt2v96detail12specs_setterIcEC2ERNS0_18basic_format_specsIcEE, symObjAddr: 0x19DB0, symBinAddr: 0x10001D530, symSize: 0x20 }
  - { offsetInCU: 0x78E70, offset: 0x78E70, size: 0x8, addend: 0x0, symName: __ZN3fmt2v96detail13specs_checkerINS1_13specs_handlerIcEEEC2ERKS4_NS1_4typeE, symObjAddr: 0x19DD0, symBinAddr: 0x10001D550, symSize: 0x40 }
  - { offsetInCU: 0x78EB8, offset: 0x78EB8, size: 0x8, addend: 0x0, symName: __ZN3fmt2v96detail13specs_handlerIcEC2ERKS3_, symObjAddr: 0x19E10, symBinAddr: 0x10001D590, symSize: 0x40 }
  - { offsetInCU: 0x78EEE, offset: 0x78EEE, size: 0x8, addend: 0x0, symName: __ZN3fmt2v96detail12specs_setterIcEC2ERKS3_, symObjAddr: 0x19E50, symBinAddr: 0x10001D5D0, symSize: 0x24 }
  - { offsetInCU: 0x78F27, offset: 0x78F27, size: 0x8, addend: 0x0, symName: __ZN3fmt2v96detail13specs_handlerIcE8on_errorEPKc, symObjAddr: 0x1A11C, symBinAddr: 0x10001D89C, symSize: 0x30 }
  - { offsetInCU: 0x78F5C, offset: 0x78F5C, size: 0x8, addend: 0x0, symName: __ZN3fmt2v96detail12specs_setterIcE7on_typeENS0_17presentation_typeE, symObjAddr: 0x1A14C, symBinAddr: 0x10001D8CC, symSize: 0x24 }
  - { offsetInCU: 0x78F91, offset: 0x78F91, size: 0x8, addend: 0x0, symName: __ZN3fmt2v96detail13specs_checkerINS1_13specs_handlerIcEEE7on_signENS0_4sign4typeE, symObjAddr: 0x1A3B0, symBinAddr: 0x10001DB30, symSize: 0xC0 }
  - { offsetInCU: 0x78FC6, offset: 0x78FC6, size: 0x8, addend: 0x0, symName: __ZN3fmt2v96detail13specs_checkerINS1_13specs_handlerIcEEE7on_hashEv, symObjAddr: 0x1A470, symBinAddr: 0x10001DBF0, symSize: 0x30 }
  - { offsetInCU: 0x78FEC, offset: 0x78FEC, size: 0x8, addend: 0x0, symName: __ZN3fmt2v96detail13specs_checkerINS1_13specs_handlerIcEEE7on_zeroEv, symObjAddr: 0x1A4A0, symBinAddr: 0x10001DC20, symSize: 0x30 }
  - { offsetInCU: 0x7902A, offset: 0x7902A, size: 0x8, addend: 0x0, symName: __ZN3fmt2v96detail13specs_checkerINS1_13specs_handlerIcEEE12on_localizedEv, symObjAddr: 0x1A920, symBinAddr: 0x10001E0A0, symSize: 0x30 }
  - { offsetInCU: 0x79050, offset: 0x79050, size: 0x8, addend: 0x0, symName: __ZN3fmt2v96detail12specs_setterIcE7on_fillENS0_17basic_string_viewIcEE, symObjAddr: 0x1A994, symBinAddr: 0x10001E114, symSize: 0x44 }
  - { offsetInCU: 0x79085, offset: 0x79085, size: 0x8, addend: 0x0, symName: __ZN3fmt2v96detail13specs_checkerINS1_13specs_handlerIcEEE8on_alignENS0_5align4typeE, symObjAddr: 0x1A9D8, symBinAddr: 0x10001E158, symSize: 0x54 }
  - { offsetInCU: 0x790BA, offset: 0x790BA, size: 0x8, addend: 0x0, symName: __ZN3fmt2v96detail6fill_tIcEaSENS0_17basic_string_viewIcEE, symObjAddr: 0x1AA50, symBinAddr: 0x10001E1D0, symSize: 0xC0 }
  - { offsetInCU: 0x7911B, offset: 0x7911B, size: 0x8, addend: 0x0, symName: __ZN3fmt2v96detail13specs_checkerINS1_13specs_handlerIcEEE24require_numeric_argumentEv, symObjAddr: 0x1AB10, symBinAddr: 0x10001E290, symSize: 0x48 }
  - { offsetInCU: 0x79141, offset: 0x79141, size: 0x8, addend: 0x0, symName: __ZN3fmt2v96detail12specs_setterIcE8on_alignENS0_5align4typeE, symObjAddr: 0x1AB58, symBinAddr: 0x10001E2D8, symSize: 0x38 }
  - { offsetInCU: 0x79176, offset: 0x79176, size: 0x8, addend: 0x0, symName: __ZN3fmt2v96detail12specs_setterIcE7on_signENS0_4sign4typeE, symObjAddr: 0x1AC20, symBinAddr: 0x10001E3A0, symSize: 0x38 }
  - { offsetInCU: 0x791AB, offset: 0x791AB, size: 0x8, addend: 0x0, symName: __ZN3fmt2v96detail12specs_setterIcE7on_hashEv, symObjAddr: 0x1AC58, symBinAddr: 0x10001E3D8, symSize: 0x2C }
  - { offsetInCU: 0x791D1, offset: 0x791D1, size: 0x8, addend: 0x0, symName: __ZN3fmt2v96detail12specs_setterIcE7on_zeroEv, symObjAddr: 0x1AC84, symBinAddr: 0x10001E404, symSize: 0x80 }
  - { offsetInCU: 0x791F7, offset: 0x791F7, size: 0x8, addend: 0x0, symName: __ZN3fmt2v96detail12specs_setterIcE8on_widthEi, symObjAddr: 0x1AD04, symBinAddr: 0x10001E484, symSize: 0x24 }
  - { offsetInCU: 0x7922C, offset: 0x7922C, size: 0x8, addend: 0x0, symName: __ZZN3fmt2v96detail11parse_widthIcRNS1_13specs_checkerINS1_13specs_handlerIcEEEEEEPKT_SA_SA_OT0_EN13width_adapterclEv, symObjAddr: 0x1AFA8, symBinAddr: 0x10001E728, symSize: 0x28 }
  - { offsetInCU: 0x79256, offset: 0x79256, size: 0x8, addend: 0x0, symName: __ZZN3fmt2v96detail11parse_widthIcRNS1_13specs_checkerINS1_13specs_handlerIcEEEEEEPKT_SA_SA_OT0_EN13width_adapter8on_errorEPKc, symObjAddr: 0x1AFD0, symBinAddr: 0x10001E750, symSize: 0x50 }
  - { offsetInCU: 0x7928F, offset: 0x7928F, size: 0x8, addend: 0x0, symName: __ZZN3fmt2v96detail11parse_widthIcRNS1_13specs_checkerINS1_13specs_handlerIcEEEEEEPKT_SA_SA_OT0_EN13width_adapterclEi, symObjAddr: 0x1B020, symBinAddr: 0x10001E7A0, symSize: 0x30 }
  - { offsetInCU: 0x792C8, offset: 0x792C8, size: 0x8, addend: 0x0, symName: __ZZN3fmt2v96detail11parse_widthIcRNS1_13specs_checkerINS1_13specs_handlerIcEEEEEEPKT_SA_SA_OT0_EN13width_adapterclENS0_17basic_string_viewIcEE, symObjAddr: 0x1B050, symBinAddr: 0x10001E7D0, symSize: 0x40 }
  - { offsetInCU: 0x79301, offset: 0x79301, size: 0x8, addend: 0x0, symName: __ZN3fmt2v96detail13specs_handlerIcE16on_dynamic_widthIiEEvT_, symObjAddr: 0x1B090, symBinAddr: 0x10001E810, symSize: 0x8C }
  - { offsetInCU: 0x79345, offset: 0x79345, size: 0x8, addend: 0x0, symName: __ZN3fmt2v96detail13specs_handlerIcE7get_argEi, symObjAddr: 0x1B444, symBinAddr: 0x10001EBC4, symSize: 0x4C }
  - { offsetInCU: 0x7937A, offset: 0x7937A, size: 0x8, addend: 0x0, symName: __ZN3fmt2v96detail13width_checkerINS1_13error_handlerEEC1ERS3_, symObjAddr: 0x1B490, symBinAddr: 0x10001EC10, symSize: 0x34 }
  - { offsetInCU: 0x793B3, offset: 0x793B3, size: 0x8, addend: 0x0, symName: __ZN3fmt2v96detail13width_checkerINS1_13error_handlerEEclIiLi0EEEyT_, symObjAddr: 0x1B4C4, symBinAddr: 0x10001EC44, symSize: 0x50 }
  - { offsetInCU: 0x793F7, offset: 0x793F7, size: 0x8, addend: 0x0, symName: __ZN3fmt2v96detail13width_checkerINS1_13error_handlerEEclIjLi0EEEyT_, symObjAddr: 0x1B514, symBinAddr: 0x10001EC94, symSize: 0x54 }
  - { offsetInCU: 0x7943B, offset: 0x7943B, size: 0x8, addend: 0x0, symName: __ZN3fmt2v96detail13width_checkerINS1_13error_handlerEEclIxLi0EEEyT_, symObjAddr: 0x1B568, symBinAddr: 0x10001ECE8, symSize: 0x50 }
  - { offsetInCU: 0x7947F, offset: 0x7947F, size: 0x8, addend: 0x0, symName: __ZN3fmt2v96detail13width_checkerINS1_13error_handlerEEclIyLi0EEEyT_, symObjAddr: 0x1B5B8, symBinAddr: 0x10001ED38, symSize: 0x50 }
  - { offsetInCU: 0x794C3, offset: 0x794C3, size: 0x8, addend: 0x0, symName: __ZN3fmt2v96detail13width_checkerINS1_13error_handlerEEclInLi0EEEyT_, symObjAddr: 0x1B608, symBinAddr: 0x10001ED88, symSize: 0x6C }
  - { offsetInCU: 0x79507, offset: 0x79507, size: 0x8, addend: 0x0, symName: __ZN3fmt2v96detail13width_checkerINS1_13error_handlerEEclIoLi0EEEyT_, symObjAddr: 0x1B674, symBinAddr: 0x10001EDF4, symSize: 0x6C }
  - { offsetInCU: 0x7954B, offset: 0x7954B, size: 0x8, addend: 0x0, symName: __ZN3fmt2v96detail13width_checkerINS1_13error_handlerEEclIbLi0EEEyT_, symObjAddr: 0x1B6E0, symBinAddr: 0x10001EE60, symSize: 0x2C }
  - { offsetInCU: 0x7958C, offset: 0x7958C, size: 0x8, addend: 0x0, symName: __ZN3fmt2v96detail13width_checkerINS1_13error_handlerEEclIcLi0EEEyT_, symObjAddr: 0x1B70C, symBinAddr: 0x10001EE8C, symSize: 0x28 }
  - { offsetInCU: 0x795CD, offset: 0x795CD, size: 0x8, addend: 0x0, symName: __ZN3fmt2v96detail13width_checkerINS1_13error_handlerEEclIfLi0EEEyT_, symObjAddr: 0x1B734, symBinAddr: 0x10001EEB4, symSize: 0x28 }
  - { offsetInCU: 0x7960E, offset: 0x7960E, size: 0x8, addend: 0x0, symName: __ZN3fmt2v96detail13width_checkerINS1_13error_handlerEEclIdLi0EEEyT_, symObjAddr: 0x1B75C, symBinAddr: 0x10001EEDC, symSize: 0x28 }
  - { offsetInCU: 0x7964F, offset: 0x7964F, size: 0x8, addend: 0x0, symName: __ZN3fmt2v96detail13width_checkerINS1_13error_handlerEEclIeLi0EEEyT_, symObjAddr: 0x1B784, symBinAddr: 0x10001EF04, symSize: 0x28 }
  - { offsetInCU: 0x79690, offset: 0x79690, size: 0x8, addend: 0x0, symName: __ZN3fmt2v96detail13width_checkerINS1_13error_handlerEEclIPKcLi0EEEyT_, symObjAddr: 0x1B7AC, symBinAddr: 0x10001EF2C, symSize: 0x28 }
  - { offsetInCU: 0x796D1, offset: 0x796D1, size: 0x8, addend: 0x0, symName: __ZN3fmt2v96detail13width_checkerINS1_13error_handlerEEclINS0_17basic_string_viewIcEELi0EEEyT_, symObjAddr: 0x1B7D4, symBinAddr: 0x10001EF54, symSize: 0x2C }
  - { offsetInCU: 0x79712, offset: 0x79712, size: 0x8, addend: 0x0, symName: __ZN3fmt2v96detail13width_checkerINS1_13error_handlerEEclIPKvLi0EEEyT_, symObjAddr: 0x1B800, symBinAddr: 0x10001EF80, symSize: 0x28 }
  - { offsetInCU: 0x79753, offset: 0x79753, size: 0x8, addend: 0x0, symName: __ZN3fmt2v96detail13width_checkerINS1_13error_handlerEEclINS0_16basic_format_argINS0_20basic_format_contextINS0_8appenderEcEEE6handleELi0EEEyT_, symObjAddr: 0x1B828, symBinAddr: 0x10001EFA8, symSize: 0x2C }
  - { offsetInCU: 0x79794, offset: 0x79794, size: 0x8, addend: 0x0, symName: __ZN3fmt2v96detail13width_checkerINS1_13error_handlerEEclINS0_9monostateELi0EEEyT_, symObjAddr: 0x1B854, symBinAddr: 0x10001EFD4, symSize: 0x24 }
  - { offsetInCU: 0x797D5, offset: 0x797D5, size: 0x8, addend: 0x0, symName: __ZN3fmt2v96detail13width_checkerINS1_13error_handlerEEC2ERS3_, symObjAddr: 0x1B878, symBinAddr: 0x10001EFF8, symSize: 0x20 }
  - { offsetInCU: 0x7980E, offset: 0x7980E, size: 0x8, addend: 0x0, symName: __ZN3fmt2v96detail13specs_handlerIcE16on_dynamic_widthINS0_17basic_string_viewIcEEEEvT_, symObjAddr: 0x1B898, symBinAddr: 0x10001F018, symSize: 0x9C }
  - { offsetInCU: 0x7984D, offset: 0x7984D, size: 0x8, addend: 0x0, symName: __ZN3fmt2v96detail13specs_handlerIcE7get_argENS0_17basic_string_viewIcEE, symObjAddr: 0x1B934, symBinAddr: 0x10001F0B4, symSize: 0x68 }
  - { offsetInCU: 0x79882, offset: 0x79882, size: 0x8, addend: 0x0, symName: __ZN3fmt2v926basic_format_parse_contextIcNS0_6detail13error_handlerEE12check_arg_idENS0_17basic_string_viewIcEE, symObjAddr: 0x1B99C, symBinAddr: 0x10001F11C, symSize: 0x18 }
  - { offsetInCU: 0x798B4, offset: 0x798B4, size: 0x8, addend: 0x0, symName: __ZN3fmt2v920basic_format_contextINS0_8appenderEcE3argENS0_17basic_string_viewIcEE, symObjAddr: 0x1BA18, symBinAddr: 0x10001F198, symSize: 0x40 }
  - { offsetInCU: 0x798E9, offset: 0x798E9, size: 0x8, addend: 0x0, symName: __ZNK3fmt2v917basic_format_argsINS0_20basic_format_contextINS0_8appenderEcEEE3getIcEENS0_16basic_format_argIS4_EENS0_17basic_string_viewIT_EE, symObjAddr: 0x1BA58, symBinAddr: 0x10001F1D8, symSize: 0x7C }
  - { offsetInCU: 0x79936, offset: 0x79936, size: 0x8, addend: 0x0, symName: __ZN3fmt2v96detail13specs_handlerIcE16on_dynamic_widthINS1_7auto_idEEEvT_, symObjAddr: 0x1BAD4, symBinAddr: 0x10001F254, symSize: 0x84 }
  - { offsetInCU: 0x79974, offset: 0x79974, size: 0x8, addend: 0x0, symName: __ZN3fmt2v96detail13specs_handlerIcE7get_argENS1_7auto_idE, symObjAddr: 0x1BB58, symBinAddr: 0x10001F2D8, symSize: 0x44 }
  - { offsetInCU: 0x799A6, offset: 0x799A6, size: 0x8, addend: 0x0, symName: __ZN3fmt2v96detail12specs_setterIcE12on_precisionEi, symObjAddr: 0x1BB9C, symBinAddr: 0x10001F31C, symSize: 0x24 }
  - { offsetInCU: 0x799DB, offset: 0x799DB, size: 0x8, addend: 0x0, symName: __ZN3fmt2v96detail13specs_checkerINS1_13specs_handlerIcEEE13end_precisionEv, symObjAddr: 0x1BBC0, symBinAddr: 0x10001F340, symSize: 0x60 }
  - { offsetInCU: 0x79A01, offset: 0x79A01, size: 0x8, addend: 0x0, symName: __ZZN3fmt2v96detail15parse_precisionIcRNS1_13specs_checkerINS1_13specs_handlerIcEEEEEEPKT_SA_SA_OT0_EN17precision_adapterclEv, symObjAddr: 0x1BEA0, symBinAddr: 0x10001F620, symSize: 0x28 }
  - { offsetInCU: 0x79A2B, offset: 0x79A2B, size: 0x8, addend: 0x0, symName: __ZZN3fmt2v96detail15parse_precisionIcRNS1_13specs_checkerINS1_13specs_handlerIcEEEEEEPKT_SA_SA_OT0_EN17precision_adapter8on_errorEPKc, symObjAddr: 0x1BEC8, symBinAddr: 0x10001F648, symSize: 0x50 }
  - { offsetInCU: 0x79A64, offset: 0x79A64, size: 0x8, addend: 0x0, symName: __ZZN3fmt2v96detail15parse_precisionIcRNS1_13specs_checkerINS1_13specs_handlerIcEEEEEEPKT_SA_SA_OT0_EN17precision_adapterclEi, symObjAddr: 0x1BF18, symBinAddr: 0x10001F698, symSize: 0x30 }
  - { offsetInCU: 0x79A9D, offset: 0x79A9D, size: 0x8, addend: 0x0, symName: __ZZN3fmt2v96detail15parse_precisionIcRNS1_13specs_checkerINS1_13specs_handlerIcEEEEEEPKT_SA_SA_OT0_EN17precision_adapterclENS0_17basic_string_viewIcEE, symObjAddr: 0x1BF48, symBinAddr: 0x10001F6C8, symSize: 0x40 }
  - { offsetInCU: 0x79AD6, offset: 0x79AD6, size: 0x8, addend: 0x0, symName: __ZN3fmt2v96detail13specs_handlerIcE20on_dynamic_precisionIiEEvT_, symObjAddr: 0x1BF88, symBinAddr: 0x10001F708, symSize: 0x8C }
  - { offsetInCU: 0x79B1A, offset: 0x79B1A, size: 0x8, addend: 0x0, symName: __ZN3fmt2v96detail17precision_checkerINS1_13error_handlerEEC1ERS3_, symObjAddr: 0x1C33C, symBinAddr: 0x10001FABC, symSize: 0x34 }
  - { offsetInCU: 0x79B53, offset: 0x79B53, size: 0x8, addend: 0x0, symName: __ZN3fmt2v96detail17precision_checkerINS1_13error_handlerEEclIiLi0EEEyT_, symObjAddr: 0x1C370, symBinAddr: 0x10001FAF0, symSize: 0x50 }
  - { offsetInCU: 0x79B97, offset: 0x79B97, size: 0x8, addend: 0x0, symName: __ZN3fmt2v96detail17precision_checkerINS1_13error_handlerEEclIjLi0EEEyT_, symObjAddr: 0x1C3C0, symBinAddr: 0x10001FB40, symSize: 0x54 }
  - { offsetInCU: 0x79BDB, offset: 0x79BDB, size: 0x8, addend: 0x0, symName: __ZN3fmt2v96detail17precision_checkerINS1_13error_handlerEEclIxLi0EEEyT_, symObjAddr: 0x1C414, symBinAddr: 0x10001FB94, symSize: 0x50 }
  - { offsetInCU: 0x79C1F, offset: 0x79C1F, size: 0x8, addend: 0x0, symName: __ZN3fmt2v96detail17precision_checkerINS1_13error_handlerEEclIyLi0EEEyT_, symObjAddr: 0x1C464, symBinAddr: 0x10001FBE4, symSize: 0x50 }
  - { offsetInCU: 0x79C63, offset: 0x79C63, size: 0x8, addend: 0x0, symName: __ZN3fmt2v96detail17precision_checkerINS1_13error_handlerEEclInLi0EEEyT_, symObjAddr: 0x1C4B4, symBinAddr: 0x10001FC34, symSize: 0x6C }
  - { offsetInCU: 0x79CA7, offset: 0x79CA7, size: 0x8, addend: 0x0, symName: __ZN3fmt2v96detail17precision_checkerINS1_13error_handlerEEclIoLi0EEEyT_, symObjAddr: 0x1C520, symBinAddr: 0x10001FCA0, symSize: 0x6C }
  - { offsetInCU: 0x79CEB, offset: 0x79CEB, size: 0x8, addend: 0x0, symName: __ZN3fmt2v96detail17precision_checkerINS1_13error_handlerEEclIbLi0EEEyT_, symObjAddr: 0x1C58C, symBinAddr: 0x10001FD0C, symSize: 0x2C }
  - { offsetInCU: 0x79D2C, offset: 0x79D2C, size: 0x8, addend: 0x0, symName: __ZN3fmt2v96detail17precision_checkerINS1_13error_handlerEEclIcLi0EEEyT_, symObjAddr: 0x1C5B8, symBinAddr: 0x10001FD38, symSize: 0x28 }
  - { offsetInCU: 0x79D6D, offset: 0x79D6D, size: 0x8, addend: 0x0, symName: __ZN3fmt2v96detail17precision_checkerINS1_13error_handlerEEclIfLi0EEEyT_, symObjAddr: 0x1C5E0, symBinAddr: 0x10001FD60, symSize: 0x28 }
  - { offsetInCU: 0x79DAE, offset: 0x79DAE, size: 0x8, addend: 0x0, symName: __ZN3fmt2v96detail17precision_checkerINS1_13error_handlerEEclIdLi0EEEyT_, symObjAddr: 0x1C608, symBinAddr: 0x10001FD88, symSize: 0x28 }
  - { offsetInCU: 0x79DEF, offset: 0x79DEF, size: 0x8, addend: 0x0, symName: __ZN3fmt2v96detail17precision_checkerINS1_13error_handlerEEclIeLi0EEEyT_, symObjAddr: 0x1C630, symBinAddr: 0x10001FDB0, symSize: 0x28 }
  - { offsetInCU: 0x79E30, offset: 0x79E30, size: 0x8, addend: 0x0, symName: __ZN3fmt2v96detail17precision_checkerINS1_13error_handlerEEclIPKcLi0EEEyT_, symObjAddr: 0x1C658, symBinAddr: 0x10001FDD8, symSize: 0x28 }
  - { offsetInCU: 0x79E71, offset: 0x79E71, size: 0x8, addend: 0x0, symName: __ZN3fmt2v96detail17precision_checkerINS1_13error_handlerEEclINS0_17basic_string_viewIcEELi0EEEyT_, symObjAddr: 0x1C680, symBinAddr: 0x10001FE00, symSize: 0x2C }
  - { offsetInCU: 0x79EB2, offset: 0x79EB2, size: 0x8, addend: 0x0, symName: __ZN3fmt2v96detail17precision_checkerINS1_13error_handlerEEclIPKvLi0EEEyT_, symObjAddr: 0x1C6AC, symBinAddr: 0x10001FE2C, symSize: 0x28 }
  - { offsetInCU: 0x79EF3, offset: 0x79EF3, size: 0x8, addend: 0x0, symName: __ZN3fmt2v96detail17precision_checkerINS1_13error_handlerEEclINS0_16basic_format_argINS0_20basic_format_contextINS0_8appenderEcEEE6handleELi0EEEyT_, symObjAddr: 0x1C6D4, symBinAddr: 0x10001FE54, symSize: 0x2C }
  - { offsetInCU: 0x79F34, offset: 0x79F34, size: 0x8, addend: 0x0, symName: __ZN3fmt2v96detail17precision_checkerINS1_13error_handlerEEclINS0_9monostateELi0EEEyT_, symObjAddr: 0x1C700, symBinAddr: 0x10001FE80, symSize: 0x24 }
  - { offsetInCU: 0x79F75, offset: 0x79F75, size: 0x8, addend: 0x0, symName: __ZN3fmt2v96detail17precision_checkerINS1_13error_handlerEEC2ERS3_, symObjAddr: 0x1C724, symBinAddr: 0x10001FEA4, symSize: 0x20 }
  - { offsetInCU: 0x79FAE, offset: 0x79FAE, size: 0x8, addend: 0x0, symName: __ZN3fmt2v96detail13specs_handlerIcE20on_dynamic_precisionINS0_17basic_string_viewIcEEEEvT_, symObjAddr: 0x1C744, symBinAddr: 0x10001FEC4, symSize: 0x9C }
  - { offsetInCU: 0x79FED, offset: 0x79FED, size: 0x8, addend: 0x0, symName: __ZN3fmt2v96detail13specs_handlerIcE20on_dynamic_precisionINS1_7auto_idEEEvT_, symObjAddr: 0x1C7E0, symBinAddr: 0x10001FF60, symSize: 0x84 }
  - { offsetInCU: 0x7A02B, offset: 0x7A02B, size: 0x8, addend: 0x0, symName: __ZN3fmt2v96detail12specs_setterIcE12on_localizedEv, symObjAddr: 0x1C864, symBinAddr: 0x10001FFE4, symSize: 0x2C }
  - { offsetInCU: 0x7A051, offset: 0x7A051, size: 0x8, addend: 0x0, symName: __ZN3fmt2v96detail13arg_formatterIcEclENS0_16basic_format_argINS0_20basic_format_contextINS0_8appenderEcEEE6handleE, symObjAddr: 0x1C890, symBinAddr: 0x100020010, symSize: 0x28 }
  - { offsetInCU: 0x7A0AF, offset: 0x7A0AF, size: 0x8, addend: 0x0, symName: __ZZN3fmt2v96detail9write_intIcNS0_8appenderEyEET0_S4_NS1_13write_int_argIT1_EERKNS0_18basic_format_specsIT_EENS1_10locale_refEENKUlS3_E_clES3_, symObjAddr: 0x1D484, symBinAddr: 0x100020C04, symSize: 0x50 }
  - { offsetInCU: 0x7A0F3, offset: 0x7A0F3, size: 0x8, addend: 0x0, symName: __ZZN3fmt2v96detail9write_intINS0_8appenderEcZNS1_9write_intIcS3_yEET0_S5_NS1_13write_int_argIT1_EERKNS0_18basic_format_specsIT_EENS1_10locale_refEEUlS3_E_EESA_SA_ijRKNS9_IS5_EES7_ENKUlS3_E_clES3_, symObjAddr: 0x1D6E8, symBinAddr: 0x100020E68, symSize: 0xE4 }
  - { offsetInCU: 0x7A154, offset: 0x7A154, size: 0x8, addend: 0x0, symName: __ZZN3fmt2v96detail12count_digitsILi4EyEEiT0_ENKUlyE_clEy, symObjAddr: 0x1D7CC, symBinAddr: 0x100020F4C, symSize: 0x4C }
  - { offsetInCU: 0x7A19C, offset: 0x7A19C, size: 0x8, addend: 0x0, symName: __ZZN3fmt2v96detail9write_intIcNS0_8appenderEyEET0_S4_NS1_13write_int_argIT1_EERKNS0_18basic_format_specsIT_EENS1_10locale_refEENKUlS3_E0_clES3_, symObjAddr: 0x1D818, symBinAddr: 0x100020F98, symSize: 0x4C }
  - { offsetInCU: 0x7A1E0, offset: 0x7A1E0, size: 0x8, addend: 0x0, symName: __ZZN3fmt2v96detail9write_intINS0_8appenderEcZNS1_9write_intIcS3_yEET0_S5_NS1_13write_int_argIT1_EERKNS0_18basic_format_specsIT_EENS1_10locale_refEEUlS3_E0_EESA_SA_ijRKNS9_IS5_EES7_ENKUlS3_E_clES3_, symObjAddr: 0x1DC4C, symBinAddr: 0x1000213CC, symSize: 0xE4 }
  - { offsetInCU: 0x7A241, offset: 0x7A241, size: 0x8, addend: 0x0, symName: __ZZN3fmt2v96detail12count_digitsILi1EyEEiT0_ENKUlyE_clEy, symObjAddr: 0x1DD30, symBinAddr: 0x1000214B0, symSize: 0x4C }
  - { offsetInCU: 0x7A289, offset: 0x7A289, size: 0x8, addend: 0x0, symName: __ZZN3fmt2v96detail9write_intIcNS0_8appenderEyEET0_S4_NS1_13write_int_argIT1_EERKNS0_18basic_format_specsIT_EENS1_10locale_refEENKUlS3_E1_clES3_, symObjAddr: 0x1DD7C, symBinAddr: 0x1000214FC, symSize: 0x4C }
  - { offsetInCU: 0x7A2CD, offset: 0x7A2CD, size: 0x8, addend: 0x0, symName: __ZZN3fmt2v96detail9write_intINS0_8appenderEcZNS1_9write_intIcS3_yEET0_S5_NS1_13write_int_argIT1_EERKNS0_18basic_format_specsIT_EENS1_10locale_refEEUlS3_E1_EESA_SA_ijRKNS9_IS5_EES7_ENKUlS3_E_clES3_, symObjAddr: 0x1E1A4, symBinAddr: 0x100021924, symSize: 0xE4 }
  - { offsetInCU: 0x7A32E, offset: 0x7A32E, size: 0x8, addend: 0x0, symName: __ZZN3fmt2v96detail12count_digitsILi3EyEEiT0_ENKUlyE_clEy, symObjAddr: 0x1E288, symBinAddr: 0x100021A08, symSize: 0x4C }
  - { offsetInCU: 0x7A376, offset: 0x7A376, size: 0x8, addend: 0x0, symName: __ZZN3fmt2v96detail9write_intIcNS0_8appenderEyEET0_S4_NS1_13write_int_argIT1_EERKNS0_18basic_format_specsIT_EENS1_10locale_refEENKUlS3_E2_clES3_, symObjAddr: 0x1E2D4, symBinAddr: 0x100021A54, symSize: 0x4C }
  - { offsetInCU: 0x7A3BA, offset: 0x7A3BA, size: 0x8, addend: 0x0, symName: __ZZN3fmt2v96detail9write_intINS0_8appenderEcZNS1_9write_intIcS3_yEET0_S5_NS1_13write_int_argIT1_EERKNS0_18basic_format_specsIT_EENS1_10locale_refEEUlS3_E2_EESA_SA_ijRKNS9_IS5_EES7_ENKUlS3_E_clES3_, symObjAddr: 0x1E6FC, symBinAddr: 0x100021E7C, symSize: 0xE4 }
  - { offsetInCU: 0x7A447, offset: 0x7A447, size: 0x8, addend: 0x0, symName: __ZZN3fmt2v96detail19write_int_localizedINS0_8appenderEocEET_S4_T0_jRKNS0_18basic_format_specsIT1_EERKNS1_14digit_groupingIS7_EEENKUlS3_E_clES3_, symObjAddr: 0x1F8D8, symBinAddr: 0x100023058, symSize: 0xE0 }
  - { offsetInCU: 0x7A49D, offset: 0x7A49D, size: 0x8, addend: 0x0, symName: __ZZN3fmt2v96detail9write_intIcNS0_8appenderEoEET0_S4_NS1_13write_int_argIT1_EERKNS0_18basic_format_specsIT_EENS1_10locale_refEENKUlS3_E_clES3_, symObjAddr: 0x1F9B8, symBinAddr: 0x100023138, symSize: 0x60 }
  - { offsetInCU: 0x7A4E1, offset: 0x7A4E1, size: 0x8, addend: 0x0, symName: __ZZN3fmt2v96detail9write_intINS0_8appenderEcZNS1_9write_intIcS3_oEET0_S5_NS1_13write_int_argIT1_EERKNS0_18basic_format_specsIT_EENS1_10locale_refEEUlS3_E_EESA_SA_ijRKNS9_IS5_EES7_ENKUlS3_E_clES3_, symObjAddr: 0x1FC2C, symBinAddr: 0x1000233AC, symSize: 0xE4 }
  - { offsetInCU: 0x7A542, offset: 0x7A542, size: 0x8, addend: 0x0, symName: __ZZN3fmt2v96detail12count_digitsILi4EoEEiT0_ENKUloE_clEo, symObjAddr: 0x1FD10, symBinAddr: 0x100023490, symSize: 0x88 }
  - { offsetInCU: 0x7A58A, offset: 0x7A58A, size: 0x8, addend: 0x0, symName: __ZZN3fmt2v96detail9write_intIcNS0_8appenderEoEET0_S4_NS1_13write_int_argIT1_EERKNS0_18basic_format_specsIT_EENS1_10locale_refEENKUlS3_E0_clES3_, symObjAddr: 0x1FD98, symBinAddr: 0x100023518, symSize: 0x5C }
  - { offsetInCU: 0x7A5CE, offset: 0x7A5CE, size: 0x8, addend: 0x0, symName: __ZZN3fmt2v96detail9write_intINS0_8appenderEcZNS1_9write_intIcS3_oEET0_S5_NS1_13write_int_argIT1_EERKNS0_18basic_format_specsIT_EENS1_10locale_refEEUlS3_E0_EESA_SA_ijRKNS9_IS5_EES7_ENKUlS3_E_clES3_, symObjAddr: 0x2024C, symBinAddr: 0x1000239CC, symSize: 0xE4 }
  - { offsetInCU: 0x7A62F, offset: 0x7A62F, size: 0x8, addend: 0x0, symName: __ZZN3fmt2v96detail12count_digitsILi1EoEEiT0_ENKUloE_clEo, symObjAddr: 0x20330, symBinAddr: 0x100023AB0, symSize: 0x88 }
  - { offsetInCU: 0x7A677, offset: 0x7A677, size: 0x8, addend: 0x0, symName: __ZZN3fmt2v96detail9write_intIcNS0_8appenderEoEET0_S4_NS1_13write_int_argIT1_EERKNS0_18basic_format_specsIT_EENS1_10locale_refEENKUlS3_E1_clES3_, symObjAddr: 0x203B8, symBinAddr: 0x100023B38, symSize: 0x5C }
  - { offsetInCU: 0x7A6BB, offset: 0x7A6BB, size: 0x8, addend: 0x0, symName: __ZZN3fmt2v96detail9write_intINS0_8appenderEcZNS1_9write_intIcS3_oEET0_S5_NS1_13write_int_argIT1_EERKNS0_18basic_format_specsIT_EENS1_10locale_refEEUlS3_E1_EESA_SA_ijRKNS9_IS5_EES7_ENKUlS3_E_clES3_, symObjAddr: 0x20868, symBinAddr: 0x100023FE8, symSize: 0xE4 }
  - { offsetInCU: 0x7A71C, offset: 0x7A71C, size: 0x8, addend: 0x0, symName: __ZZN3fmt2v96detail12count_digitsILi3EoEEiT0_ENKUloE_clEo, symObjAddr: 0x2094C, symBinAddr: 0x1000240CC, symSize: 0x88 }
  - { offsetInCU: 0x7A764, offset: 0x7A764, size: 0x8, addend: 0x0, symName: __ZZN3fmt2v96detail9write_intIcNS0_8appenderEoEET0_S4_NS1_13write_int_argIT1_EERKNS0_18basic_format_specsIT_EENS1_10locale_refEENKUlS3_E2_clES3_, symObjAddr: 0x209D4, symBinAddr: 0x100024154, symSize: 0x5C }
  - { offsetInCU: 0x7A7A8, offset: 0x7A7A8, size: 0x8, addend: 0x0, symName: __ZZN3fmt2v96detail9write_intINS0_8appenderEcZNS1_9write_intIcS3_oEET0_S5_NS1_13write_int_argIT1_EERKNS0_18basic_format_specsIT_EENS1_10locale_refEEUlS3_E2_EESA_SA_ijRKNS9_IS5_EES7_ENKUlS3_E_clES3_, symObjAddr: 0x20E7C, symBinAddr: 0x1000245FC, symSize: 0xE4 }
  - { offsetInCU: 0x7A819, offset: 0x7A819, size: 0x8, addend: 0x0, symName: __Z8isfiniteB7v160006IfLi0EEbT_, symObjAddr: 0x2284C, symBinAddr: 0x100025FCC, symSize: 0x34 }
  - { offsetInCU: 0x7A862, offset: 0x7A862, size: 0x8, addend: 0x0, symName: __ZZN3fmt2v96detail11write_bytesILNS0_5align4typeE2EcNS0_8appenderEEET1_S6_NS0_17basic_string_viewIcEERKNS0_18basic_format_specsIT0_EEENKUlS5_E_clES5_, symObjAddr: 0x22A94, symBinAddr: 0x100026214, symSize: 0x74 }
  - { offsetInCU: 0x7A8AA, offset: 0x7A8AA, size: 0x8, addend: 0x0, symName: __ZN3fmt2v96detail8basic_fpIyEC1IdEET_, symObjAddr: 0x22C00, symBinAddr: 0x100026380, symSize: 0x34 }
  - { offsetInCU: 0x7A8F2, offset: 0x7A8F2, size: 0x8, addend: 0x0, symName: __ZN3fmt2v96detail8basic_fpIoEC1Ev, symObjAddr: 0x22D58, symBinAddr: 0x1000264D8, symSize: 0x2C }
  - { offsetInCU: 0x7A91C, offset: 0x7A91C, size: 0x8, addend: 0x0, symName: __ZN3fmt2v96detail8basic_fpIoE6assignIfLi0EEEbT_, symObjAddr: 0x22D84, symBinAddr: 0x100026504, symSize: 0x124 }
  - { offsetInCU: 0x7A9C6, offset: 0x7A9C6, size: 0x8, addend: 0x0, symName: __ZN3fmt2v96detail8basic_fpIoE6assignIdLi0EEEbT_, symObjAddr: 0x22EA8, symBinAddr: 0x100026628, symSize: 0x128 }
  - { offsetInCU: 0x7AA70, offset: 0x7AA70, size: 0x8, addend: 0x0, symName: __ZN3fmt2v96detail6bufferIcEixImEERcT_, symObjAddr: 0x23AAC, symBinAddr: 0x10002722C, symSize: 0x24 }
  - { offsetInCU: 0x7AAAE, offset: 0x7AAAE, size: 0x8, addend: 0x0, symName: __ZN3fmt2v96detail8basic_fpIyEC2IdEET_, symObjAddr: 0x23AD0, symBinAddr: 0x100027250, symSize: 0x34 }
  - { offsetInCU: 0x7AAF0, offset: 0x7AAF0, size: 0x8, addend: 0x0, symName: __ZN3fmt2v96detail8basic_fpIyE6assignIdLi0EEEbT_, symObjAddr: 0x23B04, symBinAddr: 0x100027284, symSize: 0x11C }
  - { offsetInCU: 0x7AB9A, offset: 0x7AB9A, size: 0x8, addend: 0x0, symName: __ZN3fmt2v96detail8basic_fpIyEC1Eyi, symObjAddr: 0x23C20, symBinAddr: 0x1000273A0, symSize: 0x3C }
  - { offsetInCU: 0x7ABE2, offset: 0x7ABE2, size: 0x8, addend: 0x0, symName: __ZN3fmt2v96detail8basic_fpIyEC2Eyi, symObjAddr: 0x23C5C, symBinAddr: 0x1000273DC, symSize: 0x2C }
  - { offsetInCU: 0x7AC2A, offset: 0x7AC2A, size: 0x8, addend: 0x0, symName: __ZZN3fmt2v96detail16grisu_gen_digitsENS1_8basic_fpIyEEyRiRNS1_18gen_digits_handlerEENKUljE_clEj, symObjAddr: 0x23F50, symBinAddr: 0x1000276D0, symSize: 0x4C }
  - { offsetInCU: 0x7AC63, offset: 0x7AC63, size: 0x8, addend: 0x0, symName: __ZN3fmt2v96detail18gen_digits_handler8on_digitEcyyyb, symObjAddr: 0x23F9C, symBinAddr: 0x10002771C, symSize: 0x31C }
  - { offsetInCU: 0x7AD00, offset: 0x7AD00, size: 0x8, addend: 0x0, symName: __ZN3fmt2v96detail8basic_fpIoEC2Ev, symObjAddr: 0x242B8, symBinAddr: 0x100027A38, symSize: 0x28 }
  - { offsetInCU: 0x7AD2A, offset: 0x7AD2A, size: 0x8, addend: 0x0, symName: __ZN3fmt2v96detail6bigintC1Ev, symObjAddr: 0x242E0, symBinAddr: 0x100027A60, symSize: 0x2C }
  - { offsetInCU: 0x7AD54, offset: 0x7AD54, size: 0x8, addend: 0x0, symName: __ZN3fmt2v96detail6bigintaSIoEEvT_, symObjAddr: 0x2430C, symBinAddr: 0x100027A8C, symSize: 0xAC }
  - { offsetInCU: 0x7AD92, offset: 0x7AD92, size: 0x8, addend: 0x0, symName: __ZN3fmt2v96detail6bigintlSEi, symObjAddr: 0x243B8, symBinAddr: 0x100027B38, symSize: 0x18C }
  - { offsetInCU: 0x7AE1F, offset: 0x7AE1F, size: 0x8, addend: 0x0, symName: __ZN3fmt2v96detail6bigintaSIiEEvT_, symObjAddr: 0x24544, symBinAddr: 0x100027CC4, symSize: 0x64 }
  - { offsetInCU: 0x7AE5D, offset: 0x7AE5D, size: 0x8, addend: 0x0, symName: __ZN3fmt2v96detail6bigint12assign_pow10Ei, symObjAddr: 0x245A8, symBinAddr: 0x100027D28, symSize: 0x13C }
  - { offsetInCU: 0x7AEA1, offset: 0x7AEA1, size: 0x8, addend: 0x0, symName: __ZN3fmt2v96detail6bigint6assignERKS2_, symObjAddr: 0x246E4, symBinAddr: 0x100027E64, symSize: 0xA4 }
  - { offsetInCU: 0x7AEF4, offset: 0x7AEF4, size: 0x8, addend: 0x0, symName: __ZN3fmt2v96detail6bigintmLIoEERS2_T_, symObjAddr: 0x24788, symBinAddr: 0x100027F08, symSize: 0xB0 }
  - { offsetInCU: 0x7AF32, offset: 0x7AF32, size: 0x8, addend: 0x0, symName: __ZN3fmt2v96detail6bigintaSIyEEvT_, symObjAddr: 0x24838, symBinAddr: 0x100027FB8, symSize: 0x64 }
  - { offsetInCU: 0x7AF70, offset: 0x7AF70, size: 0x8, addend: 0x0, symName: __ZN3fmt2v96detail6bigintmLIiEERS2_T_, symObjAddr: 0x24AA0, symBinAddr: 0x100028220, symSize: 0x68 }
  - { offsetInCU: 0x7AFAE, offset: 0x7AFAE, size: 0x8, addend: 0x0, symName: __ZN3fmt2v96detail6bigint13divmod_assignERKS2_, symObjAddr: 0x24B08, symBinAddr: 0x100028288, symSize: 0x128 }
  - { offsetInCU: 0x7AFF2, offset: 0x7AFF2, size: 0x8, addend: 0x0, symName: __ZN3fmt2v96detail6bigintD1Ev, symObjAddr: 0x24DE4, symBinAddr: 0x100028564, symSize: 0x2C }
  - { offsetInCU: 0x7B01F, offset: 0x7B01F, size: 0x8, addend: 0x0, symName: __ZN3fmt2v96detail6bigintC2Ev, symObjAddr: 0x24E10, symBinAddr: 0x100028590, symSize: 0x44 }
  - { offsetInCU: 0x7B049, offset: 0x7B049, size: 0x8, addend: 0x0, symName: __ZNSt3__19allocatorIjEC1B7v160006Ev, symObjAddr: 0x24E54, symBinAddr: 0x1000285D4, symSize: 0x2C }
  - { offsetInCU: 0x7B073, offset: 0x7B073, size: 0x8, addend: 0x0, symName: __ZN3fmt2v919basic_memory_bufferIjLm32ENSt3__19allocatorIjEEEC1ERKS4_, symObjAddr: 0x24E80, symBinAddr: 0x100028600, symSize: 0x34 }
  - { offsetInCU: 0x7B0AC, offset: 0x7B0AC, size: 0x8, addend: 0x0, symName: __ZNSt3__19allocatorIjEC2B7v160006Ev, symObjAddr: 0x24EB4, symBinAddr: 0x100028634, symSize: 0x2C }
  - { offsetInCU: 0x7B0D6, offset: 0x7B0D6, size: 0x8, addend: 0x0, symName: __ZNSt3__116__non_trivial_ifILb1ENS_9allocatorIjEEEC2B7v160006Ev, symObjAddr: 0x24EE0, symBinAddr: 0x100028660, symSize: 0x14 }
  - { offsetInCU: 0x7B100, offset: 0x7B100, size: 0x8, addend: 0x0, symName: __ZN3fmt2v919basic_memory_bufferIjLm32ENSt3__19allocatorIjEEEC2ERKS4_, symObjAddr: 0x24EF4, symBinAddr: 0x100028674, symSize: 0x68 }
  - { offsetInCU: 0x7B139, offset: 0x7B139, size: 0x8, addend: 0x0, symName: __ZN3fmt2v96detail6bufferIjEC2EPjmm, symObjAddr: 0x24F5C, symBinAddr: 0x1000286DC, symSize: 0x48 }
  - { offsetInCU: 0x7B190, offset: 0x7B190, size: 0x8, addend: 0x0, symName: __ZN3fmt2v96detail6bufferIjE3setEPjm, symObjAddr: 0x24FA4, symBinAddr: 0x100028724, symSize: 0x2C }
  - { offsetInCU: 0x7B1D4, offset: 0x7B1D4, size: 0x8, addend: 0x0, symName: __ZN3fmt2v919basic_memory_bufferIjLm32ENSt3__19allocatorIjEEE4growEm, symObjAddr: 0x24FD0, symBinAddr: 0x100028750, symSize: 0x19C }
  - { offsetInCU: 0x7B267, offset: 0x7B267, size: 0x8, addend: 0x0, symName: __ZNSt3__116allocator_traitsINS_9allocatorIjEEE8max_sizeB7v160006IS2_vEEmRKS2_, symObjAddr: 0x2516C, symBinAddr: 0x1000288EC, symSize: 0x24 }
  - { offsetInCU: 0x7B295, offset: 0x7B295, size: 0x8, addend: 0x0, symName: __ZNK3fmt2v96detail6bufferIjE8capacityEv, symObjAddr: 0x25190, symBinAddr: 0x100028910, symSize: 0x18 }
  - { offsetInCU: 0x7B2BB, offset: 0x7B2BB, size: 0x8, addend: 0x0, symName: __ZN3fmt2v96detail6bufferIjE4dataEv, symObjAddr: 0x251A8, symBinAddr: 0x100028928, symSize: 0x18 }
  - { offsetInCU: 0x7B2E1, offset: 0x7B2E1, size: 0x8, addend: 0x0, symName: __ZNSt3__116allocator_traitsINS_9allocatorIjEEE8allocateB7v160006ERS2_m, symObjAddr: 0x251C0, symBinAddr: 0x100028940, symSize: 0x2C }
  - { offsetInCU: 0x7B314, offset: 0x7B314, size: 0x8, addend: 0x0, symName: __ZNK3fmt2v96detail6bufferIjE4sizeEv, symObjAddr: 0x2522C, symBinAddr: 0x1000289AC, symSize: 0x18 }
  - { offsetInCU: 0x7B33A, offset: 0x7B33A, size: 0x8, addend: 0x0, symName: __ZNSt3__19allocatorIjE10deallocateB7v160006EPjm, symObjAddr: 0x2525C, symBinAddr: 0x1000289DC, symSize: 0x40 }
  - { offsetInCU: 0x7B37C, offset: 0x7B37C, size: 0x8, addend: 0x0, symName: __ZNKSt3__19allocatorIjE8max_sizeB7v160006Ev, symObjAddr: 0x2529C, symBinAddr: 0x100028A1C, symSize: 0x14 }
  - { offsetInCU: 0x7B3A2, offset: 0x7B3A2, size: 0x8, addend: 0x0, symName: __ZNSt3__19allocatorIjE8allocateB7v160006Em, symObjAddr: 0x252B0, symBinAddr: 0x100028A30, symSize: 0x58 }
  - { offsetInCU: 0x7B3F9, offset: 0x7B3F9, size: 0x8, addend: 0x0, symName: __ZNSt3__14pairIPjS1_EC1B7v160006IS1_S1_LPv0EEEOT_OT0_, symObjAddr: 0x25448, symBinAddr: 0x100028BC8, symSize: 0x3C }
  - { offsetInCU: 0x7B457, offset: 0x7B457, size: 0x8, addend: 0x0, symName: __ZNSt3__14pairIPjS1_EC2B7v160006IS1_S1_LPv0EEEOT_OT0_, symObjAddr: 0x25494, symBinAddr: 0x100028C14, symSize: 0x34 }
  - { offsetInCU: 0x7B4B5, offset: 0x7B4B5, size: 0x8, addend: 0x0, symName: __ZN3fmt2v96detail6bigint6assignIoLi0EEEvT_, symObjAddr: 0x254C8, symBinAddr: 0x100028C48, symSize: 0xD8 }
  - { offsetInCU: 0x7B508, offset: 0x7B508, size: 0x8, addend: 0x0, symName: __ZN3fmt2v96detail6bufferIjEixImEERjT_, symObjAddr: 0x255A0, symBinAddr: 0x100028D20, symSize: 0x24 }
  - { offsetInCU: 0x7B546, offset: 0x7B546, size: 0x8, addend: 0x0, symName: __ZN3fmt2v919basic_memory_bufferIjLm32ENSt3__19allocatorIjEEE6resizeEm, symObjAddr: 0x255C4, symBinAddr: 0x100028D44, symSize: 0x2C }
  - { offsetInCU: 0x7B57B, offset: 0x7B57B, size: 0x8, addend: 0x0, symName: __ZN3fmt2v96detail6bufferIjE10try_resizeEm, symObjAddr: 0x255F0, symBinAddr: 0x100028D70, symSize: 0x74 }
  - { offsetInCU: 0x7B5B0, offset: 0x7B5B0, size: 0x8, addend: 0x0, symName: __ZN3fmt2v96detail6bufferIjE11try_reserveEm, symObjAddr: 0x25664, symBinAddr: 0x100028DE4, symSize: 0x58 }
  - { offsetInCU: 0x7B5E5, offset: 0x7B5E5, size: 0x8, addend: 0x0, symName: __ZN3fmt2v96detail6bufferIjE9push_backERKj, symObjAddr: 0x256BC, symBinAddr: 0x100028E3C, symSize: 0x54 }
  - { offsetInCU: 0x7B61A, offset: 0x7B61A, size: 0x8, addend: 0x0, symName: __ZN3fmt2v96detail6bigint6assignIyLi0EEEvT_, symObjAddr: 0x25710, symBinAddr: 0x100028E90, symSize: 0x8C }
  - { offsetInCU: 0x7B66D, offset: 0x7B66D, size: 0x8, addend: 0x0, symName: __ZN3fmt2v96detail6bigint6squareEv, symObjAddr: 0x2579C, symBinAddr: 0x100028F1C, symSize: 0x370 }
  - { offsetInCU: 0x7B761, offset: 0x7B761, size: 0x8, addend: 0x0, symName: __ZN3fmt2v919basic_memory_bufferIjLm32ENSt3__19allocatorIjEEEC1EOS5_, symObjAddr: 0x25B0C, symBinAddr: 0x10002928C, symSize: 0x34 }
  - { offsetInCU: 0x7B79A, offset: 0x7B79A, size: 0x8, addend: 0x0, symName: __ZN3fmt2v96detail6bufferIjEixIiEERjT_, symObjAddr: 0x25B40, symBinAddr: 0x1000292C0, symSize: 0x24 }
  - { offsetInCU: 0x7B7D8, offset: 0x7B7D8, size: 0x8, addend: 0x0, symName: __ZN3fmt2v96detail6bigintixEi, symObjAddr: 0x25B64, symBinAddr: 0x1000292E4, symSize: 0x3C }
  - { offsetInCU: 0x7B80D, offset: 0x7B80D, size: 0x8, addend: 0x0, symName: __ZN3fmt2v96detail6bigint20remove_leading_zerosEv, symObjAddr: 0x25BA8, symBinAddr: 0x100029328, symSize: 0xB0 }
  - { offsetInCU: 0x7B842, offset: 0x7B842, size: 0x8, addend: 0x0, symName: __ZN3fmt2v919basic_memory_bufferIjLm32ENSt3__19allocatorIjEEED1Ev, symObjAddr: 0x25C58, symBinAddr: 0x1000293D8, symSize: 0x2C }
  - { offsetInCU: 0x7B86C, offset: 0x7B86C, size: 0x8, addend: 0x0, symName: __ZN3fmt2v919basic_memory_bufferIjLm32ENSt3__19allocatorIjEEEC2EOS5_, symObjAddr: 0x25C84, symBinAddr: 0x100029404, symSize: 0x74 }
  - { offsetInCU: 0x7B8A5, offset: 0x7B8A5, size: 0x8, addend: 0x0, symName: __ZN3fmt2v919basic_memory_bufferIjLm32ENSt3__19allocatorIjEEE4moveERS5_, symObjAddr: 0x25CF8, symBinAddr: 0x100029478, symSize: 0xFC }
  - { offsetInCU: 0x7B907, offset: 0x7B907, size: 0x8, addend: 0x0, symName: __ZN3fmt2v96detail6bufferIjE5clearEv, symObjAddr: 0x25E50, symBinAddr: 0x1000295D0, symSize: 0x18 }
  - { offsetInCU: 0x7B92D, offset: 0x7B92D, size: 0x8, addend: 0x0, symName: __ZN3fmt2v96detail6bufferIjEixIjEERjT_, symObjAddr: 0x25E68, symBinAddr: 0x1000295E8, symSize: 0x24 }
  - { offsetInCU: 0x7B96B, offset: 0x7B96B, size: 0x8, addend: 0x0, symName: __ZN3fmt2v919basic_memory_bufferIjLm32ENSt3__19allocatorIjEEED2Ev, symObjAddr: 0x25E8C, symBinAddr: 0x10002960C, symSize: 0x34 }
  - { offsetInCU: 0x7B995, offset: 0x7B995, size: 0x8, addend: 0x0, symName: __ZN3fmt2v919basic_memory_bufferIjLm32ENSt3__19allocatorIjEEE10deallocateEv, symObjAddr: 0x25EC0, symBinAddr: 0x100029640, symSize: 0x78 }
  - { offsetInCU: 0x7B9CA, offset: 0x7B9CA, size: 0x8, addend: 0x0, symName: __ZNK3fmt2v96detail6bufferIjE4dataEv, symObjAddr: 0x25F38, symBinAddr: 0x1000296B8, symSize: 0x18 }
  - { offsetInCU: 0x7BA18, offset: 0x7BA18, size: 0x8, addend: 0x0, symName: __ZNKSt3__114__copy_trivialclB7v160006IKjjLi0EEENS_4pairIPT_PT0_EES5_S5_S7_, symObjAddr: 0x2612C, symBinAddr: 0x1000298AC, symSize: 0x48 }
  - { offsetInCU: 0x7BAA3, offset: 0x7BAA3, size: 0x8, addend: 0x0, symName: __ZNSt3__14pairIPKjS2_EC1B7v160006IS2_S2_LPv0EEEOT_OT0_, symObjAddr: 0x26294, symBinAddr: 0x100029A14, symSize: 0x3C }
  - { offsetInCU: 0x7BB01, offset: 0x7BB01, size: 0x8, addend: 0x0, symName: __ZNSt3__14pairIPKjS2_EC2B7v160006IS2_S2_LPv0EEEOT_OT0_, symObjAddr: 0x262D0, symBinAddr: 0x100029A50, symSize: 0x34 }
  - { offsetInCU: 0x7BB5F, offset: 0x7BB5F, size: 0x8, addend: 0x0, symName: __ZNSt3__118__unwrap_iter_implIPKjLb1EE8__unwrapB7v160006ES2_, symObjAddr: 0x26304, symBinAddr: 0x100029A84, symSize: 0x24 }
  - { offsetInCU: 0x7BB88, offset: 0x7BB88, size: 0x8, addend: 0x0, symName: __ZNSt3__14pairIPKjPjEC1B7v160006IRS2_S3_LPv0EEEOT_OT0_, symObjAddr: 0x263F8, symBinAddr: 0x100029B78, symSize: 0x3C }
  - { offsetInCU: 0x7BBE6, offset: 0x7BBE6, size: 0x8, addend: 0x0, symName: __ZNSt3__14pairIPKjPjEC2B7v160006IRS2_S3_LPv0EEEOT_OT0_, symObjAddr: 0x26434, symBinAddr: 0x100029BB4, symSize: 0x34 }
  - { offsetInCU: 0x7BC44, offset: 0x7BC44, size: 0x8, addend: 0x0, symName: __ZNSt3__118__unwrap_iter_implIPjLb1EE8__unwrapB7v160006ES1_, symObjAddr: 0x26468, symBinAddr: 0x100029BE8, symSize: 0x24 }
  - { offsetInCU: 0x7BC67, offset: 0x7BC67, size: 0x8, addend: 0x0, symName: __ZNSt3__14pairIPKjPjEC1B7v160006IS2_S3_LPv0EEEOT_OT0_, symObjAddr: 0x264A0, symBinAddr: 0x100029C20, symSize: 0x3C }
  - { offsetInCU: 0x7BCC5, offset: 0x7BCC5, size: 0x8, addend: 0x0, symName: __ZNSt3__14pairIPKjPjEC2B7v160006IS2_S3_LPv0EEEOT_OT0_, symObjAddr: 0x264DC, symBinAddr: 0x100029C5C, symSize: 0x34 }
  - { offsetInCU: 0x7BD23, offset: 0x7BD23, size: 0x8, addend: 0x0, symName: __ZNSt3__118__unwrap_iter_implIPKjLb1EE8__rewrapB7v160006ES2_S2_, symObjAddr: 0x2654C, symBinAddr: 0x100029CCC, symSize: 0x50 }
  - { offsetInCU: 0x7BD54, offset: 0x7BD54, size: 0x8, addend: 0x0, symName: __ZNSt3__118__unwrap_iter_implIPjLb1EE8__rewrapB7v160006ES1_S1_, symObjAddr: 0x2659C, symBinAddr: 0x100029D1C, symSize: 0x50 }
  - { offsetInCU: 0x7BD90, offset: 0x7BD90, size: 0x8, addend: 0x0, symName: __ZZN3fmt2v96detail11add_compareERKNS1_6bigintES4_S4_ENKUliiE0_clEii, symObjAddr: 0x26810, symBinAddr: 0x100029F90, symSize: 0x4C }
  - { offsetInCU: 0x7BDD8, offset: 0x7BDD8, size: 0x8, addend: 0x0, symName: __ZNK3fmt2v96detail6bigint10num_bigitsEv, symObjAddr: 0x2685C, symBinAddr: 0x100029FDC, symSize: 0x38 }
  - { offsetInCU: 0x7BE09, offset: 0x7BE09, size: 0x8, addend: 0x0, symName: __ZZN3fmt2v96detail11add_compareERKNS1_6bigintES4_S4_ENKUliiE_clEii, symObjAddr: 0x26894, symBinAddr: 0x10002A014, symSize: 0x4C }
  - { offsetInCU: 0x7BE5C, offset: 0x7BE5C, size: 0x8, addend: 0x0, symName: __ZZN3fmt2v96detail11add_compareERKNS1_6bigintES4_S4_ENKUlS4_iE_clES4_i, symObjAddr: 0x268E0, symBinAddr: 0x10002A060, symSize: 0x94 }
  - { offsetInCU: 0x7BEA4, offset: 0x7BEA4, size: 0x8, addend: 0x0, symName: __ZNK3fmt2v96detail6bigintixEi, symObjAddr: 0x26974, symBinAddr: 0x10002A0F4, symSize: 0x40 }
  - { offsetInCU: 0x7BED9, offset: 0x7BED9, size: 0x8, addend: 0x0, symName: __ZNK3fmt2v96detail6bufferIjEixIjEERKjT_, symObjAddr: 0x269B4, symBinAddr: 0x10002A134, symSize: 0x24 }
  - { offsetInCU: 0x7BF17, offset: 0x7BF17, size: 0x8, addend: 0x0, symName: __ZN3fmt2v96detail6bigint8multiplyEj, symObjAddr: 0x269D8, symBinAddr: 0x10002A158, symSize: 0xE4 }
  - { offsetInCU: 0x7BFB3, offset: 0x7BFB3, size: 0x8, addend: 0x0, symName: __ZNK3fmt2v96detail6bufferIjEixImEERKjT_, symObjAddr: 0x26ABC, symBinAddr: 0x10002A23C, symSize: 0x24 }
  - { offsetInCU: 0x7BFF1, offset: 0x7BFF1, size: 0x8, addend: 0x0, symName: __ZN3fmt2v96detail6bigint5alignERKS2_, symObjAddr: 0x26AE0, symBinAddr: 0x10002A260, symSize: 0x138 }
  - { offsetInCU: 0x7C070, offset: 0x7C070, size: 0x8, addend: 0x0, symName: __ZN3fmt2v96detail6bigint16subtract_alignedERKS2_, symObjAddr: 0x26C18, symBinAddr: 0x10002A398, symSize: 0x164 }
  - { offsetInCU: 0x7C0EF, offset: 0x7C0EF, size: 0x8, addend: 0x0, symName: __ZN3fmt2v96detail6bigint15subtract_bigitsEijRj, symObjAddr: 0x26E24, symBinAddr: 0x10002A5A4, symSize: 0x84 }
  - { offsetInCU: 0x7C151, offset: 0x7C151, size: 0x8, addend: 0x0, symName: __ZN3fmt2v96detail6bigintD2Ev, symObjAddr: 0x26EA8, symBinAddr: 0x10002A628, symSize: 0x2C }
  - { offsetInCU: 0x7C189, offset: 0x7C189, size: 0x8, addend: 0x0, symName: __ZZN3fmt2v96detail14do_write_floatINS0_8appenderENS1_14big_decimal_fpEcNS1_14digit_groupingIcEEEET_S7_RKT0_RKNS0_18basic_format_specsIT1_EENS1_11float_specsENS1_10locale_refEENKUlvE_clEv, symObjAddr: 0x276C8, symBinAddr: 0x10002AE48, symSize: 0x110 }
  - { offsetInCU: 0x7C1DC, offset: 0x7C1DC, size: 0x8, addend: 0x0, symName: __ZZN3fmt2v96detail14do_write_floatINS0_8appenderENS1_14big_decimal_fpEcNS1_14digit_groupingIcEEEET_S7_RKT0_RKNS0_18basic_format_specsIT1_EENS1_11float_specsENS1_10locale_refEENKUlS3_E_clES3_, symObjAddr: 0x27828, symBinAddr: 0x10002AFA8, symSize: 0x148 }
  - { offsetInCU: 0x7C231, offset: 0x7C231, size: 0x8, addend: 0x0, symName: __ZZN3fmt2v96detail14do_write_floatINS0_8appenderENS1_14big_decimal_fpEcNS1_14digit_groupingIcEEEET_S7_RKT0_RKNS0_18basic_format_specsIT1_EENS1_11float_specsENS1_10locale_refEENKUlS3_E0_clES3_, symObjAddr: 0x27EB8, symBinAddr: 0x10002B638, symSize: 0x168 }
  - { offsetInCU: 0x7C275, offset: 0x7C275, size: 0x8, addend: 0x0, symName: __ZZN3fmt2v96detail14do_write_floatINS0_8appenderENS1_14big_decimal_fpEcNS1_14digit_groupingIcEEEET_S7_RKT0_RKNS0_18basic_format_specsIT1_EENS1_11float_specsENS1_10locale_refEENKUlS3_E1_clES3_, symObjAddr: 0x28418, symBinAddr: 0x10002BB98, symSize: 0x11C }
  - { offsetInCU: 0x7C2B9, offset: 0x7C2B9, size: 0x8, addend: 0x0, symName: __ZZN3fmt2v96detail14do_write_floatINS0_8appenderENS1_14big_decimal_fpEcNS1_14digit_groupingIcEEEET_S7_RKT0_RKNS0_18basic_format_specsIT1_EENS1_11float_specsENS1_10locale_refEENKUlS3_E2_clES3_, symObjAddr: 0x288E4, symBinAddr: 0x10002C064, symSize: 0x160 }
  - { offsetInCU: 0x7C2F1, offset: 0x7C2F1, size: 0x8, addend: 0x0, symName: __Z8isfiniteB7v160006IdLi0EEbT_, symObjAddr: 0x29020, symBinAddr: 0x10002C7A0, symSize: 0x34 }
  - { offsetInCU: 0x7C32E, offset: 0x7C32E, size: 0x8, addend: 0x0, symName: __Z8isfiniteB7v160006IeLi0EEbT_, symObjAddr: 0x2965C, symBinAddr: 0x10002CDDC, symSize: 0x34 }
  - { offsetInCU: 0x7C383, offset: 0x7C383, size: 0x8, addend: 0x0, symName: __ZN3fmt2v96detail17counting_iteratorC1Ev, symObjAddr: 0x29D18, symBinAddr: 0x10002D498, symSize: 0x2C }
  - { offsetInCU: 0x7C3AD, offset: 0x7C3AD, size: 0x8, addend: 0x0, symName: __ZNK3fmt2v96detail17counting_iterator5countEv, symObjAddr: 0x29D44, symBinAddr: 0x10002D4C4, symSize: 0x18 }
  - { offsetInCU: 0x7C3D3, offset: 0x7C3D3, size: 0x8, addend: 0x0, symName: __ZN3fmt2v96detail17counting_iteratorppEi, symObjAddr: 0x29F68, symBinAddr: 0x10002D6E8, symSize: 0x34 }
  - { offsetInCU: 0x7C414, offset: 0x7C414, size: 0x8, addend: 0x0, symName: __ZNK3fmt2v96detail17counting_iteratordeEv, symObjAddr: 0x29F9C, symBinAddr: 0x10002D71C, symSize: 0x10 }
  - { offsetInCU: 0x7C440, offset: 0x7C440, size: 0x8, addend: 0x0, symName: __ZN3fmt2v96detail17counting_iterator10value_typeaSIcEEvRKT_, symObjAddr: 0x29FAC, symBinAddr: 0x10002D72C, symSize: 0x14 }
  - { offsetInCU: 0x7C47B, offset: 0x7C47B, size: 0x8, addend: 0x0, symName: __ZN3fmt2v96detail17counting_iteratorppEv, symObjAddr: 0x2A48C, symBinAddr: 0x10002DC0C, symSize: 0x20 }
  - { offsetInCU: 0x7C4BD, offset: 0x7C4BD, size: 0x8, addend: 0x0, symName: __ZZN3fmt2v96detail18for_each_codepointIZNS1_11find_escapeEPKcS4_EUljNS0_17basic_string_viewIcEEE_EEvS6_T_ENKUlS4_S4_E_clES4_S4_, symObjAddr: 0x2A66C, symBinAddr: 0x10002DDEC, symSize: 0x144 }
  - { offsetInCU: 0x7C541, offset: 0x7C541, size: 0x8, addend: 0x0, symName: __ZZN3fmt2v96detail11find_escapeEPKcS3_ENKUljNS0_17basic_string_viewIcEEE_clEjS5_, symObjAddr: 0x2AAB0, symBinAddr: 0x10002E230, symSize: 0xB0 }
  - { offsetInCU: 0x7C589, offset: 0x7C589, size: 0x8, addend: 0x0, symName: __ZN3fmt2v96detail17counting_iteratorC2Ev, symObjAddr: 0x2AF00, symBinAddr: 0x10002E680, symSize: 0x18 }
  - { offsetInCU: 0x7C5BE, offset: 0x7C5BE, size: 0x8, addend: 0x0, symName: __ZZN3fmt2v96detail18for_each_codepointIZNS1_13compute_widthENS0_17basic_string_viewIcEEE17count_code_pointsEEvS4_T_ENKUlPKcS8_E_clES8_S8_, symObjAddr: 0x2B0D8, symBinAddr: 0x10002E858, symSize: 0x144 }
  - { offsetInCU: 0x7C642, offset: 0x7C642, size: 0x8, addend: 0x0, symName: __ZZN3fmt2v96detail13compute_widthENS0_17basic_string_viewIcEEENK17count_code_pointsclEjS3_, symObjAddr: 0x2B21C, symBinAddr: 0x10002E99C, symSize: 0x38C }
  - { offsetInCU: 0x7C692, offset: 0x7C692, size: 0x8, addend: 0x0, symName: __ZZN3fmt2v96detail5writeIcNS0_8appenderEEET0_S4_NS0_17basic_string_viewIT_EERKNS0_18basic_format_specsIS6_EEENKUlS3_E_clES3_, symObjAddr: 0x2B5A8, symBinAddr: 0x10002ED28, symSize: 0x90 }
  - { offsetInCU: 0x7C6CA, offset: 0x7C6CA, size: 0x8, addend: 0x0, symName: __Z6memchrB7v160006Ua9enable_ifIXLb1EEEPKvim, symObjAddr: 0x2B78C, symBinAddr: 0x10002EF0C, symSize: 0x34 }
  - { offsetInCU: 0x7C713, offset: 0x7C713, size: 0x8, addend: 0x0, symName: __ZZN3fmt2v96detail10vformat_toIcEEvRNS1_6bufferIT_EENS0_17basic_string_viewIS4_EENS0_17basic_format_argsINS0_20basic_format_contextINSt3__111conditionalIXsr3std7is_sameINS0_13type_identityIS4_E4typeEcEE5valueENS0_8appenderENSB_20back_insert_iteratorINS3_ISF_EEEEE4typeESF_EEEENS1_10locale_refEEN14format_handlerC2ESG_NS7_IcEENS9_INSA_ISG_cEEEESO_, symObjAddr: 0x2B7C0, symBinAddr: 0x10002EF40, symSize: 0x90 }
  - { offsetInCU: 0x7C779, offset: 0x7C779, size: 0x8, addend: 0x0, symName: __ZN3fmt2v96detail10locale_refC2Ev, symObjAddr: 0x2B850, symBinAddr: 0x10002EFD0, symSize: 0x18 }
  - { offsetInCU: 0x7C7A3, offset: 0x7C7A3, size: 0x8, addend: 0x0, symName: __ZN3fmt2v96detail15iterator_bufferINSt3__120back_insert_iteratorINS0_19basic_memory_bufferIcLm250ENS3_9allocatorIcEEEEEEcNS1_13buffer_traitsEE3outEv, symObjAddr: 0x2B868, symBinAddr: 0x10002EFE8, symSize: 0x30 }
  - { offsetInCU: 0x7C7C9, offset: 0x7C7C9, size: 0x8, addend: 0x0, symName: __ZNSt3__120back_insert_iteratorIN3fmt2v919basic_memory_bufferIcLm250ENS_9allocatorIcEEEEEC1B7v160006ERS6_, symObjAddr: 0x2B898, symBinAddr: 0x10002F018, symSize: 0x34 }
  - { offsetInCU: 0x7C801, offset: 0x7C801, size: 0x8, addend: 0x0, symName: __ZNSt3__120back_insert_iteratorIN3fmt2v919basic_memory_bufferIcLm250ENS_9allocatorIcEEEEEC2B7v160006ERS6_, symObjAddr: 0x2B8CC, symBinAddr: 0x10002F04C, symSize: 0x20 }
  - { offsetInCU: 0x7C839, offset: 0x7C839, size: 0x8, addend: 0x0, symName: __ZZZN6spdlog7details10fmt_helper4pad2EiRN3fmt2v919basic_memory_bufferIcLm250ENSt3__19allocatorIcEEEEENKUlvE_clEvENK18FMT_COMPILE_STRINGcvNS3_17basic_string_viewIcEEEv, symObjAddr: 0x2B8EC, symBinAddr: 0x10002F06C, symSize: 0x38 }
  - { offsetInCU: 0x7C86F, offset: 0x7C86F, size: 0x8, addend: 0x0, symName: __ZNSt3__111char_traitsIcE11to_int_typeEc, symObjAddr: 0x2BC74, symBinAddr: 0x10002F3F4, symSize: 0x14 }
  - { offsetInCU: 0x7C892, offset: 0x7C892, size: 0x8, addend: 0x0, symName: __ZN3fmt2v96detail21format_string_checkerIcNS1_13error_handlerEJiEEC1ENS0_17basic_string_viewIcEES3_, symObjAddr: 0x2BC88, symBinAddr: 0x10002F408, symSize: 0x3C }
  - { offsetInCU: 0x7C8DA, offset: 0x7C8DA, size: 0x8, addend: 0x0, symName: __ZN3fmt2v96detail21format_string_checkerIcNS1_13error_handlerEJiEE7on_textEPKcS6_, symObjAddr: 0x2BCC4, symBinAddr: 0x10002F444, symSize: 0x18 }
  - { offsetInCU: 0x7C91E, offset: 0x7C91E, size: 0x8, addend: 0x0, symName: __ZN3fmt2v96detail21format_string_checkerIcNS1_13error_handlerEJiEE8on_errorEPKc, symObjAddr: 0x2BF58, symBinAddr: 0x10002F6D8, symSize: 0x2C }
  - { offsetInCU: 0x7C953, offset: 0x7C953, size: 0x8, addend: 0x0, symName: __ZZN3fmt2v96detail19parse_format_stringILb1EcNS1_21format_string_checkerIcNS1_13error_handlerEJiEEEEEvNS0_17basic_string_viewIT0_EEOT1_EN6writerclEPKcSD_, symObjAddr: 0x2C034, symBinAddr: 0x10002F7B4, symSize: 0xFC }
  - { offsetInCU: 0x7C9B8, offset: 0x7C9B8, size: 0x8, addend: 0x0, symName: __ZN3fmt2v96detail21format_string_checkerIcNS1_13error_handlerEJiEE20on_replacement_fieldEiPKc, symObjAddr: 0x2C130, symBinAddr: 0x10002F8B0, symSize: 0x18 }
  - { offsetInCU: 0x7C9F6, offset: 0x7C9F6, size: 0x8, addend: 0x0, symName: __ZN3fmt2v96detail21format_string_checkerIcNS1_13error_handlerEJiEE9on_arg_idEv, symObjAddr: 0x2C148, symBinAddr: 0x10002F8C8, symSize: 0x24 }
  - { offsetInCU: 0x7CA1C, offset: 0x7CA1C, size: 0x8, addend: 0x0, symName: __ZN3fmt2v96detail21format_string_checkerIcNS1_13error_handlerEJiEE15on_format_specsEiPKcS6_, symObjAddr: 0x2C16C, symBinAddr: 0x10002F8EC, symSize: 0xC0 }
  - { offsetInCU: 0x7CA6C, offset: 0x7CA6C, size: 0x8, addend: 0x0, symName: __ZN3fmt2v96detail21compile_parse_contextIcNS1_13error_handlerEE11next_arg_idEv, symObjAddr: 0x2C22C, symBinAddr: 0x10002F9AC, symSize: 0x60 }
  - { offsetInCU: 0x7CAA1, offset: 0x7CAA1, size: 0x8, addend: 0x0, symName: __ZZN3fmt2v96detail23parse_replacement_fieldIcRNS1_21format_string_checkerIcNS1_13error_handlerEJiEEEEEPKT_S9_S9_OT0_EN10id_adapterclEv, symObjAddr: 0x2C50C, symBinAddr: 0x10002FC8C, symSize: 0x34 }
  - { offsetInCU: 0x7CACB, offset: 0x7CACB, size: 0x8, addend: 0x0, symName: __ZZN3fmt2v96detail23parse_replacement_fieldIcRNS1_21format_string_checkerIcNS1_13error_handlerEJiEEEEEPKT_S9_S9_OT0_EN10id_adapter8on_errorEPKc, symObjAddr: 0x2C540, symBinAddr: 0x10002FCC0, symSize: 0x50 }
  - { offsetInCU: 0x7CB04, offset: 0x7CB04, size: 0x8, addend: 0x0, symName: __ZZN3fmt2v96detail23parse_replacement_fieldIcRNS1_21format_string_checkerIcNS1_13error_handlerEJiEEEEEPKT_S9_S9_OT0_EN10id_adapterclEi, symObjAddr: 0x2C590, symBinAddr: 0x10002FD10, symSize: 0x3C }
  - { offsetInCU: 0x7CB3D, offset: 0x7CB3D, size: 0x8, addend: 0x0, symName: __ZZN3fmt2v96detail23parse_replacement_fieldIcRNS1_21format_string_checkerIcNS1_13error_handlerEJiEEEEEPKT_S9_S9_OT0_EN10id_adapterclENS0_17basic_string_viewIcEE, symObjAddr: 0x2C5CC, symBinAddr: 0x10002FD4C, symSize: 0x4C }
  - { offsetInCU: 0x7CB76, offset: 0x7CB76, size: 0x8, addend: 0x0, symName: __ZN3fmt2v96detail21format_string_checkerIcNS1_13error_handlerEJiEE9on_arg_idEi, symObjAddr: 0x2C618, symBinAddr: 0x10002FD98, symSize: 0x30 }
  - { offsetInCU: 0x7CBAB, offset: 0x7CBAB, size: 0x8, addend: 0x0, symName: __ZN3fmt2v96detail21compile_parse_contextIcNS1_13error_handlerEE12check_arg_idEi, symObjAddr: 0x2C648, symBinAddr: 0x10002FDC8, symSize: 0x60 }
  - { offsetInCU: 0x7CBE0, offset: 0x7CBE0, size: 0x8, addend: 0x0, symName: __ZN3fmt2v96detail21format_string_checkerIcNS1_13error_handlerEJiEE9on_arg_idENS0_17basic_string_viewIcEE, symObjAddr: 0x2C6A8, symBinAddr: 0x10002FE28, symSize: 0x38 }
  - { offsetInCU: 0x7CC15, offset: 0x7CC15, size: 0x8, addend: 0x0, symName: __ZN3fmt2v96detail21format_string_checkerIcNS1_13error_handlerEJiEEC2ENS0_17basic_string_viewIcEES3_, symObjAddr: 0x2C6E0, symBinAddr: 0x10002FE60, symSize: 0x6C }
  - { offsetInCU: 0x7CC5D, offset: 0x7CC5D, size: 0x8, addend: 0x0, symName: __ZN3fmt2v96detail21compile_parse_contextIcNS1_13error_handlerEEC1ENS0_17basic_string_viewIcEEiPKNS1_4typeES3_i, symObjAddr: 0x2C74C, symBinAddr: 0x10002FECC, symSize: 0x54 }
  - { offsetInCU: 0x7CCD2, offset: 0x7CCD2, size: 0x8, addend: 0x0, symName: __ZN3fmt2v96detail21compile_parse_contextIcNS1_13error_handlerEEC2ENS0_17basic_string_viewIcEEiPKNS1_4typeES3_i, symObjAddr: 0x2C7E4, symBinAddr: 0x10002FF64, symSize: 0x64 }
  - { offsetInCU: 0x7CD4D, offset: 0x7CD4D, size: 0x8, addend: 0x0, symName: __ZN3fmt2v99formatterIicvEC1Ev, symObjAddr: 0x2C848, symBinAddr: 0x10002FFC8, symSize: 0x2C }
  - { offsetInCU: 0x7CD86, offset: 0x7CD86, size: 0x8, addend: 0x0, symName: __ZN3fmt2v99formatterIicvE5parseINS0_6detail21compile_parse_contextIcNS4_13error_handlerEEEEEDTcldtfp_5beginEERT_, symObjAddr: 0x2C874, symBinAddr: 0x10002FFF4, symSize: 0x698 }
  - { offsetInCU: 0x7CE82, offset: 0x7CE82, size: 0x8, addend: 0x0, symName: __ZN3fmt2v99formatterIicvEC2Ev, symObjAddr: 0x2CF4C, symBinAddr: 0x1000306CC, symSize: 0x2C }
  - { offsetInCU: 0x7CEB5, offset: 0x7CEB5, size: 0x8, addend: 0x0, symName: __ZN3fmt2v96detail20dynamic_format_specsIcEC1Ev, symObjAddr: 0x2CF78, symBinAddr: 0x1000306F8, symSize: 0x2C }
  - { offsetInCU: 0x7CEE2, offset: 0x7CEE2, size: 0x8, addend: 0x0, symName: __ZN3fmt2v96detail20dynamic_format_specsIcEC2Ev, symObjAddr: 0x2CFA4, symBinAddr: 0x100030724, symSize: 0x44 }
  - { offsetInCU: 0x7CF0F, offset: 0x7CF0F, size: 0x8, addend: 0x0, symName: __ZN3fmt2v96detail7arg_refIcEC1Ev, symObjAddr: 0x2CFE8, symBinAddr: 0x100030768, symSize: 0x2C }
  - { offsetInCU: 0x7CF39, offset: 0x7CF39, size: 0x8, addend: 0x0, symName: __ZN3fmt2v96detail7arg_refIcEC2Ev, symObjAddr: 0x2D014, symBinAddr: 0x100030794, symSize: 0x38 }
  - { offsetInCU: 0x7CF63, offset: 0x7CF63, size: 0x8, addend: 0x0, symName: __ZN3fmt2v96detail7arg_refIcE5valueC1Ei, symObjAddr: 0x2D04C, symBinAddr: 0x1000307CC, symSize: 0x34 }
  - { offsetInCU: 0x7CF9C, offset: 0x7CF9C, size: 0x8, addend: 0x0, symName: __ZN3fmt2v96detail7arg_refIcE5valueC2Ei, symObjAddr: 0x2D080, symBinAddr: 0x100030800, symSize: 0x20 }
  - { offsetInCU: 0x7CFD5, offset: 0x7CFD5, size: 0x8, addend: 0x0, symName: __ZNK3fmt2v926basic_format_parse_contextIcNS0_6detail13error_handlerEE3endEv, symObjAddr: 0x2D0A0, symBinAddr: 0x100030820, symSize: 0x24 }
  - { offsetInCU: 0x7CFFB, offset: 0x7CFFB, size: 0x8, addend: 0x0, symName: __ZN3fmt2v96detail21dynamic_specs_handlerINS1_21compile_parse_contextIcNS1_13error_handlerEEEEC1ERNS1_20dynamic_format_specsIcEERS5_, symObjAddr: 0x2D0C4, symBinAddr: 0x100030844, symSize: 0x3C }
  - { offsetInCU: 0x7D043, offset: 0x7D043, size: 0x8, addend: 0x0, symName: __ZN3fmt2v96detail13specs_checkerINS1_21dynamic_specs_handlerINS1_21compile_parse_contextIcNS1_13error_handlerEEEEEEC1ERKS7_NS1_4typeE, symObjAddr: 0x2D100, symBinAddr: 0x100030880, symSize: 0x3C }
  - { offsetInCU: 0x7D08B, offset: 0x7D08B, size: 0x8, addend: 0x0, symName: __ZNK3fmt2v926basic_format_parse_contextIcNS0_6detail13error_handlerEE13error_handlerEv, symObjAddr: 0x2D13C, symBinAddr: 0x1000308BC, symSize: 0x10 }
  - { offsetInCU: 0x7D0B1, offset: 0x7D0B1, size: 0x8, addend: 0x0, symName: __ZN3fmt2v96detail21dynamic_specs_handlerINS1_21compile_parse_contextIcNS1_13error_handlerEEEEC2ERNS1_20dynamic_format_specsIcEERS5_, symObjAddr: 0x2D618, symBinAddr: 0x100030D98, symSize: 0x48 }
  - { offsetInCU: 0x7D0F9, offset: 0x7D0F9, size: 0x8, addend: 0x0, symName: __ZN3fmt2v96detail13specs_checkerINS1_21dynamic_specs_handlerINS1_21compile_parse_contextIcNS1_13error_handlerEEEEEEC2ERKS7_NS1_4typeE, symObjAddr: 0x2D660, symBinAddr: 0x100030DE0, symSize: 0x40 }
  - { offsetInCU: 0x7D141, offset: 0x7D141, size: 0x8, addend: 0x0, symName: __ZN3fmt2v96detail21dynamic_specs_handlerINS1_21compile_parse_contextIcNS1_13error_handlerEEEEC2ERKS6_, symObjAddr: 0x2D6A0, symBinAddr: 0x100030E20, symSize: 0x4C }
  - { offsetInCU: 0x7D17A, offset: 0x7D17A, size: 0x8, addend: 0x0, symName: __ZN3fmt2v96detail21dynamic_specs_handlerINS1_21compile_parse_contextIcNS1_13error_handlerEEEE8on_errorEPKc, symObjAddr: 0x2D6EC, symBinAddr: 0x100030E6C, symSize: 0x30 }
  - { offsetInCU: 0x7D1AF, offset: 0x7D1AF, size: 0x8, addend: 0x0, symName: __ZN3fmt2v96detail13specs_checkerINS1_21dynamic_specs_handlerINS1_21compile_parse_contextIcNS1_13error_handlerEEEEEE7on_signENS0_4sign4typeE, symObjAddr: 0x2D948, symBinAddr: 0x1000310C8, symSize: 0xC0 }
  - { offsetInCU: 0x7D1E4, offset: 0x7D1E4, size: 0x8, addend: 0x0, symName: __ZN3fmt2v96detail13specs_checkerINS1_21dynamic_specs_handlerINS1_21compile_parse_contextIcNS1_13error_handlerEEEEEE7on_hashEv, symObjAddr: 0x2DA08, symBinAddr: 0x100031188, symSize: 0x30 }
  - { offsetInCU: 0x7D20A, offset: 0x7D20A, size: 0x8, addend: 0x0, symName: __ZN3fmt2v96detail13specs_checkerINS1_21dynamic_specs_handlerINS1_21compile_parse_contextIcNS1_13error_handlerEEEEEE7on_zeroEv, symObjAddr: 0x2DA38, symBinAddr: 0x1000311B8, symSize: 0x30 }
  - { offsetInCU: 0x7D248, offset: 0x7D248, size: 0x8, addend: 0x0, symName: __ZN3fmt2v96detail13specs_checkerINS1_21dynamic_specs_handlerINS1_21compile_parse_contextIcNS1_13error_handlerEEEEEE12on_localizedEv, symObjAddr: 0x2DEB8, symBinAddr: 0x100031638, symSize: 0x30 }
  - { offsetInCU: 0x7D26E, offset: 0x7D26E, size: 0x8, addend: 0x0, symName: __ZN3fmt2v96detail13specs_checkerINS1_21dynamic_specs_handlerINS1_21compile_parse_contextIcNS1_13error_handlerEEEEEE8on_alignENS0_5align4typeE, symObjAddr: 0x2DEE8, symBinAddr: 0x100031668, symSize: 0x54 }
  - { offsetInCU: 0x7D2A3, offset: 0x7D2A3, size: 0x8, addend: 0x0, symName: __ZN3fmt2v96detail13specs_checkerINS1_21dynamic_specs_handlerINS1_21compile_parse_contextIcNS1_13error_handlerEEEEEE24require_numeric_argumentEv, symObjAddr: 0x2DF3C, symBinAddr: 0x1000316BC, symSize: 0x48 }
  - { offsetInCU: 0x7D2C9, offset: 0x7D2C9, size: 0x8, addend: 0x0, symName: __ZZN3fmt2v96detail11parse_widthIcRNS1_13specs_checkerINS1_21dynamic_specs_handlerINS1_21compile_parse_contextIcNS1_13error_handlerEEEEEEEEEPKT_SD_SD_OT0_EN13width_adapterclEv, symObjAddr: 0x2E204, symBinAddr: 0x100031984, symSize: 0x28 }
  - { offsetInCU: 0x7D2F3, offset: 0x7D2F3, size: 0x8, addend: 0x0, symName: __ZZN3fmt2v96detail11parse_widthIcRNS1_13specs_checkerINS1_21dynamic_specs_handlerINS1_21compile_parse_contextIcNS1_13error_handlerEEEEEEEEEPKT_SD_SD_OT0_EN13width_adapter8on_errorEPKc, symObjAddr: 0x2E22C, symBinAddr: 0x1000319AC, symSize: 0x50 }
  - { offsetInCU: 0x7D32C, offset: 0x7D32C, size: 0x8, addend: 0x0, symName: __ZZN3fmt2v96detail11parse_widthIcRNS1_13specs_checkerINS1_21dynamic_specs_handlerINS1_21compile_parse_contextIcNS1_13error_handlerEEEEEEEEEPKT_SD_SD_OT0_EN13width_adapterclEi, symObjAddr: 0x2E27C, symBinAddr: 0x1000319FC, symSize: 0x30 }
  - { offsetInCU: 0x7D365, offset: 0x7D365, size: 0x8, addend: 0x0, symName: __ZZN3fmt2v96detail11parse_widthIcRNS1_13specs_checkerINS1_21dynamic_specs_handlerINS1_21compile_parse_contextIcNS1_13error_handlerEEEEEEEEEPKT_SD_SD_OT0_EN13width_adapterclENS0_17basic_string_viewIcEE, symObjAddr: 0x2E2AC, symBinAddr: 0x100031A2C, symSize: 0x40 }
  - { offsetInCU: 0x7D39E, offset: 0x7D39E, size: 0x8, addend: 0x0, symName: __ZN3fmt2v96detail21dynamic_specs_handlerINS1_21compile_parse_contextIcNS1_13error_handlerEEEE16on_dynamic_widthIiEEvT_, symObjAddr: 0x2E2EC, symBinAddr: 0x100031A6C, symSize: 0x4C }
  - { offsetInCU: 0x7D3DC, offset: 0x7D3DC, size: 0x8, addend: 0x0, symName: __ZN3fmt2v96detail21dynamic_specs_handlerINS1_21compile_parse_contextIcNS1_13error_handlerEEEE12make_arg_refEi, symObjAddr: 0x2E338, symBinAddr: 0x100031AB8, symSize: 0x54 }
  - { offsetInCU: 0x7D411, offset: 0x7D411, size: 0x8, addend: 0x0, symName: __ZN3fmt2v96detail21compile_parse_contextIcNS1_13error_handlerEE18check_dynamic_specEi, symObjAddr: 0x2E38C, symBinAddr: 0x100031B0C, symSize: 0x88 }
  - { offsetInCU: 0x7D446, offset: 0x7D446, size: 0x8, addend: 0x0, symName: __ZN3fmt2v96detail7arg_refIcEC1Ei, symObjAddr: 0x2E414, symBinAddr: 0x100031B94, symSize: 0x34 }
  - { offsetInCU: 0x7D47F, offset: 0x7D47F, size: 0x8, addend: 0x0, symName: __ZN3fmt2v96detail7arg_refIcEC2Ei, symObjAddr: 0x2E448, symBinAddr: 0x100031BC8, symSize: 0x40 }
  - { offsetInCU: 0x7D4B8, offset: 0x7D4B8, size: 0x8, addend: 0x0, symName: __ZN3fmt2v96detail21dynamic_specs_handlerINS1_21compile_parse_contextIcNS1_13error_handlerEEEE16on_dynamic_widthINS0_17basic_string_viewIcEEEEvT_, symObjAddr: 0x2E488, symBinAddr: 0x100031C08, symSize: 0x5C }
  - { offsetInCU: 0x7D4F6, offset: 0x7D4F6, size: 0x8, addend: 0x0, symName: __ZN3fmt2v96detail21dynamic_specs_handlerINS1_21compile_parse_contextIcNS1_13error_handlerEEEE12make_arg_refENS0_17basic_string_viewIcEE, symObjAddr: 0x2E4E4, symBinAddr: 0x100031C64, symSize: 0xAC }
  - { offsetInCU: 0x7D53A, offset: 0x7D53A, size: 0x8, addend: 0x0, symName: __ZN3fmt2v96detail7arg_refIcEC1ENS0_17basic_string_viewIcEE, symObjAddr: 0x2E590, symBinAddr: 0x100031D10, symSize: 0x3C }
  - { offsetInCU: 0x7D573, offset: 0x7D573, size: 0x8, addend: 0x0, symName: __ZN3fmt2v96detail7arg_refIcEC2ENS0_17basic_string_viewIcEE, symObjAddr: 0x2E5CC, symBinAddr: 0x100031D4C, symSize: 0x50 }
  - { offsetInCU: 0x7D5AC, offset: 0x7D5AC, size: 0x8, addend: 0x0, symName: __ZN3fmt2v96detail7arg_refIcE5valueC1ENS0_17basic_string_viewIcEE, symObjAddr: 0x2E61C, symBinAddr: 0x100031D9C, symSize: 0x3C }
  - { offsetInCU: 0x7D5E5, offset: 0x7D5E5, size: 0x8, addend: 0x0, symName: __ZN3fmt2v96detail7arg_refIcE5valueC2ENS0_17basic_string_viewIcEE, symObjAddr: 0x2E658, symBinAddr: 0x100031DD8, symSize: 0x24 }
  - { offsetInCU: 0x7D61E, offset: 0x7D61E, size: 0x8, addend: 0x0, symName: __ZN3fmt2v96detail21dynamic_specs_handlerINS1_21compile_parse_contextIcNS1_13error_handlerEEEE16on_dynamic_widthINS1_7auto_idEEEvT_, symObjAddr: 0x2E67C, symBinAddr: 0x100031DFC, symSize: 0x44 }
  - { offsetInCU: 0x7D65C, offset: 0x7D65C, size: 0x8, addend: 0x0, symName: __ZN3fmt2v96detail21dynamic_specs_handlerINS1_21compile_parse_contextIcNS1_13error_handlerEEEE12make_arg_refENS1_7auto_idE, symObjAddr: 0x2E6C0, symBinAddr: 0x100031E40, symSize: 0x50 }
  - { offsetInCU: 0x7D69D, offset: 0x7D69D, size: 0x8, addend: 0x0, symName: __ZN3fmt2v96detail13specs_checkerINS1_21dynamic_specs_handlerINS1_21compile_parse_contextIcNS1_13error_handlerEEEEEE13end_precisionEv, symObjAddr: 0x2E710, symBinAddr: 0x100031E90, symSize: 0x60 }
  - { offsetInCU: 0x7D6C3, offset: 0x7D6C3, size: 0x8, addend: 0x0, symName: __ZZN3fmt2v96detail15parse_precisionIcRNS1_13specs_checkerINS1_21dynamic_specs_handlerINS1_21compile_parse_contextIcNS1_13error_handlerEEEEEEEEEPKT_SD_SD_OT0_EN17precision_adapterclEv, symObjAddr: 0x2E9F0, symBinAddr: 0x100032170, symSize: 0x28 }
  - { offsetInCU: 0x7D6ED, offset: 0x7D6ED, size: 0x8, addend: 0x0, symName: __ZZN3fmt2v96detail15parse_precisionIcRNS1_13specs_checkerINS1_21dynamic_specs_handlerINS1_21compile_parse_contextIcNS1_13error_handlerEEEEEEEEEPKT_SD_SD_OT0_EN17precision_adapter8on_errorEPKc, symObjAddr: 0x2EA18, symBinAddr: 0x100032198, symSize: 0x50 }
  - { offsetInCU: 0x7D726, offset: 0x7D726, size: 0x8, addend: 0x0, symName: __ZZN3fmt2v96detail15parse_precisionIcRNS1_13specs_checkerINS1_21dynamic_specs_handlerINS1_21compile_parse_contextIcNS1_13error_handlerEEEEEEEEEPKT_SD_SD_OT0_EN17precision_adapterclEi, symObjAddr: 0x2EA68, symBinAddr: 0x1000321E8, symSize: 0x30 }
  - { offsetInCU: 0x7D75F, offset: 0x7D75F, size: 0x8, addend: 0x0, symName: __ZZN3fmt2v96detail15parse_precisionIcRNS1_13specs_checkerINS1_21dynamic_specs_handlerINS1_21compile_parse_contextIcNS1_13error_handlerEEEEEEEEEPKT_SD_SD_OT0_EN17precision_adapterclENS0_17basic_string_viewIcEE, symObjAddr: 0x2EA98, symBinAddr: 0x100032218, symSize: 0x40 }
  - { offsetInCU: 0x7D798, offset: 0x7D798, size: 0x8, addend: 0x0, symName: __ZN3fmt2v96detail21dynamic_specs_handlerINS1_21compile_parse_contextIcNS1_13error_handlerEEEE20on_dynamic_precisionIiEEvT_, symObjAddr: 0x2EAD8, symBinAddr: 0x100032258, symSize: 0x4C }
  - { offsetInCU: 0x7D7D6, offset: 0x7D7D6, size: 0x8, addend: 0x0, symName: __ZN3fmt2v96detail21dynamic_specs_handlerINS1_21compile_parse_contextIcNS1_13error_handlerEEEE20on_dynamic_precisionINS0_17basic_string_viewIcEEEEvT_, symObjAddr: 0x2EB24, symBinAddr: 0x1000322A4, symSize: 0x5C }
  - { offsetInCU: 0x7D814, offset: 0x7D814, size: 0x8, addend: 0x0, symName: __ZN3fmt2v96detail21dynamic_specs_handlerINS1_21compile_parse_contextIcNS1_13error_handlerEEEE20on_dynamic_precisionINS1_7auto_idEEEvT_, symObjAddr: 0x2EB80, symBinAddr: 0x100032300, symSize: 0x44 }
  - { offsetInCU: 0x7D875, offset: 0x7D875, size: 0x8, addend: 0x0, symName: __ZNSt3__14pairIPKcPcEC1B7v160006IS2_S3_LPv0EEEOT_OT0_, symObjAddr: 0x2ECC8, symBinAddr: 0x100032448, symSize: 0x3C }
  - { offsetInCU: 0x7D8D3, offset: 0x7D8D3, size: 0x8, addend: 0x0, symName: __ZNSt3__14pairIPKcPcEC2B7v160006IS2_S3_LPv0EEEOT_OT0_, symObjAddr: 0x2ED04, symBinAddr: 0x100032484, symSize: 0x34 }
  - { offsetInCU: 0x7D931, offset: 0x7D931, size: 0x8, addend: 0x0, symName: __ZNSt3__16chrono8durationIxNS_5ratioILl1ELl1000EEEEC1B7v160006IxEERKT_PNS_9enable_ifIXaasr14is_convertibleIS8_xEE5valueooL_ZNS_17integral_constantIbLb0EE5valueEEntsr23treat_as_floating_pointIS6_EE5valueEvE4typeE, symObjAddr: 0x2EE08, symBinAddr: 0x100032588, symSize: 0x3C }
  - { offsetInCU: 0x7D97E, offset: 0x7D97E, size: 0x8, addend: 0x0, symName: __ZNSt3__16chrono8durationIxNS_5ratioILl1ELl1000EEEEC2B7v160006IxEERKT_PNS_9enable_ifIXaasr14is_convertibleIS8_xEE5valueooL_ZNS_17integral_constantIbLb0EE5valueEEntsr23treat_as_floating_pointIS6_EE5valueEvE4typeE, symObjAddr: 0x2EE44, symBinAddr: 0x1000325C4, symSize: 0x28 }
  - { offsetInCU: 0x7D9CB, offset: 0x7D9CB, size: 0x8, addend: 0x0, symName: __ZN3fmt2v910format_intC1Ej, symObjAddr: 0x2EFA8, symBinAddr: 0x100032728, symSize: 0x34 }
  - { offsetInCU: 0x7DA04, offset: 0x7DA04, size: 0x8, addend: 0x0, symName: __ZN3fmt2v910format_intC2Ej, symObjAddr: 0x2EFDC, symBinAddr: 0x10003275C, symSize: 0x3C }
  - { offsetInCU: 0x7DA3C, offset: 0x7DA3C, size: 0x8, addend: 0x0, symName: __Z7strrchrB7v160006Ua9enable_ifIXLb1EEEPKci, symObjAddr: 0x2F018, symBinAddr: 0x100032798, symSize: 0x2C }
  - { offsetInCU: 0x7DA77, offset: 0x7DA77, size: 0x8, addend: 0x0, symName: __ZNSt3__111char_traitsIcE6lengthEPKc, symObjAddr: 0x2F044, symBinAddr: 0x1000327C4, symSize: 0x34 }
  - { offsetInCU: 0x7DA9A, offset: 0x7DA9A, size: 0x8, addend: 0x0, symName: __ZNSt3__110unique_ptrIN6spdlog7details14full_formatterENS_14default_deleteIS3_EEEC2B7v160006ILb1EvEEPS3_, symObjAddr: 0x2F09C, symBinAddr: 0x10003281C, symSize: 0x44 }
  - { offsetInCU: 0x7DADD, offset: 0x7DADD, size: 0x8, addend: 0x0, symName: __ZNSt3__117__compressed_pairIPN6spdlog7details14full_formatterENS_14default_deleteIS3_EEEC1B7v160006IRS4_NS_16__value_init_tagEEEOT_OT0_, symObjAddr: 0x2F0E0, symBinAddr: 0x100032860, symSize: 0x3C }
  - { offsetInCU: 0x7DB35, offset: 0x7DB35, size: 0x8, addend: 0x0, symName: __ZNSt3__117__compressed_pairIPN6spdlog7details14full_formatterENS_14default_deleteIS3_EEEC2B7v160006IRS4_NS_16__value_init_tagEEEOT_OT0_, symObjAddr: 0x2F11C, symBinAddr: 0x10003289C, symSize: 0x40 }
  - { offsetInCU: 0x7DB8D, offset: 0x7DB8D, size: 0x8, addend: 0x0, symName: __ZNSt3__122__compressed_pair_elemIPN6spdlog7details14full_formatterELi0ELb0EEC2B7v160006IRS4_vEEOT_, symObjAddr: 0x2F15C, symBinAddr: 0x1000328DC, symSize: 0x24 }
  - { offsetInCU: 0x7DBCF, offset: 0x7DBCF, size: 0x8, addend: 0x0, symName: __ZNSt3__122__compressed_pair_elemINS_14default_deleteIN6spdlog7details14full_formatterEEELi1ELb1EEC2B7v160006ENS_16__value_init_tagE, symObjAddr: 0x2F180, symBinAddr: 0x100032900, symSize: 0x14 }
  - { offsetInCU: 0x7DC04, offset: 0x7DC04, size: 0x8, addend: 0x0, symName: __ZN6spdlog7details12padding_infoC2Ev, symObjAddr: 0x2F194, symBinAddr: 0x100032914, symSize: 0x24 }
  - { offsetInCU: 0x7DC2E, offset: 0x7DC2E, size: 0x8, addend: 0x0, symName: __ZNSt3__110unique_ptrIN6spdlog7details14flag_formatterENS_14default_deleteIS3_EEEC2B7v160006INS2_14full_formatterENS4_IS8_EEvvEEONS0_IT_T0_EE, symObjAddr: 0x2F1B8, symBinAddr: 0x100032938, symSize: 0x60 }
  - { offsetInCU: 0x7DC7A, offset: 0x7DC7A, size: 0x8, addend: 0x0, symName: __ZNSt3__110unique_ptrIN6spdlog7details14full_formatterENS_14default_deleteIS3_EEE7releaseB7v160006Ev, symObjAddr: 0x2F218, symBinAddr: 0x100032998, symSize: 0x44 }
  - { offsetInCU: 0x7DCAF, offset: 0x7DCAF, size: 0x8, addend: 0x0, symName: __ZNSt3__110unique_ptrIN6spdlog7details14full_formatterENS_14default_deleteIS3_EEE11get_deleterB7v160006Ev, symObjAddr: 0x2F25C, symBinAddr: 0x1000329DC, symSize: 0x24 }
  - { offsetInCU: 0x7DCE1, offset: 0x7DCE1, size: 0x8, addend: 0x0, symName: __ZNSt3__117__compressed_pairIPN6spdlog7details14flag_formatterENS_14default_deleteIS3_EEEC1B7v160006IPNS2_14full_formatterENS5_IS9_EEEEOT_OT0_, symObjAddr: 0x2F280, symBinAddr: 0x100032A00, symSize: 0x3C }
  - { offsetInCU: 0x7DD39, offset: 0x7DD39, size: 0x8, addend: 0x0, symName: __ZNSt3__117__compressed_pairIPN6spdlog7details14full_formatterENS_14default_deleteIS3_EEE5firstB7v160006Ev, symObjAddr: 0x2F2BC, symBinAddr: 0x100032A3C, symSize: 0x24 }
  - { offsetInCU: 0x7DD5F, offset: 0x7DD5F, size: 0x8, addend: 0x0, symName: __ZNSt3__122__compressed_pair_elemIPN6spdlog7details14full_formatterELi0ELb0EE5__getB7v160006Ev, symObjAddr: 0x2F2E0, symBinAddr: 0x100032A60, symSize: 0x14 }
  - { offsetInCU: 0x7DD85, offset: 0x7DD85, size: 0x8, addend: 0x0, symName: __ZNSt3__117__compressed_pairIPN6spdlog7details14full_formatterENS_14default_deleteIS3_EEE6secondB7v160006Ev, symObjAddr: 0x2F2F4, symBinAddr: 0x100032A74, symSize: 0x24 }
  - { offsetInCU: 0x7DDAB, offset: 0x7DDAB, size: 0x8, addend: 0x0, symName: __ZNSt3__122__compressed_pair_elemINS_14default_deleteIN6spdlog7details14full_formatterEEELi1ELb1EE5__getB7v160006Ev, symObjAddr: 0x2F318, symBinAddr: 0x100032A98, symSize: 0x14 }
  - { offsetInCU: 0x7DDD1, offset: 0x7DDD1, size: 0x8, addend: 0x0, symName: __ZNSt3__117__compressed_pairIPN6spdlog7details14flag_formatterENS_14default_deleteIS3_EEEC2B7v160006IPNS2_14full_formatterENS5_IS9_EEEEOT_OT0_, symObjAddr: 0x2F32C, symBinAddr: 0x100032AAC, symSize: 0x44 }
  - { offsetInCU: 0x7DE29, offset: 0x7DE29, size: 0x8, addend: 0x0, symName: __ZNSt3__122__compressed_pair_elemIPN6spdlog7details14flag_formatterELi0ELb0EEC2B7v160006IPNS2_14full_formatterEvEEOT_, symObjAddr: 0x2F370, symBinAddr: 0x100032AF0, symSize: 0x24 }
  - { offsetInCU: 0x7DE6B, offset: 0x7DE6B, size: 0x8, addend: 0x0, symName: __ZNSt3__122__compressed_pair_elemINS_14default_deleteIN6spdlog7details14flag_formatterEEELi1ELb1EEC2B7v160006INS1_INS3_14full_formatterEEEvEEOT_, symObjAddr: 0x2F394, symBinAddr: 0x100032B14, symSize: 0x38 }
  - { offsetInCU: 0x7DEAD, offset: 0x7DEAD, size: 0x8, addend: 0x0, symName: __ZNSt3__114default_deleteIN6spdlog7details14flag_formatterEEC2B7v160006INS2_14full_formatterEEERKNS0_IT_EEPNS_9enable_ifIXsr14is_convertibleIPS7_PS3_EE5valueEvE4typeE, symObjAddr: 0x2F3CC, symBinAddr: 0x100032B4C, symSize: 0x1C }
  - { offsetInCU: 0x7DEF6, offset: 0x7DEF6, size: 0x8, addend: 0x0, symName: __ZNSt3__110unique_ptrIN6spdlog7details14flag_formatterENS_14default_deleteIS3_EEED2B7v160006Ev, symObjAddr: 0x2F3E8, symBinAddr: 0x100032B68, symSize: 0x30 }
  - { offsetInCU: 0x7DF20, offset: 0x7DF20, size: 0x8, addend: 0x0, symName: __ZNSt3__110unique_ptrIN6spdlog7details14flag_formatterENS_14default_deleteIS3_EEE5resetB7v160006EPS3_, symObjAddr: 0x2F418, symBinAddr: 0x100032B98, symSize: 0x78 }
  - { offsetInCU: 0x7DF64, offset: 0x7DF64, size: 0x8, addend: 0x0, symName: __ZNKSt3__114default_deleteIN6spdlog7details14flag_formatterEEclB7v160006EPS3_, symObjAddr: 0x2F490, symBinAddr: 0x100032C10, symSize: 0x4C }
  - { offsetInCU: 0x7DF98, offset: 0x7DF98, size: 0x8, addend: 0x0, symName: __ZNSt3__110unique_ptrIN6spdlog7details14full_formatterENS_14default_deleteIS3_EEED2B7v160006Ev, symObjAddr: 0x2F4DC, symBinAddr: 0x100032C5C, symSize: 0x30 }
  - { offsetInCU: 0x7DFC2, offset: 0x7DFC2, size: 0x8, addend: 0x0, symName: __ZNSt3__110unique_ptrIN6spdlog7details14full_formatterENS_14default_deleteIS3_EEE5resetB7v160006EPS3_, symObjAddr: 0x2F50C, symBinAddr: 0x100032C8C, symSize: 0x78 }
  - { offsetInCU: 0x7E006, offset: 0x7E006, size: 0x8, addend: 0x0, symName: __ZNKSt3__114default_deleteIN6spdlog7details14full_formatterEEclB7v160006EPS3_, symObjAddr: 0x2F584, symBinAddr: 0x100032D04, symSize: 0x4C }
  - { offsetInCU: 0x7E03A, offset: 0x7E03A, size: 0x8, addend: 0x0, symName: __ZNSt3__16vectorINS_10unique_ptrIN6spdlog7details14flag_formatterENS_14default_deleteIS4_EEEENS_9allocatorIS7_EEED2B7v160006Ev, symObjAddr: 0x2F5D0, symBinAddr: 0x100032D50, symSize: 0x44 }
  - { offsetInCU: 0x7E064, offset: 0x7E064, size: 0x8, addend: 0x0, symName: __ZNSt3__16vectorINS_10unique_ptrIN6spdlog7details14flag_formatterENS_14default_deleteIS4_EEEENS_9allocatorIS7_EEE16__destroy_vectorC1ERSA_, symObjAddr: 0x2F614, symBinAddr: 0x100032D94, symSize: 0x34 }
  - { offsetInCU: 0x7E09D, offset: 0x7E09D, size: 0x8, addend: 0x0, symName: __ZNSt3__16vectorINS_10unique_ptrIN6spdlog7details14flag_formatterENS_14default_deleteIS4_EEEENS_9allocatorIS7_EEE16__destroy_vectorclB7v160006Ev, symObjAddr: 0x2F648, symBinAddr: 0x100032DC8, symSize: 0x9C }
  - { offsetInCU: 0x7E0C3, offset: 0x7E0C3, size: 0x8, addend: 0x0, symName: __ZNSt3__16vectorINS_10unique_ptrIN6spdlog7details14flag_formatterENS_14default_deleteIS4_EEEENS_9allocatorIS7_EEE16__destroy_vectorC2ERSA_, symObjAddr: 0x2F6E4, symBinAddr: 0x100032E64, symSize: 0x20 }
  - { offsetInCU: 0x7E0FC, offset: 0x7E0FC, size: 0x8, addend: 0x0, symName: __ZNSt3__16vectorINS_10unique_ptrIN6spdlog7details14flag_formatterENS_14default_deleteIS4_EEEENS_9allocatorIS7_EEE7__clearB7v160006Ev, symObjAddr: 0x2F714, symBinAddr: 0x100032E94, symSize: 0x28 }
  - { offsetInCU: 0x7E122, offset: 0x7E122, size: 0x8, addend: 0x0, symName: __ZNSt3__16vectorINS_10unique_ptrIN6spdlog7details14flag_formatterENS_14default_deleteIS4_EEEENS_9allocatorIS7_EEE22__base_destruct_at_endB7v160006EPS7_, symObjAddr: 0x2F73C, symBinAddr: 0x100032EBC, symSize: 0x8C }
  - { offsetInCU: 0x7E166, offset: 0x7E166, size: 0x8, addend: 0x0, symName: __ZN6spdlog17pattern_formatterD2Ev, symObjAddr: 0x2F7C8, symBinAddr: 0x100032F48, symSize: 0x5C }
  - { offsetInCU: 0x7E192, offset: 0x7E192, size: 0x8, addend: 0x0, symName: __ZN6spdlog17pattern_formatter9get_time_ERKNS_7details7log_msgE, symObjAddr: 0x2F824, symBinAddr: 0x100032FA4, symSize: 0x84 }
  - { offsetInCU: 0x7E1CA, offset: 0x7E1CA, size: 0x8, addend: 0x0, symName: __ZNSt3__16vectorINS_10unique_ptrIN6spdlog7details14flag_formatterENS_14default_deleteIS4_EEEENS_9allocatorIS7_EEE5beginB7v160006Ev, symObjAddr: 0x2F8A8, symBinAddr: 0x100033028, symSize: 0x30 }
  - { offsetInCU: 0x7E1F2, offset: 0x7E1F2, size: 0x8, addend: 0x0, symName: __ZNSt3__16vectorINS_10unique_ptrIN6spdlog7details14flag_formatterENS_14default_deleteIS4_EEEENS_9allocatorIS7_EEE3endB7v160006Ev, symObjAddr: 0x2F8D8, symBinAddr: 0x100033058, symSize: 0x30 }
  - { offsetInCU: 0x7E21A, offset: 0x7E21A, size: 0x8, addend: 0x0, symName: __ZNKSt3__111__wrap_iterIPNS_10unique_ptrIN6spdlog7details14flag_formatterENS_14default_deleteIS4_EEEEEdeB7v160006Ev, symObjAddr: 0x2F93C, symBinAddr: 0x1000330BC, symSize: 0x18 }
  - { offsetInCU: 0x7E240, offset: 0x7E240, size: 0x8, addend: 0x0, symName: __ZNKSt3__110unique_ptrIN6spdlog7details14flag_formatterENS_14default_deleteIS3_EEEptB7v160006Ev, symObjAddr: 0x2F954, symBinAddr: 0x1000330D4, symSize: 0x28 }
  - { offsetInCU: 0x7E266, offset: 0x7E266, size: 0x8, addend: 0x0, symName: __ZNSt3__111__wrap_iterIPNS_10unique_ptrIN6spdlog7details14flag_formatterENS_14default_deleteIS4_EEEEEppB7v160006Ev, symObjAddr: 0x2F97C, symBinAddr: 0x1000330FC, symSize: 0x20 }
  - { offsetInCU: 0x7E28C, offset: 0x7E28C, size: 0x8, addend: 0x0, symName: __ZN3fmt2v917basic_string_viewIcEC1INSt3__111char_traitsIcEENS4_9allocatorIcEEEERKNS4_12basic_stringIcT_T0_EE, symObjAddr: 0x2F99C, symBinAddr: 0x10003311C, symSize: 0x34 }
  - { offsetInCU: 0x7E2D7, offset: 0x7E2D7, size: 0x8, addend: 0x0, symName: __ZNSt3__16vectorINS_10unique_ptrIN6spdlog7details14flag_formatterENS_14default_deleteIS4_EEEENS_9allocatorIS7_EEE11__make_iterB7v160006EPS7_, symObjAddr: 0x2FA30, symBinAddr: 0x1000331B0, symSize: 0x34 }
  - { offsetInCU: 0x7E30C, offset: 0x7E30C, size: 0x8, addend: 0x0, symName: __ZNSt3__111__wrap_iterIPNS_10unique_ptrIN6spdlog7details14flag_formatterENS_14default_deleteIS4_EEEEEC1B7v160006EPKvS8_, symObjAddr: 0x2FA64, symBinAddr: 0x1000331E4, symSize: 0x3C }
  - { offsetInCU: 0x7E352, offset: 0x7E352, size: 0x8, addend: 0x0, symName: __ZNSt3__111__wrap_iterIPNS_10unique_ptrIN6spdlog7details14flag_formatterENS_14default_deleteIS4_EEEEEC2B7v160006EPKvS8_, symObjAddr: 0x2FAA0, symBinAddr: 0x100033220, symSize: 0x24 }
  - { offsetInCU: 0x7E398, offset: 0x7E398, size: 0x8, addend: 0x0, symName: __ZNKSt3__111__wrap_iterIPNS_10unique_ptrIN6spdlog7details14flag_formatterENS_14default_deleteIS4_EEEEE4baseB7v160006Ev, symObjAddr: 0x2FB0C, symBinAddr: 0x10003328C, symSize: 0x18 }
  - { offsetInCU: 0x7E3BE, offset: 0x7E3BE, size: 0x8, addend: 0x0, symName: __ZNKSt3__117__compressed_pairIPN6spdlog7details14flag_formatterENS_14default_deleteIS3_EEE5firstB7v160006Ev, symObjAddr: 0x2FB24, symBinAddr: 0x1000332A4, symSize: 0x24 }
  - { offsetInCU: 0x7E3E4, offset: 0x7E3E4, size: 0x8, addend: 0x0, symName: __ZNKSt3__122__compressed_pair_elemIPN6spdlog7details14flag_formatterELi0ELb0EE5__getB7v160006Ev, symObjAddr: 0x2FB48, symBinAddr: 0x1000332C8, symSize: 0x14 }
  - { offsetInCU: 0x7E40A, offset: 0x7E40A, size: 0x8, addend: 0x0, symName: __ZN3fmt2v917basic_string_viewIcEC2INSt3__111char_traitsIcEENS4_9allocatorIcEEEERKNS4_12basic_stringIcT_T0_EE, symObjAddr: 0x2FB5C, symBinAddr: 0x1000332DC, symSize: 0x4C }
  - { offsetInCU: 0x7E455, offset: 0x7E455, size: 0x8, addend: 0x0, symName: __ZNKSt3__113unordered_mapIcNS_10unique_ptrIN6spdlog21custom_flag_formatterENS_14default_deleteIS3_EEEENS_4hashIcEENS_8equal_toIcEENS_9allocatorINS_4pairIKcS6_EEEEE5beginB7v160006Ev, symObjAddr: 0x2FBA8, symBinAddr: 0x100033328, symSize: 0x38 }
  - { offsetInCU: 0x7E47B, offset: 0x7E47B, size: 0x8, addend: 0x0, symName: __ZNKSt3__113unordered_mapIcNS_10unique_ptrIN6spdlog21custom_flag_formatterENS_14default_deleteIS3_EEEENS_4hashIcEENS_8equal_toIcEENS_9allocatorINS_4pairIKcS6_EEEEE3endB7v160006Ev, symObjAddr: 0x2FBE0, symBinAddr: 0x100033360, symSize: 0x38 }
  - { offsetInCU: 0x7E4A1, offset: 0x7E4A1, size: 0x8, addend: 0x0, symName: __ZNKSt3__125__hash_map_const_iteratorINS_21__hash_const_iteratorIPNS_11__hash_nodeINS_17__hash_value_typeIcNS_10unique_ptrIN6spdlog21custom_flag_formatterENS_14default_deleteIS6_EEEEEEPvEEEEEdeB7v160006Ev, symObjAddr: 0x2FC48, symBinAddr: 0x1000333C8, symSize: 0x28 }
  - { offsetInCU: 0x7E4C7, offset: 0x7E4C7, size: 0x8, addend: 0x0, symName: __ZNKSt3__110unique_ptrIN6spdlog21custom_flag_formatterENS_14default_deleteIS2_EEEptB7v160006Ev, symObjAddr: 0x2FC70, symBinAddr: 0x1000333F0, symSize: 0x28 }
  - { offsetInCU: 0x7E4ED, offset: 0x7E4ED, size: 0x8, addend: 0x0, symName: __ZNSt3__113unordered_mapIcNS_10unique_ptrIN6spdlog21custom_flag_formatterENS_14default_deleteIS3_EEEENS_4hashIcEENS_8equal_toIcEENS_9allocatorINS_4pairIKcS6_EEEEEixERSD_, symObjAddr: 0x2FC98, symBinAddr: 0x100033418, symSize: 0x80 }
  - { offsetInCU: 0x7E524, offset: 0x7E524, size: 0x8, addend: 0x0, symName: __ZNSt3__110unique_ptrIN6spdlog21custom_flag_formatterENS_14default_deleteIS2_EEEaSB7v160006EOS5_, symObjAddr: 0x2FD18, symBinAddr: 0x100033498, symSize: 0x50 }
  - { offsetInCU: 0x7E558, offset: 0x7E558, size: 0x8, addend: 0x0, symName: __ZNSt3__110unique_ptrIN6spdlog21custom_flag_formatterENS_14default_deleteIS2_EEED1B7v160006Ev, symObjAddr: 0x2FD68, symBinAddr: 0x1000334E8, symSize: 0x2C }
  - { offsetInCU: 0x7E582, offset: 0x7E582, size: 0x8, addend: 0x0, symName: __ZNSt3__125__hash_map_const_iteratorINS_21__hash_const_iteratorIPNS_11__hash_nodeINS_17__hash_value_typeIcNS_10unique_ptrIN6spdlog21custom_flag_formatterENS_14default_deleteIS6_EEEEEEPvEEEEEppB7v160006Ev, symObjAddr: 0x2FD94, symBinAddr: 0x100033514, symSize: 0x2C }
  - { offsetInCU: 0x7E5A8, offset: 0x7E5A8, size: 0x8, addend: 0x0, symName: __ZNKSt3__110unique_ptrIN6spdlog17pattern_formatterENS_14default_deleteIS2_EEEptB7v160006Ev, symObjAddr: 0x2FF1C, symBinAddr: 0x10003369C, symSize: 0x28 }
  - { offsetInCU: 0x7E5CE, offset: 0x7E5CE, size: 0x8, addend: 0x0, symName: __ZN6spdlog17pattern_formatter14need_localtimeEb, symObjAddr: 0x2FF44, symBinAddr: 0x1000336C4, symSize: 0x2C }
  - { offsetInCU: 0x7E606, offset: 0x7E606, size: 0x8, addend: 0x0, symName: __ZNSt3__110unique_ptrIN6spdlog9formatterENS_14default_deleteIS2_EEEC1B7v160006INS1_17pattern_formatterENS3_IS7_EEvvEEONS0_IT_T0_EE, symObjAddr: 0x2FF70, symBinAddr: 0x1000336F0, symSize: 0x34 }
  - { offsetInCU: 0x7E652, offset: 0x7E652, size: 0x8, addend: 0x0, symName: __ZNSt3__110unique_ptrIN6spdlog17pattern_formatterENS_14default_deleteIS2_EEED1B7v160006Ev, symObjAddr: 0x2FFA4, symBinAddr: 0x100033724, symSize: 0x2C }
  - { offsetInCU: 0x7E67C, offset: 0x7E67C, size: 0x8, addend: 0x0, symName: __ZNKSt3__112__hash_tableINS_17__hash_value_typeIcNS_10unique_ptrIN6spdlog21custom_flag_formatterENS_14default_deleteIS4_EEEEEENS_22__unordered_map_hasherIcS8_NS_4hashIcEENS_8equal_toIcEELb1EEENS_21__unordered_map_equalIcS8_SD_SB_Lb1EEENS_9allocatorIS8_EEE5beginEv, symObjAddr: 0x2FFD0, symBinAddr: 0x100033750, symSize: 0x40 }
  - { offsetInCU: 0x7E6A4, offset: 0x7E6A4, size: 0x8, addend: 0x0, symName: __ZNSt3__125__hash_map_const_iteratorINS_21__hash_const_iteratorIPNS_11__hash_nodeINS_17__hash_value_typeIcNS_10unique_ptrIN6spdlog21custom_flag_formatterENS_14default_deleteIS6_EEEEEEPvEEEEEC1B7v160006ESE_, symObjAddr: 0x30010, symBinAddr: 0x100033790, symSize: 0x34 }
  - { offsetInCU: 0x7E6DD, offset: 0x7E6DD, size: 0x8, addend: 0x0, symName: __ZNKSt3__117__compressed_pairINS_16__hash_node_baseIPNS_11__hash_nodeINS_17__hash_value_typeIcNS_10unique_ptrIN6spdlog21custom_flag_formatterENS_14default_deleteIS6_EEEEEEPvEEEENS_9allocatorISC_EEE5firstB7v160006Ev, symObjAddr: 0x30044, symBinAddr: 0x1000337C4, symSize: 0x24 }
  - { offsetInCU: 0x7E703, offset: 0x7E703, size: 0x8, addend: 0x0, symName: __ZNSt3__121__hash_const_iteratorIPNS_11__hash_nodeINS_17__hash_value_typeIcNS_10unique_ptrIN6spdlog21custom_flag_formatterENS_14default_deleteIS5_EEEEEEPvEEEC1B7v160006EPNS_16__hash_node_baseISC_EEPKv, symObjAddr: 0x30068, symBinAddr: 0x1000337E8, symSize: 0x3C }
  - { offsetInCU: 0x7E74B, offset: 0x7E74B, size: 0x8, addend: 0x0, symName: __ZNKSt3__122__compressed_pair_elemINS_16__hash_node_baseIPNS_11__hash_nodeINS_17__hash_value_typeIcNS_10unique_ptrIN6spdlog21custom_flag_formatterENS_14default_deleteIS6_EEEEEEPvEEEELi0ELb0EE5__getB7v160006Ev, symObjAddr: 0x300A4, symBinAddr: 0x100033824, symSize: 0x14 }
  - { offsetInCU: 0x7E771, offset: 0x7E771, size: 0x8, addend: 0x0, symName: __ZNSt3__121__hash_const_iteratorIPNS_11__hash_nodeINS_17__hash_value_typeIcNS_10unique_ptrIN6spdlog21custom_flag_formatterENS_14default_deleteIS5_EEEEEEPvEEEC2B7v160006EPNS_16__hash_node_baseISC_EEPKv, symObjAddr: 0x300B8, symBinAddr: 0x100033838, symSize: 0x24 }
  - { offsetInCU: 0x7E7B9, offset: 0x7E7B9, size: 0x8, addend: 0x0, symName: __ZNSt3__125__hash_map_const_iteratorINS_21__hash_const_iteratorIPNS_11__hash_nodeINS_17__hash_value_typeIcNS_10unique_ptrIN6spdlog21custom_flag_formatterENS_14default_deleteIS6_EEEEEEPvEEEEEC2B7v160006ESE_, symObjAddr: 0x300DC, symBinAddr: 0x10003385C, symSize: 0x20 }
  - { offsetInCU: 0x7E7F2, offset: 0x7E7F2, size: 0x8, addend: 0x0, symName: __ZNKSt3__112__hash_tableINS_17__hash_value_typeIcNS_10unique_ptrIN6spdlog21custom_flag_formatterENS_14default_deleteIS4_EEEEEENS_22__unordered_map_hasherIcS8_NS_4hashIcEENS_8equal_toIcEELb1EEENS_21__unordered_map_equalIcS8_SD_SB_Lb1EEENS_9allocatorIS8_EEE3endEv, symObjAddr: 0x300FC, symBinAddr: 0x10003387C, symSize: 0x30 }
  - { offsetInCU: 0x7E81A, offset: 0x7E81A, size: 0x8, addend: 0x0, symName: __ZNKSt3__121__hash_const_iteratorIPNS_11__hash_nodeINS_17__hash_value_typeIcNS_10unique_ptrIN6spdlog21custom_flag_formatterENS_14default_deleteIS5_EEEEEEPvEEEptB7v160006Ev, symObjAddr: 0x30190, symBinAddr: 0x100033910, symSize: 0x30 }
  - { offsetInCU: 0x7E840, offset: 0x7E840, size: 0x8, addend: 0x0, symName: __ZNKSt3__117__hash_value_typeIcNS_10unique_ptrIN6spdlog21custom_flag_formatterENS_14default_deleteIS3_EEEEE11__get_valueB7v160006Ev, symObjAddr: 0x301C0, symBinAddr: 0x100033940, symSize: 0x14 }
  - { offsetInCU: 0x7E866, offset: 0x7E866, size: 0x8, addend: 0x0, symName: __ZNSt3__114pointer_traitsIPKNS_17__hash_value_typeIcNS_10unique_ptrIN6spdlog21custom_flag_formatterENS_14default_deleteIS4_EEEEEEE10pointer_toB7v160006ERS9_, symObjAddr: 0x301D4, symBinAddr: 0x100033954, symSize: 0x14 }
  - { offsetInCU: 0x7E889, offset: 0x7E889, size: 0x8, addend: 0x0, symName: __ZNSt3__116__hash_node_baseIPNS_11__hash_nodeINS_17__hash_value_typeIcNS_10unique_ptrIN6spdlog21custom_flag_formatterENS_14default_deleteIS5_EEEEEEPvEEE8__upcastB7v160006Ev, symObjAddr: 0x301E8, symBinAddr: 0x100033968, symSize: 0x24 }
  - { offsetInCU: 0x7E8AF, offset: 0x7E8AF, size: 0x8, addend: 0x0, symName: __ZNSt3__114pointer_traitsIPNS_16__hash_node_baseIPNS_11__hash_nodeINS_17__hash_value_typeIcNS_10unique_ptrIN6spdlog21custom_flag_formatterENS_14default_deleteIS6_EEEEEEPvEEEEE10pointer_toB7v160006ERSE_, symObjAddr: 0x3020C, symBinAddr: 0x10003398C, symSize: 0x14 }
  - { offsetInCU: 0x7E8D2, offset: 0x7E8D2, size: 0x8, addend: 0x0, symName: __ZNKSt3__117__compressed_pairIPN6spdlog21custom_flag_formatterENS_14default_deleteIS2_EEE5firstB7v160006Ev, symObjAddr: 0x30220, symBinAddr: 0x1000339A0, symSize: 0x24 }
  - { offsetInCU: 0x7E8F8, offset: 0x7E8F8, size: 0x8, addend: 0x0, symName: __ZNKSt3__122__compressed_pair_elemIPN6spdlog21custom_flag_formatterELi0ELb0EE5__getB7v160006Ev, symObjAddr: 0x30244, symBinAddr: 0x1000339C4, symSize: 0x14 }
  - { offsetInCU: 0x7E936, offset: 0x7E936, size: 0x8, addend: 0x0, symName: __ZNSt3__112__hash_tableINS_17__hash_value_typeIcNS_10unique_ptrIN6spdlog21custom_flag_formatterENS_14default_deleteIS4_EEEEEENS_22__unordered_map_hasherIcS8_NS_4hashIcEENS_8equal_toIcEELb1EEENS_21__unordered_map_equalIcS8_SD_SB_Lb1EEENS_9allocatorIS8_EEE25__emplace_unique_key_argsIcJRKNS_21piecewise_construct_tENS_5tupleIJRKcEEENSO_IJEEEEEENS_4pairINS_15__hash_iteratorIPNS_11__hash_nodeIS8_PvEEEEbEERKT_DpOT0_, symObjAddr: 0x30258, symBinAddr: 0x1000339D8, symSize: 0x4D0 }
  - { offsetInCU: 0x7EA40, offset: 0x7EA40, size: 0x8, addend: 0x0, symName: __ZNKSt3__115__hash_iteratorIPNS_11__hash_nodeINS_17__hash_value_typeIcNS_10unique_ptrIN6spdlog21custom_flag_formatterENS_14default_deleteIS5_EEEEEEPvEEEptB7v160006Ev, symObjAddr: 0x30758, symBinAddr: 0x100033ED8, symSize: 0x30 }
  - { offsetInCU: 0x7EA66, offset: 0x7EA66, size: 0x8, addend: 0x0, symName: __ZNSt3__117__hash_value_typeIcNS_10unique_ptrIN6spdlog21custom_flag_formatterENS_14default_deleteIS3_EEEEE11__get_valueB7v160006Ev, symObjAddr: 0x30788, symBinAddr: 0x100033F08, symSize: 0x14 }
  - { offsetInCU: 0x7EA8C, offset: 0x7EA8C, size: 0x8, addend: 0x0, symName: __ZNSt3__112__hash_tableINS_17__hash_value_typeIcNS_10unique_ptrIN6spdlog21custom_flag_formatterENS_14default_deleteIS4_EEEEEENS_22__unordered_map_hasherIcS8_NS_4hashIcEENS_8equal_toIcEELb1EEENS_21__unordered_map_equalIcS8_SD_SB_Lb1EEENS_9allocatorIS8_EEE13hash_functionB7v160006Ev, symObjAddr: 0x3079C, symBinAddr: 0x100033F1C, symSize: 0x28 }
  - { offsetInCU: 0x7EAB2, offset: 0x7EAB2, size: 0x8, addend: 0x0, symName: __ZNKSt3__122__unordered_map_hasherIcNS_17__hash_value_typeIcNS_10unique_ptrIN6spdlog21custom_flag_formatterENS_14default_deleteIS4_EEEEEENS_4hashIcEENS_8equal_toIcEELb1EEclB7v160006ERKc, symObjAddr: 0x307C4, symBinAddr: 0x100033F44, symSize: 0x30 }
  - { offsetInCU: 0x7EAE7, offset: 0x7EAE7, size: 0x8, addend: 0x0, symName: __ZNKSt3__112__hash_tableINS_17__hash_value_typeIcNS_10unique_ptrIN6spdlog21custom_flag_formatterENS_14default_deleteIS4_EEEEEENS_22__unordered_map_hasherIcS8_NS_4hashIcEENS_8equal_toIcEELb1EEENS_21__unordered_map_equalIcS8_SD_SB_Lb1EEENS_9allocatorIS8_EEE12bucket_countB7v160006Ev, symObjAddr: 0x307F4, symBinAddr: 0x100033F74, symSize: 0x28 }
  - { offsetInCU: 0x7EB0D, offset: 0x7EB0D, size: 0x8, addend: 0x0, symName: __ZNKSt3__110unique_ptrIA_PNS_16__hash_node_baseIPNS_11__hash_nodeINS_17__hash_value_typeIcNS0_IN6spdlog21custom_flag_formatterENS_14default_deleteIS5_EEEEEEPvEEEENS_25__bucket_list_deallocatorINS_9allocatorISE_EEEEEixB7v160006Em, symObjAddr: 0x308B4, symBinAddr: 0x100034034, symSize: 0x34 }
  - { offsetInCU: 0x7EB42, offset: 0x7EB42, size: 0x8, addend: 0x0, symName: __ZNKSt3__116__hash_node_baseIPNS_11__hash_nodeINS_17__hash_value_typeIcNS_10unique_ptrIN6spdlog21custom_flag_formatterENS_14default_deleteIS5_EEEEEEPvEEE6__hashB7v160006Ev, symObjAddr: 0x308E8, symBinAddr: 0x100034068, symSize: 0x18 }
  - { offsetInCU: 0x7EB68, offset: 0x7EB68, size: 0x8, addend: 0x0, symName: __ZNSt3__112__hash_tableINS_17__hash_value_typeIcNS_10unique_ptrIN6spdlog21custom_flag_formatterENS_14default_deleteIS4_EEEEEENS_22__unordered_map_hasherIcS8_NS_4hashIcEENS_8equal_toIcEELb1EEENS_21__unordered_map_equalIcS8_SD_SB_Lb1EEENS_9allocatorIS8_EEE6key_eqB7v160006Ev, symObjAddr: 0x30900, symBinAddr: 0x100034080, symSize: 0x28 }
  - { offsetInCU: 0x7EB8E, offset: 0x7EB8E, size: 0x8, addend: 0x0, symName: __ZNKSt3__121__unordered_map_equalIcNS_17__hash_value_typeIcNS_10unique_ptrIN6spdlog21custom_flag_formatterENS_14default_deleteIS4_EEEEEENS_8equal_toIcEENS_4hashIcEELb1EEclB7v160006ERKS8_RKc, symObjAddr: 0x30928, symBinAddr: 0x1000340A8, symSize: 0x48 }
  - { offsetInCU: 0x7EBD2, offset: 0x7EBD2, size: 0x8, addend: 0x0, symName: __ZNSt3__112__hash_tableINS_17__hash_value_typeIcNS_10unique_ptrIN6spdlog21custom_flag_formatterENS_14default_deleteIS4_EEEEEENS_22__unordered_map_hasherIcS8_NS_4hashIcEENS_8equal_toIcEELb1EEENS_21__unordered_map_equalIcS8_SD_SB_Lb1EEENS_9allocatorIS8_EEE21__construct_node_hashIRKNS_21piecewise_construct_tEJNS_5tupleIJRKcEEENSO_IJEEEEEENS2_INS_11__hash_nodeIS8_PvEENS_22__hash_node_destructorINSH_ISV_EEEEEEmOT_DpOT0_, symObjAddr: 0x30970, symBinAddr: 0x1000340F0, symSize: 0x150 }
  - { offsetInCU: 0x7EC6E, offset: 0x7EC6E, size: 0x8, addend: 0x0, symName: __ZNSt3__112__hash_tableINS_17__hash_value_typeIcNS_10unique_ptrIN6spdlog21custom_flag_formatterENS_14default_deleteIS4_EEEEEENS_22__unordered_map_hasherIcS8_NS_4hashIcEENS_8equal_toIcEELb1EEENS_21__unordered_map_equalIcS8_SD_SB_Lb1EEENS_9allocatorIS8_EEE4sizeB7v160006Ev, symObjAddr: 0x30AC0, symBinAddr: 0x100034240, symSize: 0x28 }
  - { offsetInCU: 0x7EC94, offset: 0x7EC94, size: 0x8, addend: 0x0, symName: __ZNSt3__112__hash_tableINS_17__hash_value_typeIcNS_10unique_ptrIN6spdlog21custom_flag_formatterENS_14default_deleteIS4_EEEEEENS_22__unordered_map_hasherIcS8_NS_4hashIcEENS_8equal_toIcEELb1EEENS_21__unordered_map_equalIcS8_SD_SB_Lb1EEENS_9allocatorIS8_EEE15max_load_factorB7v160006Ev, symObjAddr: 0x30AE8, symBinAddr: 0x100034268, symSize: 0x28 }
  - { offsetInCU: 0x7ECBA, offset: 0x7ECBA, size: 0x8, addend: 0x0, symName: __ZNSt3__112__hash_tableINS_17__hash_value_typeIcNS_10unique_ptrIN6spdlog21custom_flag_formatterENS_14default_deleteIS4_EEEEEENS_22__unordered_map_hasherIcS8_NS_4hashIcEENS_8equal_toIcEELb1EEENS_21__unordered_map_equalIcS8_SD_SB_Lb1EEENS_9allocatorIS8_EEE15__rehash_uniqueB7v160006Em, symObjAddr: 0x30B10, symBinAddr: 0x100034290, symSize: 0x2C }
  - { offsetInCU: 0x7ECEE, offset: 0x7ECEE, size: 0x8, addend: 0x0, symName: __Z4ceilB7v160006f, symObjAddr: 0x30B8C, symBinAddr: 0x10003430C, symSize: 0x18 }
  - { offsetInCU: 0x7ED1D, offset: 0x7ED1D, size: 0x8, addend: 0x0, symName: __ZNSt3__117__compressed_pairINS_16__hash_node_baseIPNS_11__hash_nodeINS_17__hash_value_typeIcNS_10unique_ptrIN6spdlog21custom_flag_formatterENS_14default_deleteIS6_EEEEEEPvEEEENS_9allocatorISC_EEE5firstB7v160006Ev, symObjAddr: 0x30BA4, symBinAddr: 0x100034324, symSize: 0x24 }
  - { offsetInCU: 0x7ED43, offset: 0x7ED43, size: 0x8, addend: 0x0, symName: __ZNSt3__116__hash_node_baseIPNS_11__hash_nodeINS_17__hash_value_typeIcNS_10unique_ptrIN6spdlog21custom_flag_formatterENS_14default_deleteIS5_EEEEEEPvEEE5__ptrB7v160006Ev, symObjAddr: 0x30BC8, symBinAddr: 0x100034348, symSize: 0x24 }
  - { offsetInCU: 0x7ED69, offset: 0x7ED69, size: 0x8, addend: 0x0, symName: __ZNKSt3__110unique_ptrINS_11__hash_nodeINS_17__hash_value_typeIcNS0_IN6spdlog21custom_flag_formatterENS_14default_deleteIS4_EEEEEEPvEENS_22__hash_node_destructorINS_9allocatorISA_EEEEEptB7v160006Ev, symObjAddr: 0x30BEC, symBinAddr: 0x10003436C, symSize: 0x28 }
  - { offsetInCU: 0x7ED8F, offset: 0x7ED8F, size: 0x8, addend: 0x0, symName: __ZNKSt3__110unique_ptrINS_11__hash_nodeINS_17__hash_value_typeIcNS0_IN6spdlog21custom_flag_formatterENS_14default_deleteIS4_EEEEEEPvEENS_22__hash_node_destructorINS_9allocatorISA_EEEEE3getB7v160006Ev, symObjAddr: 0x30C14, symBinAddr: 0x100034394, symSize: 0x28 }
  - { offsetInCU: 0x7EDB5, offset: 0x7EDB5, size: 0x8, addend: 0x0, symName: __ZNSt3__110unique_ptrINS_11__hash_nodeINS_17__hash_value_typeIcNS0_IN6spdlog21custom_flag_formatterENS_14default_deleteIS4_EEEEEEPvEENS_22__hash_node_destructorINS_9allocatorISA_EEEEE7releaseB7v160006Ev, symObjAddr: 0x30C3C, symBinAddr: 0x1000343BC, symSize: 0x44 }
  - { offsetInCU: 0x7EDEA, offset: 0x7EDEA, size: 0x8, addend: 0x0, symName: __ZNSt3__110unique_ptrINS_11__hash_nodeINS_17__hash_value_typeIcNS0_IN6spdlog21custom_flag_formatterENS_14default_deleteIS4_EEEEEEPvEENS_22__hash_node_destructorINS_9allocatorISA_EEEEED1B7v160006Ev, symObjAddr: 0x30C80, symBinAddr: 0x100034400, symSize: 0x2C }
  - { offsetInCU: 0x7EE14, offset: 0x7EE14, size: 0x8, addend: 0x0, symName: __ZNSt3__115__hash_iteratorIPNS_11__hash_nodeINS_17__hash_value_typeIcNS_10unique_ptrIN6spdlog21custom_flag_formatterENS_14default_deleteIS5_EEEEEEPvEEEC1B7v160006EPNS_16__hash_node_baseISC_EEPKv, symObjAddr: 0x30CAC, symBinAddr: 0x10003442C, symSize: 0x3C }
  - { offsetInCU: 0x7EE62, offset: 0x7EE62, size: 0x8, addend: 0x0, symName: __ZNSt3__14pairINS_15__hash_iteratorIPNS_11__hash_nodeINS_17__hash_value_typeIcNS_10unique_ptrIN6spdlog21custom_flag_formatterENS_14default_deleteIS6_EEEEEEPvEEEEbEC1B7v160006ISE_RbLSB_0EEEOT_OT0_, symObjAddr: 0x30CE8, symBinAddr: 0x100034468, symSize: 0x3C }
  - { offsetInCU: 0x7EEC0, offset: 0x7EEC0, size: 0x8, addend: 0x0, symName: __ZNSt3__117__compressed_pairImNS_22__unordered_map_hasherIcNS_17__hash_value_typeIcNS_10unique_ptrIN6spdlog21custom_flag_formatterENS_14default_deleteIS5_EEEEEENS_4hashIcEENS_8equal_toIcEELb1EEEE6secondB7v160006Ev, symObjAddr: 0x30D24, symBinAddr: 0x1000344A4, symSize: 0x24 }
  - { offsetInCU: 0x7EEE6, offset: 0x7EEE6, size: 0x8, addend: 0x0, symName: __ZNSt3__122__compressed_pair_elemINS_22__unordered_map_hasherIcNS_17__hash_value_typeIcNS_10unique_ptrIN6spdlog21custom_flag_formatterENS_14default_deleteIS5_EEEEEENS_4hashIcEENS_8equal_toIcEELb1EEELi1ELb1EE5__getB7v160006Ev, symObjAddr: 0x30D48, symBinAddr: 0x1000344C8, symSize: 0x14 }
  - { offsetInCU: 0x7EF0C, offset: 0x7EF0C, size: 0x8, addend: 0x0, symName: __ZNKSt3__14hashIcEclB7v160006Ec, symObjAddr: 0x30D5C, symBinAddr: 0x1000344DC, symSize: 0x18 }
  - { offsetInCU: 0x7EF41, offset: 0x7EF41, size: 0x8, addend: 0x0, symName: __ZNKSt3__110unique_ptrIA_PNS_16__hash_node_baseIPNS_11__hash_nodeINS_17__hash_value_typeIcNS0_IN6spdlog21custom_flag_formatterENS_14default_deleteIS5_EEEEEEPvEEEENS_25__bucket_list_deallocatorINS_9allocatorISE_EEEEE11get_deleterB7v160006Ev, symObjAddr: 0x30D74, symBinAddr: 0x1000344F4, symSize: 0x24 }
  - { offsetInCU: 0x7EF67, offset: 0x7EF67, size: 0x8, addend: 0x0, symName: __ZNKSt3__125__bucket_list_deallocatorINS_9allocatorIPNS_16__hash_node_baseIPNS_11__hash_nodeINS_17__hash_value_typeIcNS_10unique_ptrIN6spdlog21custom_flag_formatterENS_14default_deleteIS7_EEEEEEPvEEEEEEE4sizeB7v160006Ev, symObjAddr: 0x30D98, symBinAddr: 0x100034518, symSize: 0x28 }
  - { offsetInCU: 0x7EF8D, offset: 0x7EF8D, size: 0x8, addend: 0x0, symName: __ZNKSt3__117__compressed_pairIPPNS_16__hash_node_baseIPNS_11__hash_nodeINS_17__hash_value_typeIcNS_10unique_ptrIN6spdlog21custom_flag_formatterENS_14default_deleteIS6_EEEEEEPvEEEENS_25__bucket_list_deallocatorINS_9allocatorISF_EEEEE6secondB7v160006Ev, symObjAddr: 0x30DC0, symBinAddr: 0x100034540, symSize: 0x28 }
  - { offsetInCU: 0x7EFB3, offset: 0x7EFB3, size: 0x8, addend: 0x0, symName: __ZNKSt3__122__compressed_pair_elemINS_25__bucket_list_deallocatorINS_9allocatorIPNS_16__hash_node_baseIPNS_11__hash_nodeINS_17__hash_value_typeIcNS_10unique_ptrIN6spdlog21custom_flag_formatterENS_14default_deleteIS8_EEEEEEPvEEEEEEEELi1ELb0EE5__getB7v160006Ev, symObjAddr: 0x30DE8, symBinAddr: 0x100034568, symSize: 0x14 }
  - { offsetInCU: 0x7EFD9, offset: 0x7EFD9, size: 0x8, addend: 0x0, symName: __ZNKSt3__117__compressed_pairImNS_9allocatorIPNS_16__hash_node_baseIPNS_11__hash_nodeINS_17__hash_value_typeIcNS_10unique_ptrIN6spdlog21custom_flag_formatterENS_14default_deleteIS7_EEEEEEPvEEEEEEE5firstB7v160006Ev, symObjAddr: 0x30DFC, symBinAddr: 0x10003457C, symSize: 0x24 }
  - { offsetInCU: 0x7EFFF, offset: 0x7EFFF, size: 0x8, addend: 0x0, symName: __ZNKSt3__122__compressed_pair_elemImLi0ELb0EE5__getB7v160006Ev, symObjAddr: 0x30E20, symBinAddr: 0x1000345A0, symSize: 0x14 }
  - { offsetInCU: 0x7F025, offset: 0x7F025, size: 0x8, addend: 0x0, symName: __ZNKSt3__117__compressed_pairIPPNS_16__hash_node_baseIPNS_11__hash_nodeINS_17__hash_value_typeIcNS_10unique_ptrIN6spdlog21custom_flag_formatterENS_14default_deleteIS6_EEEEEEPvEEEENS_25__bucket_list_deallocatorINS_9allocatorISF_EEEEE5firstB7v160006Ev, symObjAddr: 0x30E34, symBinAddr: 0x1000345B4, symSize: 0x24 }
  - { offsetInCU: 0x7F04B, offset: 0x7F04B, size: 0x8, addend: 0x0, symName: __ZNKSt3__122__compressed_pair_elemIPPNS_16__hash_node_baseIPNS_11__hash_nodeINS_17__hash_value_typeIcNS_10unique_ptrIN6spdlog21custom_flag_formatterENS_14default_deleteIS6_EEEEEEPvEEEELi0ELb0EE5__getB7v160006Ev, symObjAddr: 0x30E58, symBinAddr: 0x1000345D8, symSize: 0x14 }
  - { offsetInCU: 0x7F071, offset: 0x7F071, size: 0x8, addend: 0x0, symName: __ZNSt3__117__compressed_pairIfNS_21__unordered_map_equalIcNS_17__hash_value_typeIcNS_10unique_ptrIN6spdlog21custom_flag_formatterENS_14default_deleteIS5_EEEEEENS_8equal_toIcEENS_4hashIcEELb1EEEE6secondB7v160006Ev, symObjAddr: 0x30E6C, symBinAddr: 0x1000345EC, symSize: 0x24 }
  - { offsetInCU: 0x7F097, offset: 0x7F097, size: 0x8, addend: 0x0, symName: __ZNSt3__122__compressed_pair_elemINS_21__unordered_map_equalIcNS_17__hash_value_typeIcNS_10unique_ptrIN6spdlog21custom_flag_formatterENS_14default_deleteIS5_EEEEEENS_8equal_toIcEENS_4hashIcEELb1EEELi1ELb1EE5__getB7v160006Ev, symObjAddr: 0x30E90, symBinAddr: 0x100034610, symSize: 0x14 }
  - { offsetInCU: 0x7F0BD, offset: 0x7F0BD, size: 0x8, addend: 0x0, symName: __ZNKSt3__18equal_toIcEclB7v160006ERKcS3_, symObjAddr: 0x30EA4, symBinAddr: 0x100034624, symSize: 0x34 }
  - { offsetInCU: 0x7F101, offset: 0x7F101, size: 0x8, addend: 0x0, symName: __ZNSt3__112__hash_tableINS_17__hash_value_typeIcNS_10unique_ptrIN6spdlog21custom_flag_formatterENS_14default_deleteIS4_EEEEEENS_22__unordered_map_hasherIcS8_NS_4hashIcEENS_8equal_toIcEELb1EEENS_21__unordered_map_equalIcS8_SD_SB_Lb1EEENS_9allocatorIS8_EEE12__node_allocB7v160006Ev, symObjAddr: 0x30ED8, symBinAddr: 0x100034658, symSize: 0x28 }
  - { offsetInCU: 0x7F127, offset: 0x7F127, size: 0x8, addend: 0x0, symName: __ZNSt3__116allocator_traitsINS_9allocatorINS_11__hash_nodeINS_17__hash_value_typeIcNS_10unique_ptrIN6spdlog21custom_flag_formatterENS_14default_deleteIS6_EEEEEEPvEEEEE8allocateB7v160006ERSD_m, symObjAddr: 0x30F00, symBinAddr: 0x100034680, symSize: 0x2C }
  - { offsetInCU: 0x7F15A, offset: 0x7F15A, size: 0x8, addend: 0x0, symName: __ZNSt3__122__hash_node_destructorINS_9allocatorINS_11__hash_nodeINS_17__hash_value_typeIcNS_10unique_ptrIN6spdlog21custom_flag_formatterENS_14default_deleteIS6_EEEEEEPvEEEEEC1B7v160006ERSD_b, symObjAddr: 0x30F2C, symBinAddr: 0x1000346AC, symSize: 0x48 }
  - { offsetInCU: 0x7F1A8, offset: 0x7F1A8, size: 0x8, addend: 0x0, symName: __ZNSt3__110unique_ptrINS_11__hash_nodeINS_17__hash_value_typeIcNS0_IN6spdlog21custom_flag_formatterENS_14default_deleteIS4_EEEEEEPvEENS_22__hash_node_destructorINS_9allocatorISA_EEEEEC1B7v160006ILb1EvEEPSA_NS_16__dependent_typeINS_27__unique_ptr_deleter_sfinaeISE_EEXT_EE20__good_rval_ref_typeE, symObjAddr: 0x30F74, symBinAddr: 0x1000346F4, symSize: 0x3C }
  - { offsetInCU: 0x7F1F9, offset: 0x7F1F9, size: 0x8, addend: 0x0, symName: __ZNSt3__116allocator_traitsINS_9allocatorINS_11__hash_nodeINS_17__hash_value_typeIcNS_10unique_ptrIN6spdlog21custom_flag_formatterENS_14default_deleteIS6_EEEEEEPvEEEEE9constructB7v160006INS_4pairIKcS9_EEJRKNS_21piecewise_construct_tENS_5tupleIJRSH_EEENSM_IJEEEEvEEvRSD_PT_DpOT0_, symObjAddr: 0x30FB0, symBinAddr: 0x100034730, symSize: 0x44 }
  - { offsetInCU: 0x7F278, offset: 0x7F278, size: 0x8, addend: 0x0, symName: __ZNSt3__122__hash_key_value_typesINS_17__hash_value_typeIcNS_10unique_ptrIN6spdlog21custom_flag_formatterENS_14default_deleteIS4_EEEEEEE9__get_ptrB7v160006ERS8_, symObjAddr: 0x30FF4, symBinAddr: 0x100034774, symSize: 0x24 }
  - { offsetInCU: 0x7F29B, offset: 0x7F29B, size: 0x8, addend: 0x0, symName: __ZNSt3__110unique_ptrINS_11__hash_nodeINS_17__hash_value_typeIcNS0_IN6spdlog21custom_flag_formatterENS_14default_deleteIS4_EEEEEEPvEENS_22__hash_node_destructorINS_9allocatorISA_EEEEE11get_deleterB7v160006Ev, symObjAddr: 0x31018, symBinAddr: 0x100034798, symSize: 0x24 }
  - { offsetInCU: 0x7F2C1, offset: 0x7F2C1, size: 0x8, addend: 0x0, symName: __ZNSt3__117__compressed_pairINS_16__hash_node_baseIPNS_11__hash_nodeINS_17__hash_value_typeIcNS_10unique_ptrIN6spdlog21custom_flag_formatterENS_14default_deleteIS6_EEEEEEPvEEEENS_9allocatorISC_EEE6secondB7v160006Ev, symObjAddr: 0x3103C, symBinAddr: 0x1000347BC, symSize: 0x24 }
  - { offsetInCU: 0x7F2E7, offset: 0x7F2E7, size: 0x8, addend: 0x0, symName: __ZNSt3__122__compressed_pair_elemINS_9allocatorINS_11__hash_nodeINS_17__hash_value_typeIcNS_10unique_ptrIN6spdlog21custom_flag_formatterENS_14default_deleteIS6_EEEEEEPvEEEELi1ELb1EE5__getB7v160006Ev, symObjAddr: 0x31060, symBinAddr: 0x1000347E0, symSize: 0x14 }
  - { offsetInCU: 0x7F30D, offset: 0x7F30D, size: 0x8, addend: 0x0, symName: __ZNSt3__19allocatorINS_11__hash_nodeINS_17__hash_value_typeIcNS_10unique_ptrIN6spdlog21custom_flag_formatterENS_14default_deleteIS5_EEEEEEPvEEE8allocateB7v160006Em, symObjAddr: 0x31074, symBinAddr: 0x1000347F4, symSize: 0x58 }
  - { offsetInCU: 0x7F34C, offset: 0x7F34C, size: 0x8, addend: 0x0, symName: __ZNSt3__116allocator_traitsINS_9allocatorINS_11__hash_nodeINS_17__hash_value_typeIcNS_10unique_ptrIN6spdlog21custom_flag_formatterENS_14default_deleteIS6_EEEEEEPvEEEEE8max_sizeB7v160006ISD_vEEmRKSD_, symObjAddr: 0x310CC, symBinAddr: 0x10003484C, symSize: 0x24 }
  - { offsetInCU: 0x7F37A, offset: 0x7F37A, size: 0x8, addend: 0x0, symName: __ZNKSt3__19allocatorINS_11__hash_nodeINS_17__hash_value_typeIcNS_10unique_ptrIN6spdlog21custom_flag_formatterENS_14default_deleteIS5_EEEEEEPvEEE8max_sizeB7v160006Ev, symObjAddr: 0x310F0, symBinAddr: 0x100034870, symSize: 0x14 }
  - { offsetInCU: 0x7F3A0, offset: 0x7F3A0, size: 0x8, addend: 0x0, symName: __ZNSt3__122__hash_node_destructorINS_9allocatorINS_11__hash_nodeINS_17__hash_value_typeIcNS_10unique_ptrIN6spdlog21custom_flag_formatterENS_14default_deleteIS6_EEEEEEPvEEEEEC2B7v160006ERSD_b, symObjAddr: 0x31104, symBinAddr: 0x100034884, symSize: 0x38 }
  - { offsetInCU: 0x7F3E8, offset: 0x7F3E8, size: 0x8, addend: 0x0, symName: __ZNSt3__110unique_ptrINS_11__hash_nodeINS_17__hash_value_typeIcNS0_IN6spdlog21custom_flag_formatterENS_14default_deleteIS4_EEEEEEPvEENS_22__hash_node_destructorINS_9allocatorISA_EEEEEC2B7v160006ILb1EvEEPSA_NS_16__dependent_typeINS_27__unique_ptr_deleter_sfinaeISE_EEXT_EE20__good_rval_ref_typeE, symObjAddr: 0x3113C, symBinAddr: 0x1000348BC, symSize: 0x48 }
  - { offsetInCU: 0x7F439, offset: 0x7F439, size: 0x8, addend: 0x0, symName: __ZNSt3__117__compressed_pairIPNS_11__hash_nodeINS_17__hash_value_typeIcNS_10unique_ptrIN6spdlog21custom_flag_formatterENS_14default_deleteIS5_EEEEEEPvEENS_22__hash_node_destructorINS_9allocatorISB_EEEEEC1B7v160006IRSC_SG_EEOT_OT0_, symObjAddr: 0x31184, symBinAddr: 0x100034904, symSize: 0x3C }
  - { offsetInCU: 0x7F491, offset: 0x7F491, size: 0x8, addend: 0x0, symName: __ZNSt3__117__compressed_pairIPNS_11__hash_nodeINS_17__hash_value_typeIcNS_10unique_ptrIN6spdlog21custom_flag_formatterENS_14default_deleteIS5_EEEEEEPvEENS_22__hash_node_destructorINS_9allocatorISB_EEEEEC2B7v160006IRSC_SG_EEOT_OT0_, symObjAddr: 0x311C0, symBinAddr: 0x100034940, symSize: 0x48 }
  - { offsetInCU: 0x7F4E9, offset: 0x7F4E9, size: 0x8, addend: 0x0, symName: __ZNSt3__122__compressed_pair_elemIPNS_11__hash_nodeINS_17__hash_value_typeIcNS_10unique_ptrIN6spdlog21custom_flag_formatterENS_14default_deleteIS5_EEEEEEPvEELi0ELb0EEC2B7v160006IRSC_vEEOT_, symObjAddr: 0x31208, symBinAddr: 0x100034988, symSize: 0x24 }
  - { offsetInCU: 0x7F52B, offset: 0x7F52B, size: 0x8, addend: 0x0, symName: __ZNSt3__122__compressed_pair_elemINS_22__hash_node_destructorINS_9allocatorINS_11__hash_nodeINS_17__hash_value_typeIcNS_10unique_ptrIN6spdlog21custom_flag_formatterENS_14default_deleteIS7_EEEEEEPvEEEEEELi1ELb0EEC2B7v160006ISF_vEEOT_, symObjAddr: 0x3122C, symBinAddr: 0x1000349AC, symSize: 0x24 }
  - { offsetInCU: 0x7F56D, offset: 0x7F56D, size: 0x8, addend: 0x0, symName: __ZNSt3__19allocatorINS_11__hash_nodeINS_17__hash_value_typeIcNS_10unique_ptrIN6spdlog21custom_flag_formatterENS_14default_deleteIS5_EEEEEEPvEEE9constructB7v160006INS_4pairIKcS8_EEJRKNS_21piecewise_construct_tENS_5tupleIJRSF_EEENSK_IJEEEEEEvPT_DpOT0_, symObjAddr: 0x31250, symBinAddr: 0x1000349D0, symSize: 0x44 }
  - { offsetInCU: 0x7F5E9, offset: 0x7F5E9, size: 0x8, addend: 0x0, symName: __ZNSt3__14pairIKcNS_10unique_ptrIN6spdlog21custom_flag_formatterENS_14default_deleteIS4_EEEEEC1B7v160006IJRS1_EJEEENS_21piecewise_construct_tENS_5tupleIJDpT_EEENSC_IJDpT0_EEE, symObjAddr: 0x31294, symBinAddr: 0x100034A14, symSize: 0x44 }
  - { offsetInCU: 0x7F650, offset: 0x7F650, size: 0x8, addend: 0x0, symName: __ZNSt3__14pairIKcNS_10unique_ptrIN6spdlog21custom_flag_formatterENS_14default_deleteIS4_EEEEEC1B7v160006IJRS1_EJEJLm0EEJEEENS_21piecewise_construct_tERNS_5tupleIJDpT_EEERNSC_IJDpT0_EEENS_15__tuple_indicesIJXspT1_EEEENSL_IJXspT2_EEEE, symObjAddr: 0x312D8, symBinAddr: 0x100034A58, symSize: 0x3C }
  - { offsetInCU: 0x7F6E0, offset: 0x7F6E0, size: 0x8, addend: 0x0, symName: __ZNSt3__14pairIKcNS_10unique_ptrIN6spdlog21custom_flag_formatterENS_14default_deleteIS4_EEEEEC2B7v160006IJRS1_EJEJLm0EEJEEENS_21piecewise_construct_tERNS_5tupleIJDpT_EEERNSC_IJDpT0_EEENS_15__tuple_indicesIJXspT1_EEEENSL_IJXspT2_EEEE, symObjAddr: 0x31314, symBinAddr: 0x100034A94, symSize: 0x4C }
  - { offsetInCU: 0x7F770, offset: 0x7F770, size: 0x8, addend: 0x0, symName: __ZNSt3__110unique_ptrIN6spdlog21custom_flag_formatterENS_14default_deleteIS2_EEEC1B7v160006ILb1EvEEv, symObjAddr: 0x31384, symBinAddr: 0x100034B04, symSize: 0x2C }
  - { offsetInCU: 0x7F7A5, offset: 0x7F7A5, size: 0x8, addend: 0x0, symName: __ZNSt3__112__tuple_leafILm0ERKcLb0EE3getB7v160006Ev, symObjAddr: 0x313B0, symBinAddr: 0x100034B30, symSize: 0x18 }
  - { offsetInCU: 0x7F7CB, offset: 0x7F7CB, size: 0x8, addend: 0x0, symName: __ZNSt3__110unique_ptrIN6spdlog21custom_flag_formatterENS_14default_deleteIS2_EEEC2B7v160006ILb1EvEEv, symObjAddr: 0x313C8, symBinAddr: 0x100034B48, symSize: 0x3C }
  - { offsetInCU: 0x7F800, offset: 0x7F800, size: 0x8, addend: 0x0, symName: __ZNSt3__117__compressed_pairIPN6spdlog21custom_flag_formatterENS_14default_deleteIS2_EEEC1B7v160006INS_16__value_init_tagES8_EEOT_OT0_, symObjAddr: 0x31404, symBinAddr: 0x100034B84, symSize: 0x3C }
  - { offsetInCU: 0x7F858, offset: 0x7F858, size: 0x8, addend: 0x0, symName: __ZNSt3__117__compressed_pairIPN6spdlog21custom_flag_formatterENS_14default_deleteIS2_EEEC2B7v160006INS_16__value_init_tagES8_EEOT_OT0_, symObjAddr: 0x31440, symBinAddr: 0x100034BC0, symSize: 0x3C }
  - { offsetInCU: 0x7F8B0, offset: 0x7F8B0, size: 0x8, addend: 0x0, symName: __ZNSt3__122__compressed_pair_elemIPN6spdlog21custom_flag_formatterELi0ELb0EEC2B7v160006ENS_16__value_init_tagE, symObjAddr: 0x3147C, symBinAddr: 0x100034BFC, symSize: 0x18 }
  - { offsetInCU: 0x7F8E5, offset: 0x7F8E5, size: 0x8, addend: 0x0, symName: __ZNSt3__122__compressed_pair_elemINS_14default_deleteIN6spdlog21custom_flag_formatterEEELi1ELb1EEC2B7v160006ENS_16__value_init_tagE, symObjAddr: 0x31494, symBinAddr: 0x100034C14, symSize: 0x14 }
  - { offsetInCU: 0x7F91A, offset: 0x7F91A, size: 0x8, addend: 0x0, symName: __ZNSt3__117__compressed_pairIPNS_11__hash_nodeINS_17__hash_value_typeIcNS_10unique_ptrIN6spdlog21custom_flag_formatterENS_14default_deleteIS5_EEEEEEPvEENS_22__hash_node_destructorINS_9allocatorISB_EEEEE6secondB7v160006Ev, symObjAddr: 0x314A8, symBinAddr: 0x100034C28, symSize: 0x28 }
  - { offsetInCU: 0x7F940, offset: 0x7F940, size: 0x8, addend: 0x0, symName: __ZNSt3__122__compressed_pair_elemINS_22__hash_node_destructorINS_9allocatorINS_11__hash_nodeINS_17__hash_value_typeIcNS_10unique_ptrIN6spdlog21custom_flag_formatterENS_14default_deleteIS7_EEEEEEPvEEEEEELi1ELb0EE5__getB7v160006Ev, symObjAddr: 0x314D0, symBinAddr: 0x100034C50, symSize: 0x14 }
  - { offsetInCU: 0x7F966, offset: 0x7F966, size: 0x8, addend: 0x0, symName: __ZNSt3__117__compressed_pairImNS_22__unordered_map_hasherIcNS_17__hash_value_typeIcNS_10unique_ptrIN6spdlog21custom_flag_formatterENS_14default_deleteIS5_EEEEEENS_4hashIcEENS_8equal_toIcEELb1EEEE5firstB7v160006Ev, symObjAddr: 0x314E4, symBinAddr: 0x100034C64, symSize: 0x24 }
  - { offsetInCU: 0x7F98C, offset: 0x7F98C, size: 0x8, addend: 0x0, symName: __ZNSt3__122__compressed_pair_elemImLi0ELb0EE5__getB7v160006Ev, symObjAddr: 0x31508, symBinAddr: 0x100034C88, symSize: 0x14 }
  - { offsetInCU: 0x7F9B2, offset: 0x7F9B2, size: 0x8, addend: 0x0, symName: __ZNSt3__117__compressed_pairIfNS_21__unordered_map_equalIcNS_17__hash_value_typeIcNS_10unique_ptrIN6spdlog21custom_flag_formatterENS_14default_deleteIS5_EEEEEENS_8equal_toIcEENS_4hashIcEELb1EEEE5firstB7v160006Ev, symObjAddr: 0x3151C, symBinAddr: 0x100034C9C, symSize: 0x24 }
  - { offsetInCU: 0x7F9D8, offset: 0x7F9D8, size: 0x8, addend: 0x0, symName: __ZNSt3__122__compressed_pair_elemIfLi0ELb0EE5__getB7v160006Ev, symObjAddr: 0x31540, symBinAddr: 0x100034CC0, symSize: 0x14 }
  - { offsetInCU: 0x7F9FE, offset: 0x7F9FE, size: 0x8, addend: 0x0, symName: __ZNSt3__112__hash_tableINS_17__hash_value_typeIcNS_10unique_ptrIN6spdlog21custom_flag_formatterENS_14default_deleteIS4_EEEEEENS_22__unordered_map_hasherIcS8_NS_4hashIcEENS_8equal_toIcEELb1EEENS_21__unordered_map_equalIcS8_SD_SB_Lb1EEENS_9allocatorIS8_EEE8__rehashILb1EEEvm, symObjAddr: 0x31554, symBinAddr: 0x100034CD4, symSize: 0x1A8 }
  - { offsetInCU: 0x7FA4E, offset: 0x7FA4E, size: 0x8, addend: 0x0, symName: __ZNSt3__112__hash_tableINS_17__hash_value_typeIcNS_10unique_ptrIN6spdlog21custom_flag_formatterENS_14default_deleteIS4_EEEEEENS_22__unordered_map_hasherIcS8_NS_4hashIcEENS_8equal_toIcEELb1EEENS_21__unordered_map_equalIcS8_SD_SB_Lb1EEENS_9allocatorIS8_EEE11__do_rehashILb1EEEvm, symObjAddr: 0x316FC, symBinAddr: 0x100034E7C, symSize: 0x290 }
  - { offsetInCU: 0x7FB31, offset: 0x7FB31, size: 0x8, addend: 0x0, symName: __ZNSt3__110unique_ptrIA_PNS_16__hash_node_baseIPNS_11__hash_nodeINS_17__hash_value_typeIcNS0_IN6spdlog21custom_flag_formatterENS_14default_deleteIS5_EEEEEEPvEEEENS_25__bucket_list_deallocatorINS_9allocatorISE_EEEEE11get_deleterB7v160006Ev, symObjAddr: 0x31A08, symBinAddr: 0x100035188, symSize: 0x24 }
  - { offsetInCU: 0x7FB57, offset: 0x7FB57, size: 0x8, addend: 0x0, symName: __ZNSt3__125__bucket_list_deallocatorINS_9allocatorIPNS_16__hash_node_baseIPNS_11__hash_nodeINS_17__hash_value_typeIcNS_10unique_ptrIN6spdlog21custom_flag_formatterENS_14default_deleteIS7_EEEEEEPvEEEEEEE7__allocB7v160006Ev, symObjAddr: 0x31A2C, symBinAddr: 0x1000351AC, symSize: 0x24 }
  - { offsetInCU: 0x7FB7D, offset: 0x7FB7D, size: 0x8, addend: 0x0, symName: __ZNSt3__110unique_ptrIA_PNS_16__hash_node_baseIPNS_11__hash_nodeINS_17__hash_value_typeIcNS0_IN6spdlog21custom_flag_formatterENS_14default_deleteIS5_EEEEEEPvEEEENS_25__bucket_list_deallocatorINS_9allocatorISE_EEEEE5resetB7v160006IPSE_EENS_9enable_ifIXsr28_CheckArrayPointerConversionIT_EE5valueEvE4typeESO_, symObjAddr: 0x31A50, symBinAddr: 0x1000351D0, symSize: 0x78 }
  - { offsetInCU: 0x7FBCA, offset: 0x7FBCA, size: 0x8, addend: 0x0, symName: __ZNSt3__116allocator_traitsINS_9allocatorIPNS_16__hash_node_baseIPNS_11__hash_nodeINS_17__hash_value_typeIcNS_10unique_ptrIN6spdlog21custom_flag_formatterENS_14default_deleteIS7_EEEEEEPvEEEEEEE8allocateB7v160006ERSH_m, symObjAddr: 0x31AC8, symBinAddr: 0x100035248, symSize: 0x2C }
  - { offsetInCU: 0x7FBFD, offset: 0x7FBFD, size: 0x8, addend: 0x0, symName: __ZNSt3__125__bucket_list_deallocatorINS_9allocatorIPNS_16__hash_node_baseIPNS_11__hash_nodeINS_17__hash_value_typeIcNS_10unique_ptrIN6spdlog21custom_flag_formatterENS_14default_deleteIS7_EEEEEEPvEEEEEEE4sizeB7v160006Ev, symObjAddr: 0x31AF4, symBinAddr: 0x100035274, symSize: 0x24 }
  - { offsetInCU: 0x7FC23, offset: 0x7FC23, size: 0x8, addend: 0x0, symName: __ZNSt3__117__compressed_pairIPPNS_16__hash_node_baseIPNS_11__hash_nodeINS_17__hash_value_typeIcNS_10unique_ptrIN6spdlog21custom_flag_formatterENS_14default_deleteIS6_EEEEEEPvEEEENS_25__bucket_list_deallocatorINS_9allocatorISF_EEEEE6secondB7v160006Ev, symObjAddr: 0x31B18, symBinAddr: 0x100035298, symSize: 0x28 }
  - { offsetInCU: 0x7FC49, offset: 0x7FC49, size: 0x8, addend: 0x0, symName: __ZNSt3__122__compressed_pair_elemINS_25__bucket_list_deallocatorINS_9allocatorIPNS_16__hash_node_baseIPNS_11__hash_nodeINS_17__hash_value_typeIcNS_10unique_ptrIN6spdlog21custom_flag_formatterENS_14default_deleteIS8_EEEEEEPvEEEEEEEELi1ELb0EE5__getB7v160006Ev, symObjAddr: 0x31B40, symBinAddr: 0x1000352C0, symSize: 0x14 }
  - { offsetInCU: 0x7FC6F, offset: 0x7FC6F, size: 0x8, addend: 0x0, symName: __ZNSt3__117__compressed_pairImNS_9allocatorIPNS_16__hash_node_baseIPNS_11__hash_nodeINS_17__hash_value_typeIcNS_10unique_ptrIN6spdlog21custom_flag_formatterENS_14default_deleteIS7_EEEEEEPvEEEEEEE6secondB7v160006Ev, symObjAddr: 0x31B54, symBinAddr: 0x1000352D4, symSize: 0x24 }
  - { offsetInCU: 0x7FC95, offset: 0x7FC95, size: 0x8, addend: 0x0, symName: __ZNSt3__122__compressed_pair_elemINS_9allocatorIPNS_16__hash_node_baseIPNS_11__hash_nodeINS_17__hash_value_typeIcNS_10unique_ptrIN6spdlog21custom_flag_formatterENS_14default_deleteIS7_EEEEEEPvEEEEEELi1ELb1EE5__getB7v160006Ev, symObjAddr: 0x31B78, symBinAddr: 0x1000352F8, symSize: 0x14 }
  - { offsetInCU: 0x7FCBB, offset: 0x7FCBB, size: 0x8, addend: 0x0, symName: __ZNSt3__117__compressed_pairIPPNS_16__hash_node_baseIPNS_11__hash_nodeINS_17__hash_value_typeIcNS_10unique_ptrIN6spdlog21custom_flag_formatterENS_14default_deleteIS6_EEEEEEPvEEEENS_25__bucket_list_deallocatorINS_9allocatorISF_EEEEE5firstB7v160006Ev, symObjAddr: 0x31B8C, symBinAddr: 0x10003530C, symSize: 0x24 }
  - { offsetInCU: 0x7FCE1, offset: 0x7FCE1, size: 0x8, addend: 0x0, symName: __ZNSt3__125__bucket_list_deallocatorINS_9allocatorIPNS_16__hash_node_baseIPNS_11__hash_nodeINS_17__hash_value_typeIcNS_10unique_ptrIN6spdlog21custom_flag_formatterENS_14default_deleteIS7_EEEEEEPvEEEEEEEclB7v160006EPSG_, symObjAddr: 0x31BB0, symBinAddr: 0x100035330, symSize: 0x58 }
  - { offsetInCU: 0x7FD16, offset: 0x7FD16, size: 0x8, addend: 0x0, symName: __ZNSt3__122__compressed_pair_elemIPPNS_16__hash_node_baseIPNS_11__hash_nodeINS_17__hash_value_typeIcNS_10unique_ptrIN6spdlog21custom_flag_formatterENS_14default_deleteIS6_EEEEEEPvEEEELi0ELb0EE5__getB7v160006Ev, symObjAddr: 0x31C08, symBinAddr: 0x100035388, symSize: 0x14 }
  - { offsetInCU: 0x7FD3C, offset: 0x7FD3C, size: 0x8, addend: 0x0, symName: __ZNSt3__116allocator_traitsINS_9allocatorIPNS_16__hash_node_baseIPNS_11__hash_nodeINS_17__hash_value_typeIcNS_10unique_ptrIN6spdlog21custom_flag_formatterENS_14default_deleteIS7_EEEEEEPvEEEEEEE10deallocateB7v160006ERSH_PSG_m, symObjAddr: 0x31C1C, symBinAddr: 0x10003539C, symSize: 0x34 }
  - { offsetInCU: 0x7FD7E, offset: 0x7FD7E, size: 0x8, addend: 0x0, symName: __ZNSt3__19allocatorIPNS_16__hash_node_baseIPNS_11__hash_nodeINS_17__hash_value_typeIcNS_10unique_ptrIN6spdlog21custom_flag_formatterENS_14default_deleteIS6_EEEEEEPvEEEEE10deallocateB7v160006EPSF_m, symObjAddr: 0x31C50, symBinAddr: 0x1000353D0, symSize: 0x40 }
  - { offsetInCU: 0x7FDC0, offset: 0x7FDC0, size: 0x8, addend: 0x0, symName: __ZNSt3__19allocatorIPNS_16__hash_node_baseIPNS_11__hash_nodeINS_17__hash_value_typeIcNS_10unique_ptrIN6spdlog21custom_flag_formatterENS_14default_deleteIS6_EEEEEEPvEEEEE8allocateB7v160006Em, symObjAddr: 0x31C90, symBinAddr: 0x100035410, symSize: 0x58 }
  - { offsetInCU: 0x7FDFF, offset: 0x7FDFF, size: 0x8, addend: 0x0, symName: __ZNSt3__116allocator_traitsINS_9allocatorIPNS_16__hash_node_baseIPNS_11__hash_nodeINS_17__hash_value_typeIcNS_10unique_ptrIN6spdlog21custom_flag_formatterENS_14default_deleteIS7_EEEEEEPvEEEEEEE8max_sizeB7v160006ISH_vEEmRKSH_, symObjAddr: 0x31CE8, symBinAddr: 0x100035468, symSize: 0x24 }
  - { offsetInCU: 0x7FE2D, offset: 0x7FE2D, size: 0x8, addend: 0x0, symName: __ZNKSt3__19allocatorIPNS_16__hash_node_baseIPNS_11__hash_nodeINS_17__hash_value_typeIcNS_10unique_ptrIN6spdlog21custom_flag_formatterENS_14default_deleteIS6_EEEEEEPvEEEEE8max_sizeB7v160006Ev, symObjAddr: 0x31D0C, symBinAddr: 0x10003548C, symSize: 0x14 }
  - { offsetInCU: 0x7FE53, offset: 0x7FE53, size: 0x8, addend: 0x0, symName: __ZNSt3__117__compressed_pairImNS_9allocatorIPNS_16__hash_node_baseIPNS_11__hash_nodeINS_17__hash_value_typeIcNS_10unique_ptrIN6spdlog21custom_flag_formatterENS_14default_deleteIS7_EEEEEEPvEEEEEEE5firstB7v160006Ev, symObjAddr: 0x31D20, symBinAddr: 0x1000354A0, symSize: 0x24 }
  - { offsetInCU: 0x7FE79, offset: 0x7FE79, size: 0x8, addend: 0x0, symName: __ZNSt3__122__compressed_pair_elemINS_16__hash_node_baseIPNS_11__hash_nodeINS_17__hash_value_typeIcNS_10unique_ptrIN6spdlog21custom_flag_formatterENS_14default_deleteIS6_EEEEEEPvEEEELi0ELb0EE5__getB7v160006Ev, symObjAddr: 0x31D60, symBinAddr: 0x1000354E0, symSize: 0x14 }
  - { offsetInCU: 0x7FE9F, offset: 0x7FE9F, size: 0x8, addend: 0x0, symName: __ZNKSt3__117__compressed_pairIPNS_11__hash_nodeINS_17__hash_value_typeIcNS_10unique_ptrIN6spdlog21custom_flag_formatterENS_14default_deleteIS5_EEEEEEPvEENS_22__hash_node_destructorINS_9allocatorISB_EEEEE5firstB7v160006Ev, symObjAddr: 0x31D74, symBinAddr: 0x1000354F4, symSize: 0x24 }
  - { offsetInCU: 0x7FEC5, offset: 0x7FEC5, size: 0x8, addend: 0x0, symName: __ZNKSt3__122__compressed_pair_elemIPNS_11__hash_nodeINS_17__hash_value_typeIcNS_10unique_ptrIN6spdlog21custom_flag_formatterENS_14default_deleteIS5_EEEEEEPvEELi0ELb0EE5__getB7v160006Ev, symObjAddr: 0x31D98, symBinAddr: 0x100035518, symSize: 0x14 }
  - { offsetInCU: 0x7FEEB, offset: 0x7FEEB, size: 0x8, addend: 0x0, symName: __ZNSt3__117__compressed_pairIPNS_11__hash_nodeINS_17__hash_value_typeIcNS_10unique_ptrIN6spdlog21custom_flag_formatterENS_14default_deleteIS5_EEEEEEPvEENS_22__hash_node_destructorINS_9allocatorISB_EEEEE5firstB7v160006Ev, symObjAddr: 0x31DAC, symBinAddr: 0x10003552C, symSize: 0x24 }
  - { offsetInCU: 0x7FF11, offset: 0x7FF11, size: 0x8, addend: 0x0, symName: __ZNSt3__122__compressed_pair_elemIPNS_11__hash_nodeINS_17__hash_value_typeIcNS_10unique_ptrIN6spdlog21custom_flag_formatterENS_14default_deleteIS5_EEEEEEPvEELi0ELb0EE5__getB7v160006Ev, symObjAddr: 0x31DD0, symBinAddr: 0x100035550, symSize: 0x14 }
  - { offsetInCU: 0x7FF37, offset: 0x7FF37, size: 0x8, addend: 0x0, symName: __ZNSt3__110unique_ptrINS_11__hash_nodeINS_17__hash_value_typeIcNS0_IN6spdlog21custom_flag_formatterENS_14default_deleteIS4_EEEEEEPvEENS_22__hash_node_destructorINS_9allocatorISA_EEEEED2B7v160006Ev, symObjAddr: 0x31DE4, symBinAddr: 0x100035564, symSize: 0x30 }
  - { offsetInCU: 0x7FF61, offset: 0x7FF61, size: 0x8, addend: 0x0, symName: __ZNSt3__110unique_ptrINS_11__hash_nodeINS_17__hash_value_typeIcNS0_IN6spdlog21custom_flag_formatterENS_14default_deleteIS4_EEEEEEPvEENS_22__hash_node_destructorINS_9allocatorISA_EEEEE5resetB7v160006EPSA_, symObjAddr: 0x31E14, symBinAddr: 0x100035594, symSize: 0x78 }
  - { offsetInCU: 0x7FFA5, offset: 0x7FFA5, size: 0x8, addend: 0x0, symName: __ZNSt3__122__hash_node_destructorINS_9allocatorINS_11__hash_nodeINS_17__hash_value_typeIcNS_10unique_ptrIN6spdlog21custom_flag_formatterENS_14default_deleteIS6_EEEEEEPvEEEEEclB7v160006EPSC_, symObjAddr: 0x31E8C, symBinAddr: 0x10003560C, symSize: 0x98 }
  - { offsetInCU: 0x7FFDA, offset: 0x7FFDA, size: 0x8, addend: 0x0, symName: __ZNSt3__116allocator_traitsINS_9allocatorINS_11__hash_nodeINS_17__hash_value_typeIcNS_10unique_ptrIN6spdlog21custom_flag_formatterENS_14default_deleteIS6_EEEEEEPvEEEEE7destroyB7v160006INS_4pairIKcS9_EEvvEEvRSD_PT_, symObjAddr: 0x31F24, symBinAddr: 0x1000356A4, symSize: 0x28 }
  - { offsetInCU: 0x80015, offset: 0x80015, size: 0x8, addend: 0x0, symName: __ZNSt3__116allocator_traitsINS_9allocatorINS_11__hash_nodeINS_17__hash_value_typeIcNS_10unique_ptrIN6spdlog21custom_flag_formatterENS_14default_deleteIS6_EEEEEEPvEEEEE10deallocateB7v160006ERSD_PSC_m, symObjAddr: 0x31F4C, symBinAddr: 0x1000356CC, symSize: 0x34 }
  - { offsetInCU: 0x80057, offset: 0x80057, size: 0x8, addend: 0x0, symName: __ZNSt3__14pairIKcNS_10unique_ptrIN6spdlog21custom_flag_formatterENS_14default_deleteIS4_EEEEED1Ev, symObjAddr: 0x31F80, symBinAddr: 0x100035700, symSize: 0x2C }
  - { offsetInCU: 0x80083, offset: 0x80083, size: 0x8, addend: 0x0, symName: __ZNSt3__14pairIKcNS_10unique_ptrIN6spdlog21custom_flag_formatterENS_14default_deleteIS4_EEEEED2Ev, symObjAddr: 0x31FAC, symBinAddr: 0x10003572C, symSize: 0x30 }
  - { offsetInCU: 0x800AF, offset: 0x800AF, size: 0x8, addend: 0x0, symName: __ZNSt3__19allocatorINS_11__hash_nodeINS_17__hash_value_typeIcNS_10unique_ptrIN6spdlog21custom_flag_formatterENS_14default_deleteIS5_EEEEEEPvEEE10deallocateB7v160006EPSB_m, symObjAddr: 0x31FDC, symBinAddr: 0x10003575C, symSize: 0x40 }
  - { offsetInCU: 0x800F1, offset: 0x800F1, size: 0x8, addend: 0x0, symName: __ZNSt3__115__hash_iteratorIPNS_11__hash_nodeINS_17__hash_value_typeIcNS_10unique_ptrIN6spdlog21custom_flag_formatterENS_14default_deleteIS5_EEEEEEPvEEEC2B7v160006EPNS_16__hash_node_baseISC_EEPKv, symObjAddr: 0x3201C, symBinAddr: 0x10003579C, symSize: 0x24 }
  - { offsetInCU: 0x80139, offset: 0x80139, size: 0x8, addend: 0x0, symName: __ZNSt3__14pairINS_15__hash_iteratorIPNS_11__hash_nodeINS_17__hash_value_typeIcNS_10unique_ptrIN6spdlog21custom_flag_formatterENS_14default_deleteIS6_EEEEEEPvEEEEbEC2B7v160006ISE_RbLSB_0EEEOT_OT0_, symObjAddr: 0x32040, symBinAddr: 0x1000357C0, symSize: 0x38 }
  - { offsetInCU: 0x80197, offset: 0x80197, size: 0x8, addend: 0x0, symName: __ZNSt3__15tupleIJRKcEEC1B7v160006INS_4_AndELi0EEES2_, symObjAddr: 0x32078, symBinAddr: 0x1000357F8, symSize: 0x34 }
  - { offsetInCU: 0x801E0, offset: 0x801E0, size: 0x8, addend: 0x0, symName: __ZNSt3__15tupleIJRKcEEC2B7v160006INS_4_AndELi0EEES2_, symObjAddr: 0x320AC, symBinAddr: 0x10003582C, symSize: 0x34 }
  - { offsetInCU: 0x80229, offset: 0x80229, size: 0x8, addend: 0x0, symName: __ZNSt3__112__tuple_implINS_15__tuple_indicesIJLm0EEEEJRKcEEC1B7v160006IJLm0EEJS4_EJEJEJS4_EEENS1_IJXspT_EEEENS_13__tuple_typesIJDpT0_EEENS1_IJXspT1_EEEENS8_IJDpT2_EEEDpOT3_, symObjAddr: 0x320E0, symBinAddr: 0x100035860, symSize: 0x34 }
  - { offsetInCU: 0x802BE, offset: 0x802BE, size: 0x8, addend: 0x0, symName: __ZNSt3__112__tuple_implINS_15__tuple_indicesIJLm0EEEEJRKcEEC2B7v160006IJLm0EEJS4_EJEJEJS4_EEENS1_IJXspT_EEEENS_13__tuple_typesIJDpT0_EEENS1_IJXspT1_EEEENS8_IJDpT2_EEEDpOT3_, symObjAddr: 0x32114, symBinAddr: 0x100035894, symSize: 0x34 }
  - { offsetInCU: 0x80353, offset: 0x80353, size: 0x8, addend: 0x0, symName: __ZNSt3__112__tuple_leafILm0ERKcLb0EEC2B7v160006IS2_vEEOT_, symObjAddr: 0x32148, symBinAddr: 0x1000358C8, symSize: 0x20 }
  - { offsetInCU: 0x80396, offset: 0x80396, size: 0x8, addend: 0x0, symName: __ZNSt3__114pointer_traitsIPNS_17__hash_value_typeIcNS_10unique_ptrIN6spdlog21custom_flag_formatterENS_14default_deleteIS4_EEEEEEE10pointer_toB7v160006ERS8_, symObjAddr: 0x32168, symBinAddr: 0x1000358E8, symSize: 0x14 }
  - { offsetInCU: 0x803B9, offset: 0x803B9, size: 0x8, addend: 0x0, symName: __ZNSt3__110unique_ptrIN6spdlog21custom_flag_formatterENS_14default_deleteIS2_EEE5resetB7v160006EPS2_, symObjAddr: 0x3217C, symBinAddr: 0x1000358FC, symSize: 0x78 }
  - { offsetInCU: 0x803FD, offset: 0x803FD, size: 0x8, addend: 0x0, symName: __ZNSt3__110unique_ptrIN6spdlog21custom_flag_formatterENS_14default_deleteIS2_EEE7releaseB7v160006Ev, symObjAddr: 0x321F4, symBinAddr: 0x100035974, symSize: 0x44 }
  - { offsetInCU: 0x80432, offset: 0x80432, size: 0x8, addend: 0x0, symName: __ZNSt3__110unique_ptrIN6spdlog21custom_flag_formatterENS_14default_deleteIS2_EEE11get_deleterB7v160006Ev, symObjAddr: 0x32238, symBinAddr: 0x1000359B8, symSize: 0x24 }
  - { offsetInCU: 0x80458, offset: 0x80458, size: 0x8, addend: 0x0, symName: __ZNSt3__117__compressed_pairIPN6spdlog21custom_flag_formatterENS_14default_deleteIS2_EEE6secondB7v160006Ev, symObjAddr: 0x3225C, symBinAddr: 0x1000359DC, symSize: 0x24 }
  - { offsetInCU: 0x8047E, offset: 0x8047E, size: 0x8, addend: 0x0, symName: __ZNSt3__117__compressed_pairIPN6spdlog21custom_flag_formatterENS_14default_deleteIS2_EEE5firstB7v160006Ev, symObjAddr: 0x32280, symBinAddr: 0x100035A00, symSize: 0x24 }
  - { offsetInCU: 0x804A4, offset: 0x804A4, size: 0x8, addend: 0x0, symName: __ZNKSt3__114default_deleteIN6spdlog21custom_flag_formatterEEclB7v160006EPS2_, symObjAddr: 0x322A4, symBinAddr: 0x100035A24, symSize: 0x4C }
  - { offsetInCU: 0x804D8, offset: 0x804D8, size: 0x8, addend: 0x0, symName: __ZNSt3__122__compressed_pair_elemIPN6spdlog21custom_flag_formatterELi0ELb0EE5__getB7v160006Ev, symObjAddr: 0x322F0, symBinAddr: 0x100035A70, symSize: 0x14 }
  - { offsetInCU: 0x804FE, offset: 0x804FE, size: 0x8, addend: 0x0, symName: __ZNSt3__122__compressed_pair_elemINS_14default_deleteIN6spdlog21custom_flag_formatterEEELi1ELb1EE5__getB7v160006Ev, symObjAddr: 0x32304, symBinAddr: 0x100035A84, symSize: 0x14 }
  - { offsetInCU: 0x80524, offset: 0x80524, size: 0x8, addend: 0x0, symName: __ZNSt3__110unique_ptrIN6spdlog21custom_flag_formatterENS_14default_deleteIS2_EEED2B7v160006Ev, symObjAddr: 0x32318, symBinAddr: 0x100035A98, symSize: 0x30 }
  - { offsetInCU: 0x8054E, offset: 0x8054E, size: 0x8, addend: 0x0, symName: __ZNSt3__121__hash_const_iteratorIPNS_11__hash_nodeINS_17__hash_value_typeIcNS_10unique_ptrIN6spdlog21custom_flag_formatterENS_14default_deleteIS5_EEEEEEPvEEEppB7v160006Ev, symObjAddr: 0x32348, symBinAddr: 0x100035AC8, symSize: 0x20 }
  - { offsetInCU: 0x80574, offset: 0x80574, size: 0x8, addend: 0x0, symName: __ZNSt3__113unordered_mapIcNS_10unique_ptrIN6spdlog21custom_flag_formatterENS_14default_deleteIS3_EEEENS_4hashIcEENS_8equal_toIcEENS_9allocatorINS_4pairIKcS6_EEEEEC1EOSG_, symObjAddr: 0x32368, symBinAddr: 0x100035AE8, symSize: 0x34 }
  - { offsetInCU: 0x805AF, offset: 0x805AF, size: 0x8, addend: 0x0, symName: __ZNSt3__110unique_ptrIN6spdlog17pattern_formatterENS_14default_deleteIS2_EEEC1B7v160006ILb1EvEEPS2_, symObjAddr: 0x3239C, symBinAddr: 0x100035B1C, symSize: 0x34 }
  - { offsetInCU: 0x805F2, offset: 0x805F2, size: 0x8, addend: 0x0, symName: __ZNSt3__113unordered_mapIcNS_10unique_ptrIN6spdlog21custom_flag_formatterENS_14default_deleteIS3_EEEENS_4hashIcEENS_8equal_toIcEENS_9allocatorINS_4pairIKcS6_EEEEEC2EOSG_, symObjAddr: 0x323D0, symBinAddr: 0x100035B50, symSize: 0x54 }
  - { offsetInCU: 0x8062D, offset: 0x8062D, size: 0x8, addend: 0x0, symName: __ZNSt3__112__hash_tableINS_17__hash_value_typeIcNS_10unique_ptrIN6spdlog21custom_flag_formatterENS_14default_deleteIS4_EEEEEENS_22__unordered_map_hasherIcS8_NS_4hashIcEENS_8equal_toIcEELb1EEENS_21__unordered_map_equalIcS8_SD_SB_Lb1EEENS_9allocatorIS8_EEEC1EOSJ_, symObjAddr: 0x32424, symBinAddr: 0x100035BA4, symSize: 0x34 }
  - { offsetInCU: 0x80668, offset: 0x80668, size: 0x8, addend: 0x0, symName: __ZNSt3__112__hash_tableINS_17__hash_value_typeIcNS_10unique_ptrIN6spdlog21custom_flag_formatterENS_14default_deleteIS4_EEEEEENS_22__unordered_map_hasherIcS8_NS_4hashIcEENS_8equal_toIcEELb1EEENS_21__unordered_map_equalIcS8_SD_SB_Lb1EEENS_9allocatorIS8_EEEC2EOSJ_, symObjAddr: 0x3247C, symBinAddr: 0x100035BFC, symSize: 0xF8 }
  - { offsetInCU: 0x806A3, offset: 0x806A3, size: 0x8, addend: 0x0, symName: __ZNSt3__110unique_ptrIA_PNS_16__hash_node_baseIPNS_11__hash_nodeINS_17__hash_value_typeIcNS0_IN6spdlog21custom_flag_formatterENS_14default_deleteIS5_EEEEEEPvEEEENS_25__bucket_list_deallocatorINS_9allocatorISE_EEEEEC1B7v160006EOSK_, symObjAddr: 0x32574, symBinAddr: 0x100035CF4, symSize: 0x34 }
  - { offsetInCU: 0x806DC, offset: 0x806DC, size: 0x8, addend: 0x0, symName: __ZNSt3__110unique_ptrIA_PNS_16__hash_node_baseIPNS_11__hash_nodeINS_17__hash_value_typeIcNS0_IN6spdlog21custom_flag_formatterENS_14default_deleteIS5_EEEEEEPvEEEENS_25__bucket_list_deallocatorINS_9allocatorISE_EEEEEC2B7v160006EOSK_, symObjAddr: 0x325A8, symBinAddr: 0x100035D28, symSize: 0x60 }
  - { offsetInCU: 0x80715, offset: 0x80715, size: 0x8, addend: 0x0, symName: __ZNSt3__110unique_ptrIA_PNS_16__hash_node_baseIPNS_11__hash_nodeINS_17__hash_value_typeIcNS0_IN6spdlog21custom_flag_formatterENS_14default_deleteIS5_EEEEEEPvEEEENS_25__bucket_list_deallocatorINS_9allocatorISE_EEEEE7releaseB7v160006Ev, symObjAddr: 0x32608, symBinAddr: 0x100035D88, symSize: 0x44 }
  - { offsetInCU: 0x80750, offset: 0x80750, size: 0x8, addend: 0x0, symName: __ZNSt3__117__compressed_pairIPPNS_16__hash_node_baseIPNS_11__hash_nodeINS_17__hash_value_typeIcNS_10unique_ptrIN6spdlog21custom_flag_formatterENS_14default_deleteIS6_EEEEEEPvEEEENS_25__bucket_list_deallocatorINS_9allocatorISF_EEEEEC1B7v160006ISG_SK_EEOT_OT0_, symObjAddr: 0x3264C, symBinAddr: 0x100035DCC, symSize: 0x3C }
  - { offsetInCU: 0x807A8, offset: 0x807A8, size: 0x8, addend: 0x0, symName: __ZNSt3__117__compressed_pairIPPNS_16__hash_node_baseIPNS_11__hash_nodeINS_17__hash_value_typeIcNS_10unique_ptrIN6spdlog21custom_flag_formatterENS_14default_deleteIS6_EEEEEEPvEEEENS_25__bucket_list_deallocatorINS_9allocatorISF_EEEEEC2B7v160006ISG_SK_EEOT_OT0_, symObjAddr: 0x32688, symBinAddr: 0x100035E08, symSize: 0x48 }
  - { offsetInCU: 0x80800, offset: 0x80800, size: 0x8, addend: 0x0, symName: __ZNSt3__122__compressed_pair_elemIPPNS_16__hash_node_baseIPNS_11__hash_nodeINS_17__hash_value_typeIcNS_10unique_ptrIN6spdlog21custom_flag_formatterENS_14default_deleteIS6_EEEEEEPvEEEELi0ELb0EEC2B7v160006ISG_vEEOT_, symObjAddr: 0x326D0, symBinAddr: 0x100035E50, symSize: 0x24 }
  - { offsetInCU: 0x80842, offset: 0x80842, size: 0x8, addend: 0x0, symName: __ZNSt3__122__compressed_pair_elemINS_25__bucket_list_deallocatorINS_9allocatorIPNS_16__hash_node_baseIPNS_11__hash_nodeINS_17__hash_value_typeIcNS_10unique_ptrIN6spdlog21custom_flag_formatterENS_14default_deleteIS8_EEEEEEPvEEEEEEEELi1ELb0EEC2B7v160006ISJ_vEEOT_, symObjAddr: 0x326F4, symBinAddr: 0x100035E74, symSize: 0x34 }
  - { offsetInCU: 0x80884, offset: 0x80884, size: 0x8, addend: 0x0, symName: __ZNSt3__125__bucket_list_deallocatorINS_9allocatorIPNS_16__hash_node_baseIPNS_11__hash_nodeINS_17__hash_value_typeIcNS_10unique_ptrIN6spdlog21custom_flag_formatterENS_14default_deleteIS7_EEEEEEPvEEEEEEEC1B7v160006EOSI_, symObjAddr: 0x32728, symBinAddr: 0x100035EA8, symSize: 0x34 }
  - { offsetInCU: 0x808BD, offset: 0x808BD, size: 0x8, addend: 0x0, symName: __ZNSt3__125__bucket_list_deallocatorINS_9allocatorIPNS_16__hash_node_baseIPNS_11__hash_nodeINS_17__hash_value_typeIcNS_10unique_ptrIN6spdlog21custom_flag_formatterENS_14default_deleteIS7_EEEEEEPvEEEEEEEC2B7v160006EOSI_, symObjAddr: 0x3275C, symBinAddr: 0x100035EDC, symSize: 0x48 }
  - { offsetInCU: 0x808F6, offset: 0x808F6, size: 0x8, addend: 0x0, symName: __ZNSt3__110unique_ptrIN6spdlog17pattern_formatterENS_14default_deleteIS2_EEEC2B7v160006ILb1EvEEPS2_, symObjAddr: 0x327A4, symBinAddr: 0x100035F24, symSize: 0x44 }
  - { offsetInCU: 0x80939, offset: 0x80939, size: 0x8, addend: 0x0, symName: __ZNSt3__117__compressed_pairIPN6spdlog17pattern_formatterENS_14default_deleteIS2_EEEC1B7v160006IRS3_NS_16__value_init_tagEEEOT_OT0_, symObjAddr: 0x327E8, symBinAddr: 0x100035F68, symSize: 0x3C }
  - { offsetInCU: 0x80991, offset: 0x80991, size: 0x8, addend: 0x0, symName: __ZNSt3__117__compressed_pairIPN6spdlog17pattern_formatterENS_14default_deleteIS2_EEEC2B7v160006IRS3_NS_16__value_init_tagEEEOT_OT0_, symObjAddr: 0x32824, symBinAddr: 0x100035FA4, symSize: 0x40 }
  - { offsetInCU: 0x809E9, offset: 0x809E9, size: 0x8, addend: 0x0, symName: __ZNSt3__122__compressed_pair_elemIPN6spdlog17pattern_formatterELi0ELb0EEC2B7v160006IRS3_vEEOT_, symObjAddr: 0x32864, symBinAddr: 0x100035FE4, symSize: 0x24 }
  - { offsetInCU: 0x80A2B, offset: 0x80A2B, size: 0x8, addend: 0x0, symName: __ZNSt3__122__compressed_pair_elemINS_14default_deleteIN6spdlog17pattern_formatterEEELi1ELb1EEC2B7v160006ENS_16__value_init_tagE, symObjAddr: 0x32888, symBinAddr: 0x100036008, symSize: 0x14 }
  - { offsetInCU: 0x80A60, offset: 0x80A60, size: 0x8, addend: 0x0, symName: __ZNKSt3__117__compressed_pairIPN6spdlog17pattern_formatterENS_14default_deleteIS2_EEE5firstB7v160006Ev, symObjAddr: 0x3289C, symBinAddr: 0x10003601C, symSize: 0x24 }
  - { offsetInCU: 0x80A86, offset: 0x80A86, size: 0x8, addend: 0x0, symName: __ZNKSt3__122__compressed_pair_elemIPN6spdlog17pattern_formatterELi0ELb0EE5__getB7v160006Ev, symObjAddr: 0x328C0, symBinAddr: 0x100036040, symSize: 0x14 }
  - { offsetInCU: 0x80AAC, offset: 0x80AAC, size: 0x8, addend: 0x0, symName: __ZNSt3__110unique_ptrIN6spdlog9formatterENS_14default_deleteIS2_EEEC2B7v160006INS1_17pattern_formatterENS3_IS7_EEvvEEONS0_IT_T0_EE, symObjAddr: 0x328D4, symBinAddr: 0x100036054, symSize: 0x60 }
  - { offsetInCU: 0x80AF8, offset: 0x80AF8, size: 0x8, addend: 0x0, symName: __ZNSt3__110unique_ptrIN6spdlog17pattern_formatterENS_14default_deleteIS2_EEE7releaseB7v160006Ev, symObjAddr: 0x32934, symBinAddr: 0x1000360B4, symSize: 0x44 }
  - { offsetInCU: 0x80B2D, offset: 0x80B2D, size: 0x8, addend: 0x0, symName: __ZNSt3__110unique_ptrIN6spdlog17pattern_formatterENS_14default_deleteIS2_EEE11get_deleterB7v160006Ev, symObjAddr: 0x32978, symBinAddr: 0x1000360F8, symSize: 0x24 }
  - { offsetInCU: 0x80B5F, offset: 0x80B5F, size: 0x8, addend: 0x0, symName: __ZNSt3__117__compressed_pairIPN6spdlog9formatterENS_14default_deleteIS2_EEEC1B7v160006IPNS1_17pattern_formatterENS4_IS8_EEEEOT_OT0_, symObjAddr: 0x3299C, symBinAddr: 0x10003611C, symSize: 0x3C }
  - { offsetInCU: 0x80BB7, offset: 0x80BB7, size: 0x8, addend: 0x0, symName: __ZNSt3__117__compressed_pairIPN6spdlog17pattern_formatterENS_14default_deleteIS2_EEE5firstB7v160006Ev, symObjAddr: 0x329D8, symBinAddr: 0x100036158, symSize: 0x24 }
  - { offsetInCU: 0x80BDD, offset: 0x80BDD, size: 0x8, addend: 0x0, symName: __ZNSt3__122__compressed_pair_elemIPN6spdlog17pattern_formatterELi0ELb0EE5__getB7v160006Ev, symObjAddr: 0x329FC, symBinAddr: 0x10003617C, symSize: 0x14 }
  - { offsetInCU: 0x80C03, offset: 0x80C03, size: 0x8, addend: 0x0, symName: __ZNSt3__117__compressed_pairIPN6spdlog17pattern_formatterENS_14default_deleteIS2_EEE6secondB7v160006Ev, symObjAddr: 0x32A10, symBinAddr: 0x100036190, symSize: 0x24 }
  - { offsetInCU: 0x80C29, offset: 0x80C29, size: 0x8, addend: 0x0, symName: __ZNSt3__122__compressed_pair_elemINS_14default_deleteIN6spdlog17pattern_formatterEEELi1ELb1EE5__getB7v160006Ev, symObjAddr: 0x32A34, symBinAddr: 0x1000361B4, symSize: 0x14 }
  - { offsetInCU: 0x80C4F, offset: 0x80C4F, size: 0x8, addend: 0x0, symName: __ZNSt3__117__compressed_pairIPN6spdlog9formatterENS_14default_deleteIS2_EEEC2B7v160006IPNS1_17pattern_formatterENS4_IS8_EEEEOT_OT0_, symObjAddr: 0x32A48, symBinAddr: 0x1000361C8, symSize: 0x44 }
  - { offsetInCU: 0x80CA7, offset: 0x80CA7, size: 0x8, addend: 0x0, symName: __ZNSt3__122__compressed_pair_elemIPN6spdlog9formatterELi0ELb0EEC2B7v160006IPNS1_17pattern_formatterEvEEOT_, symObjAddr: 0x32A8C, symBinAddr: 0x10003620C, symSize: 0x24 }
  - { offsetInCU: 0x80CE9, offset: 0x80CE9, size: 0x8, addend: 0x0, symName: __ZNSt3__122__compressed_pair_elemINS_14default_deleteIN6spdlog9formatterEEELi1ELb1EEC2B7v160006INS1_INS2_17pattern_formatterEEEvEEOT_, symObjAddr: 0x32AB0, symBinAddr: 0x100036230, symSize: 0x38 }
  - { offsetInCU: 0x80D2B, offset: 0x80D2B, size: 0x8, addend: 0x0, symName: __ZNSt3__114default_deleteIN6spdlog9formatterEEC2B7v160006INS1_17pattern_formatterEEERKNS0_IT_EEPNS_9enable_ifIXsr14is_convertibleIPS6_PS2_EE5valueEvE4typeE, symObjAddr: 0x32AE8, symBinAddr: 0x100036268, symSize: 0x1C }
  - { offsetInCU: 0x80D74, offset: 0x80D74, size: 0x8, addend: 0x0, symName: __ZNSt3__110unique_ptrIN6spdlog17pattern_formatterENS_14default_deleteIS2_EEED2B7v160006Ev, symObjAddr: 0x32B04, symBinAddr: 0x100036284, symSize: 0x30 }
  - { offsetInCU: 0x80D9E, offset: 0x80D9E, size: 0x8, addend: 0x0, symName: __ZNSt3__110unique_ptrIN6spdlog17pattern_formatterENS_14default_deleteIS2_EEE5resetB7v160006EPS2_, symObjAddr: 0x32B34, symBinAddr: 0x1000362B4, symSize: 0x78 }
  - { offsetInCU: 0x80DE2, offset: 0x80DE2, size: 0x8, addend: 0x0, symName: __ZNKSt3__114default_deleteIN6spdlog17pattern_formatterEEclB7v160006EPS2_, symObjAddr: 0x32BAC, symBinAddr: 0x10003632C, symSize: 0x4C }
  - { offsetInCU: 0x80E16, offset: 0x80E16, size: 0x8, addend: 0x0, symName: __ZNSt3__18functionIFvRKNS_12basic_stringIcNS_11char_traitsIcEENS_9allocatorIcEEEEEEC2B7v160006Ev, symObjAddr: 0x32BF8, symBinAddr: 0x100036378, symSize: 0x2C }
  - { offsetInCU: 0x80E40, offset: 0x80E40, size: 0x8, addend: 0x0, symName: __ZNSt3__110__function12__value_funcIFvRKNS_12basic_stringIcNS_11char_traitsIcEENS_9allocatorIcEEEEEEC1B7v160006Ev, symObjAddr: 0x32C24, symBinAddr: 0x1000363A4, symSize: 0x2C }
  - { offsetInCU: 0x80E6A, offset: 0x80E6A, size: 0x8, addend: 0x0, symName: __ZNSt3__110__function12__value_funcIFvRKNS_12basic_stringIcNS_11char_traitsIcEENS_9allocatorIcEEEEEEC2B7v160006Ev, symObjAddr: 0x32C50, symBinAddr: 0x1000363D0, symSize: 0x18 }
  - { offsetInCU: 0x80E94, offset: 0x80E94, size: 0x8, addend: 0x0, symName: __ZNSt3__110shared_ptrIN6spdlog7details11thread_poolEEC2B7v160006Ev, symObjAddr: 0x32C68, symBinAddr: 0x1000363E8, symSize: 0x1C }
  - { offsetInCU: 0x80EBE, offset: 0x80EBE, size: 0x8, addend: 0x0, symName: __ZNSt3__110unique_ptrIN6spdlog7details15periodic_workerENS_14default_deleteIS3_EEEC2B7v160006ILb1EvEEv, symObjAddr: 0x32C84, symBinAddr: 0x100036404, symSize: 0x3C }
  - { offsetInCU: 0x80EF3, offset: 0x80EF3, size: 0x8, addend: 0x0, symName: __ZNSt3__117__compressed_pairIPN6spdlog7details15periodic_workerENS_14default_deleteIS3_EEEC1B7v160006INS_16__value_init_tagES9_EEOT_OT0_, symObjAddr: 0x32CC0, symBinAddr: 0x100036440, symSize: 0x3C }
  - { offsetInCU: 0x80F4B, offset: 0x80F4B, size: 0x8, addend: 0x0, symName: __ZNSt3__117__compressed_pairIPN6spdlog7details15periodic_workerENS_14default_deleteIS3_EEEC2B7v160006INS_16__value_init_tagES9_EEOT_OT0_, symObjAddr: 0x32CFC, symBinAddr: 0x10003647C, symSize: 0x3C }
  - { offsetInCU: 0x80FA3, offset: 0x80FA3, size: 0x8, addend: 0x0, symName: __ZNSt3__122__compressed_pair_elemIPN6spdlog7details15periodic_workerELi0ELb0EEC2B7v160006ENS_16__value_init_tagE, symObjAddr: 0x32D38, symBinAddr: 0x1000364B8, symSize: 0x18 }
  - { offsetInCU: 0x80FD8, offset: 0x80FD8, size: 0x8, addend: 0x0, symName: __ZNSt3__122__compressed_pair_elemINS_14default_deleteIN6spdlog7details15periodic_workerEEELi1ELb1EEC2B7v160006ENS_16__value_init_tagE, symObjAddr: 0x32D50, symBinAddr: 0x1000364D0, symSize: 0x14 }
  - { offsetInCU: 0x8100D, offset: 0x8100D, size: 0x8, addend: 0x0, symName: __ZNSt3__110shared_ptrIN6spdlog6loggerEEC2B7v160006Ev, symObjAddr: 0x32D64, symBinAddr: 0x1000364E4, symSize: 0x1C }
  - { offsetInCU: 0x81037, offset: 0x81037, size: 0x8, addend: 0x0, symName: __ZNSt3__19allocatorIN6spdlog5sinks21ansicolor_stdout_sinkINS1_7details13console_mutexEEEEC1B7v160006Ev, symObjAddr: 0x32E10, symBinAddr: 0x100036590, symSize: 0x2C }
  - { offsetInCU: 0x810A6, offset: 0x810A6, size: 0x8, addend: 0x0, symName: __ZNSt3__118__allocation_guardINS_9allocatorINS_20__shared_ptr_emplaceIN6spdlog5sinks21ansicolor_stdout_sinkINS3_7details13console_mutexEEENS1_IS8_EEEEEEEC1B7v160006IS9_EET_m, symObjAddr: 0x32E3C, symBinAddr: 0x1000365BC, symSize: 0x34 }
  - { offsetInCU: 0x810F5, offset: 0x810F5, size: 0x8, addend: 0x0, symName: __ZNKSt3__118__allocation_guardINS_9allocatorINS_20__shared_ptr_emplaceIN6spdlog5sinks21ansicolor_stdout_sinkINS3_7details13console_mutexEEENS1_IS8_EEEEEEE5__getB7v160006Ev, symObjAddr: 0x32E70, symBinAddr: 0x1000365F0, symSize: 0x18 }
